
e1000.ko:     file format elf64-x86-64


Disassembly of section .text:

0000000000000000 <e1000_alloc_dummy_rx_buffers>:
       0:	e8 00 00 00 00       	callq  5 <e1000_alloc_dummy_rx_buffers+0x5>
       5:	55                   	push   %rbp
       6:	48 89 e5             	mov    %rsp,%rbp
       9:	5d                   	pop    %rbp
       a:	e9 00 00 00 00       	jmpq   f <e1000_alloc_dummy_rx_buffers+0xf>
       f:	90                   	nop

0000000000000010 <e1000_fix_features>:
      10:	e8 00 00 00 00       	callq  15 <e1000_fix_features+0x5>
      15:	55                   	push   %rbp
      16:	48 89 f2             	mov    %rsi,%rdx
      19:	48 89 f0             	mov    %rsi,%rax
      1c:	80 ca 80             	or     $0x80,%dl
      1f:	24 7f                	and    $0x7f,%al
      21:	f7 c6 00 01 00 00    	test   $0x100,%esi
      27:	48 0f 45 c2          	cmovne %rdx,%rax
      2b:	48 89 e5             	mov    %rsp,%rbp
      2e:	5d                   	pop    %rbp
      2f:	e9 00 00 00 00       	jmpq   34 <e1000_fix_features+0x24>
      34:	66 66 2e 0f 1f 84 00 	data16 nopw %cs:0x0(%rax,%rax,1)
      3b:	00 00 00 00 
      3f:	90                   	nop

0000000000000040 <e1000_regdump>:
      40:	e8 00 00 00 00       	callq  45 <e1000_regdump+0x5>
      45:	55                   	push   %rbp
      46:	48 89 e5             	mov    %rsp,%rbp
      49:	53                   	push   %rbx
      4a:	48 81 ec a8 00 00 00 	sub    $0xa8,%rsp
      51:	65 48 8b 04 25 28 00 	mov    %gs:0x28,%rax
      58:	00 00 
      5a:	48 89 45 f0          	mov    %rax,-0x10(%rbp)
      5e:	31 c0                	xor    %eax,%eax
      60:	48 8b 87 88 04 00 00 	mov    0x488(%rdi),%rax
      67:	8b 00                	mov    (%rax),%eax
      69:	89 85 58 ff ff ff    	mov    %eax,-0xa8(%rbp)
      6f:	48 8b 87 88 04 00 00 	mov    0x488(%rdi),%rax
      76:	8b 40 08             	mov    0x8(%rax),%eax
      79:	89 85 5c ff ff ff    	mov    %eax,-0xa4(%rbp)
      7f:	48 8b 87 88 04 00 00 	mov    0x488(%rdi),%rax
      86:	8b 80 00 01 00 00    	mov    0x100(%rax),%eax
      8c:	83 bf a0 04 00 00 03 	cmpl   $0x3,0x4a0(%rdi)
      93:	89 85 60 ff ff ff    	mov    %eax,-0xa0(%rbp)
      99:	48 19 c0             	sbb    %rax,%rax
      9c:	48 25 10 d9 ff ff    	and    $0xffffffffffffd910,%rax
      a2:	48 05 08 28 00 00    	add    $0x2808,%rax
      a8:	48 03 87 88 04 00 00 	add    0x488(%rdi),%rax
      af:	8b 00                	mov    (%rax),%eax
      b1:	83 bf a0 04 00 00 03 	cmpl   $0x3,0x4a0(%rdi)
      b8:	89 85 64 ff ff ff    	mov    %eax,-0x9c(%rbp)
      be:	48 19 c0             	sbb    %rax,%rax
      c1:	48 25 10 d9 ff ff    	and    $0xffffffffffffd910,%rax
      c7:	48 05 10 28 00 00    	add    $0x2810,%rax
      cd:	48 03 87 88 04 00 00 	add    0x488(%rdi),%rax
      d4:	8b 00                	mov    (%rax),%eax
      d6:	83 bf a0 04 00 00 03 	cmpl   $0x3,0x4a0(%rdi)
      dd:	89 85 68 ff ff ff    	mov    %eax,-0x98(%rbp)
      e3:	48 19 c0             	sbb    %rax,%rax
      e6:	48 25 10 d9 ff ff    	and    $0xffffffffffffd910,%rax
      ec:	48 05 18 28 00 00    	add    $0x2818,%rax
      f2:	48 03 87 88 04 00 00 	add    0x488(%rdi),%rax
      f9:	8b 00                	mov    (%rax),%eax
      fb:	83 bf a0 04 00 00 03 	cmpl   $0x3,0x4a0(%rdi)
     102:	89 85 6c ff ff ff    	mov    %eax,-0x94(%rbp)
     108:	48 19 c0             	sbb    %rax,%rax
     10b:	48 25 e8 d8 ff ff    	and    $0xffffffffffffd8e8,%rax
     111:	48 05 20 28 00 00    	add    $0x2820,%rax
     117:	48 03 87 88 04 00 00 	add    0x488(%rdi),%rax
     11e:	8b 00                	mov    (%rax),%eax
     120:	89 85 70 ff ff ff    	mov    %eax,-0x90(%rbp)
     126:	48 8b 87 88 04 00 00 	mov    0x488(%rdi),%rax
     12d:	8b 80 00 04 00 00    	mov    0x400(%rax),%eax
     133:	83 bf a0 04 00 00 03 	cmpl   $0x3,0x4a0(%rdi)
     13a:	89 85 74 ff ff ff    	mov    %eax,-0x8c(%rbp)
     140:	48 19 c0             	sbb    %rax,%rax
     143:	48 25 20 cc ff ff    	and    $0xffffffffffffcc20,%rax
     149:	48 05 00 38 00 00    	add    $0x3800,%rax
     14f:	48 03 87 88 04 00 00 	add    0x488(%rdi),%rax
     156:	8b 00                	mov    (%rax),%eax
     158:	83 bf a0 04 00 00 03 	cmpl   $0x3,0x4a0(%rdi)
     15f:	89 85 78 ff ff ff    	mov    %eax,-0x88(%rbp)
     165:	48 19 c0             	sbb    %rax,%rax
     168:	48 25 20 cc ff ff    	and    $0xffffffffffffcc20,%rax
     16e:	48 05 04 38 00 00    	add    $0x3804,%rax
     174:	48 03 87 88 04 00 00 	add    0x488(%rdi),%rax
     17b:	8b 00                	mov    (%rax),%eax
     17d:	83 bf a0 04 00 00 03 	cmpl   $0x3,0x4a0(%rdi)
     184:	89 85 7c ff ff ff    	mov    %eax,-0x84(%rbp)
     18a:	48 19 c0             	sbb    %rax,%rax
     18d:	48 25 20 cc ff ff    	and    $0xffffffffffffcc20,%rax
     193:	48 05 08 38 00 00    	add    $0x3808,%rax
     199:	48 03 87 88 04 00 00 	add    0x488(%rdi),%rax
     1a0:	8b 00                	mov    (%rax),%eax
     1a2:	83 bf a0 04 00 00 03 	cmpl   $0x3,0x4a0(%rdi)
     1a9:	89 45 80             	mov    %eax,-0x80(%rbp)
     1ac:	48 19 c0             	sbb    %rax,%rax
     1af:	48 25 20 cc ff ff    	and    $0xffffffffffffcc20,%rax
     1b5:	48 05 10 38 00 00    	add    $0x3810,%rax
     1bb:	48 03 87 88 04 00 00 	add    0x488(%rdi),%rax
     1c2:	8b 00                	mov    (%rax),%eax
     1c4:	83 bf a0 04 00 00 03 	cmpl   $0x3,0x4a0(%rdi)
     1cb:	89 45 84             	mov    %eax,-0x7c(%rbp)
     1ce:	48 19 c0             	sbb    %rax,%rax
     1d1:	48 25 20 cc ff ff    	and    $0xffffffffffffcc20,%rax
     1d7:	48 05 18 38 00 00    	add    $0x3818,%rax
     1dd:	48 03 87 88 04 00 00 	add    0x488(%rdi),%rax
     1e4:	8b 00                	mov    (%rax),%eax
     1e6:	83 bf a0 04 00 00 03 	cmpl   $0x3,0x4a0(%rdi)
     1ed:	89 45 88             	mov    %eax,-0x78(%rbp)
     1f0:	48 19 c0             	sbb    %rax,%rax
     1f3:	48 25 20 cc ff ff    	and    $0xffffffffffffcc20,%rax
     1f9:	48 05 20 38 00 00    	add    $0x3820,%rax
     1ff:	48 03 87 88 04 00 00 	add    0x488(%rdi),%rax
     206:	8b 00                	mov    (%rax),%eax
     208:	89 45 8c             	mov    %eax,-0x74(%rbp)
     20b:	48 8b 87 88 04 00 00 	mov    0x488(%rdi),%rax
     212:	8b 80 28 38 00 00    	mov    0x3828(%rax),%eax
     218:	89 45 90             	mov    %eax,-0x70(%rbp)
     21b:	48 8b 87 88 04 00 00 	mov    0x488(%rdi),%rax
     222:	8b 80 2c 38 00 00    	mov    0x382c(%rax),%eax
     228:	89 45 94             	mov    %eax,-0x6c(%rbp)
     22b:	48 8b 87 88 04 00 00 	mov    0x488(%rdi),%rax
     232:	8b 80 40 38 00 00    	mov    0x3840(%rax),%eax
     238:	89 45 98             	mov    %eax,-0x68(%rbp)
     23b:	48 8b 87 88 04 00 00 	mov    0x488(%rdi),%rax
     242:	8b 80 00 39 00 00    	mov    0x3900(%rax),%eax
     248:	89 45 9c             	mov    %eax,-0x64(%rbp)
     24b:	48 8b 87 88 04 00 00 	mov    0x488(%rdi),%rax
     252:	8b 80 04 39 00 00    	mov    0x3904(%rax),%eax
     258:	89 45 a0             	mov    %eax,-0x60(%rbp)
     25b:	48 8b 87 88 04 00 00 	mov    0x488(%rdi),%rax
     262:	8b 80 08 39 00 00    	mov    0x3908(%rax),%eax
     268:	89 45 a4             	mov    %eax,-0x5c(%rbp)
     26b:	48 8b 87 88 04 00 00 	mov    0x488(%rdi),%rax
     272:	8b 80 10 39 00 00    	mov    0x3910(%rax),%eax
     278:	89 45 a8             	mov    %eax,-0x58(%rbp)
     27b:	48 8b 87 88 04 00 00 	mov    0x488(%rdi),%rax
     282:	8b 80 18 39 00 00    	mov    0x3918(%rax),%eax
     288:	89 45 ac             	mov    %eax,-0x54(%rbp)
     28b:	48 8b 87 88 04 00 00 	mov    0x488(%rdi),%rax
     292:	8b 80 28 39 00 00    	mov    0x3928(%rax),%eax
     298:	89 45 b0             	mov    %eax,-0x50(%rbp)
     29b:	48 8b 87 88 04 00 00 	mov    0x488(%rdi),%rax
     2a2:	8b 80 40 39 00 00    	mov    0x3940(%rax),%eax
     2a8:	89 45 b4             	mov    %eax,-0x4c(%rbp)
     2ab:	48 8b 87 88 04 00 00 	mov    0x488(%rdi),%rax
     2b2:	8b 40 18             	mov    0x18(%rax),%eax
     2b5:	89 45 b8             	mov    %eax,-0x48(%rbp)
     2b8:	48 8b 87 88 04 00 00 	mov    0x488(%rdi),%rax
     2bf:	8b 80 08 20 00 00    	mov    0x2008(%rax),%eax
     2c5:	83 bf a0 04 00 00 03 	cmpl   $0x3,0x4a0(%rdi)
     2cc:	89 45 bc             	mov    %eax,-0x44(%rbp)
     2cf:	48 19 c0             	sbb    %rax,%rax
     2d2:	48 25 10 d9 ff ff    	and    $0xffffffffffffd910,%rax
     2d8:	48 05 00 28 00 00    	add    $0x2800,%rax
     2de:	48 03 87 88 04 00 00 	add    0x488(%rdi),%rax
     2e5:	8b 00                	mov    (%rax),%eax
     2e7:	83 bf a0 04 00 00 03 	cmpl   $0x3,0x4a0(%rdi)
     2ee:	89 45 c0             	mov    %eax,-0x40(%rbp)
     2f1:	48 19 c0             	sbb    %rax,%rax
     2f4:	48 25 10 d9 ff ff    	and    $0xffffffffffffd910,%rax
     2fa:	48 05 04 28 00 00    	add    $0x2804,%rax
     300:	48 03 87 88 04 00 00 	add    0x488(%rdi),%rax
     307:	8b 00                	mov    (%rax),%eax
     309:	83 bf a0 04 00 00 03 	cmpl   $0x3,0x4a0(%rdi)
     310:	89 45 c4             	mov    %eax,-0x3c(%rbp)
     313:	48 19 c0             	sbb    %rax,%rax
     316:	25 00 4c 00 00       	and    $0x4c00,%eax
     31b:	48 05 10 34 00 00    	add    $0x3410,%rax
     321:	48 03 87 88 04 00 00 	add    0x488(%rdi),%rax
     328:	8b 00                	mov    (%rax),%eax
     32a:	83 bf a0 04 00 00 03 	cmpl   $0x3,0x4a0(%rdi)
     331:	89 45 c8             	mov    %eax,-0x38(%rbp)
     334:	48 19 c0             	sbb    %rax,%rax
     337:	25 00 4c 00 00       	and    $0x4c00,%eax
     33c:	48 05 18 34 00 00    	add    $0x3418,%rax
     342:	48 03 87 88 04 00 00 	add    0x488(%rdi),%rax
     349:	8b 00                	mov    (%rax),%eax
     34b:	89 45 cc             	mov    %eax,-0x34(%rbp)
     34e:	48 8b 87 88 04 00 00 	mov    0x488(%rdi),%rax
     355:	8b 80 20 34 00 00    	mov    0x3420(%rax),%eax
     35b:	89 45 d0             	mov    %eax,-0x30(%rbp)
     35e:	48 8b 87 88 04 00 00 	mov    0x488(%rdi),%rax
     365:	8b 80 28 34 00 00    	mov    0x3428(%rax),%eax
     36b:	89 45 d4             	mov    %eax,-0x2c(%rbp)
     36e:	48 8b 87 88 04 00 00 	mov    0x488(%rdi),%rax
     375:	8b 80 30 34 00 00    	mov    0x3430(%rax),%eax
     37b:	89 45 d8             	mov    %eax,-0x28(%rbp)
     37e:	48 8b 87 88 04 00 00 	mov    0x488(%rdi),%rax
     385:	8b 80 10 24 00 00    	mov    0x2410(%rax),%eax
     38b:	89 45 dc             	mov    %eax,-0x24(%rbp)
     38e:	48 8b 87 88 04 00 00 	mov    0x488(%rdi),%rax
     395:	8b 80 18 24 00 00    	mov    0x2418(%rax),%eax
     39b:	89 45 e0             	mov    %eax,-0x20(%rbp)
     39e:	48 8b 87 88 04 00 00 	mov    0x488(%rdi),%rax
     3a5:	8b 80 20 24 00 00    	mov    0x2420(%rax),%eax
     3ab:	89 45 e4             	mov    %eax,-0x1c(%rbp)
     3ae:	48 8b 87 88 04 00 00 	mov    0x488(%rdi),%rax
     3b5:	8b 80 28 24 00 00    	mov    0x2428(%rax),%eax
     3bb:	89 45 e8             	mov    %eax,-0x18(%rbp)
     3be:	48 8b 87 88 04 00 00 	mov    0x488(%rdi),%rax
     3c5:	8b 80 30 24 00 00    	mov    0x2430(%rax),%eax
     3cb:	48 c7 c7 00 00 00 00 	mov    $0x0,%rdi
     3d2:	89 45 ec             	mov    %eax,-0x14(%rbp)
     3d5:	31 db                	xor    %ebx,%ebx
     3d7:	e8 00 00 00 00       	callq  3dc <e1000_regdump+0x39c>
     3dc:	48 63 f3             	movslq %ebx,%rsi
     3df:	8b 94 9d 58 ff ff ff 	mov    -0xa8(%rbp,%rbx,4),%edx
     3e6:	48 83 fe 25          	cmp    $0x25,%rsi
     3ea:	77 3b                	ja     427 <e1000_regdump+0x3e7>
     3ec:	48 8b 34 dd 00 00 00 	mov    0x0(,%rbx,8),%rsi
     3f3:	00 
     3f4:	48 c7 c7 00 00 00 00 	mov    $0x0,%rdi
     3fb:	48 83 c3 01          	add    $0x1,%rbx
     3ff:	e8 00 00 00 00       	callq  404 <e1000_regdump+0x3c4>
     404:	48 83 fb 26          	cmp    $0x26,%rbx
     408:	75 d2                	jne    3dc <e1000_regdump+0x39c>
     40a:	48 8b 45 f0          	mov    -0x10(%rbp),%rax
     40e:	65 48 33 04 25 28 00 	xor    %gs:0x28,%rax
     415:	00 00 
     417:	75 28                	jne    441 <e1000_regdump+0x401>
     419:	48 81 c4 a8 00 00 00 	add    $0xa8,%rsp
     420:	5b                   	pop    %rbx
     421:	5d                   	pop    %rbp
     422:	e9 00 00 00 00       	jmpq   427 <e1000_regdump+0x3e7>
     427:	48 c7 c7 00 00 00 00 	mov    $0x0,%rdi
     42e:	89 95 54 ff ff ff    	mov    %edx,-0xac(%rbp)
     434:	e8 00 00 00 00       	callq  439 <e1000_regdump+0x3f9>
     439:	8b 95 54 ff ff ff    	mov    -0xac(%rbp),%edx
     43f:	eb ab                	jmp    3ec <e1000_regdump+0x3ac>
     441:	e8 00 00 00 00       	callq  446 <e1000_regdump+0x406>
     446:	66 2e 0f 1f 84 00 00 	nopw   %cs:0x0(%rax,%rax,1)
     44d:	00 00 00 

0000000000000450 <e1000_update_itr>:
     450:	e8 00 00 00 00       	callq  455 <e1000_update_itr+0x5>
     455:	55                   	push   %rbp
     456:	83 bf a0 04 00 00 04 	cmpl   $0x4,0x4a0(%rdi)
     45d:	0f b7 c6             	movzwl %si,%eax
     460:	48 89 e5             	mov    %rsp,%rbp
     463:	76 17                	jbe    47c <e1000_update_itr+0x2c>
     465:	89 d7                	mov    %edx,%edi
     467:	85 d2                	test   %edx,%edx
     469:	74 11                	je     47c <e1000_update_itr+0x2c>
     46b:	66 83 fe 01          	cmp    $0x1,%si
     46f:	74 57                	je     4c8 <e1000_update_itr+0x78>
     471:	66 83 fe 02          	cmp    $0x2,%si
     475:	74 38                	je     4af <e1000_update_itr+0x5f>
     477:	66 85 f6             	test   %si,%si
     47a:	74 06                	je     482 <e1000_update_itr+0x32>
     47c:	5d                   	pop    %rbp
     47d:	e9 00 00 00 00       	jmpq   482 <e1000_update_itr+0x32>
     482:	89 c8                	mov    %ecx,%eax
     484:	99                   	cltd   
     485:	f7 ff                	idiv   %edi
     487:	89 c6                	mov    %eax,%esi
     489:	b8 02 00 00 00       	mov    $0x2,%eax
     48e:	81 fe 40 1f 00 00    	cmp    $0x1f40,%esi
     494:	7f e6                	jg     47c <e1000_update_itr+0x2c>
     496:	83 ff 04             	cmp    $0x4,%edi
     499:	5d                   	pop    %rbp
     49a:	0f 9e c2             	setle  %dl
     49d:	31 c0                	xor    %eax,%eax
     49f:	81 f9 00 02 00 00    	cmp    $0x200,%ecx
     4a5:	0f 9f c0             	setg   %al
     4a8:	21 d0                	and    %edx,%eax
     4aa:	e9 00 00 00 00       	jmpq   4af <e1000_update_itr+0x5f>
     4af:	81 f9 a8 61 00 00    	cmp    $0x61a8,%ecx
     4b5:	7e 73                	jle    52a <e1000_update_itr+0xda>
     4b7:	31 c0                	xor    %eax,%eax
     4b9:	83 fa 24             	cmp    $0x24,%edx
     4bc:	5d                   	pop    %rbp
     4bd:	0f 9c c0             	setl   %al
     4c0:	83 c0 01             	add    $0x1,%eax
     4c3:	e9 00 00 00 00       	jmpq   4c8 <e1000_update_itr+0x78>
     4c8:	89 c8                	mov    %ecx,%eax
     4ca:	99                   	cltd   
     4cb:	f7 ff                	idiv   %edi
     4cd:	89 c6                	mov    %eax,%esi
     4cf:	81 f9 10 27 00 00    	cmp    $0x2710,%ecx
     4d5:	7e 25                	jle    4fc <e1000_update_itr+0xac>
     4d7:	83 ff 09             	cmp    $0x9,%edi
     4da:	7e 15                	jle    4f1 <e1000_update_itr+0xa1>
     4dc:	3d b0 04 00 00       	cmp    $0x4b0,%eax
     4e1:	7f 0e                	jg     4f1 <e1000_update_itr+0xa1>
     4e3:	31 c0                	xor    %eax,%eax
     4e5:	83 ff 23             	cmp    $0x23,%edi
     4e8:	5d                   	pop    %rbp
     4e9:	0f 9e c0             	setle  %al
     4ec:	e9 00 00 00 00       	jmpq   4f1 <e1000_update_itr+0xa1>
     4f1:	b8 02 00 00 00       	mov    $0x2,%eax
     4f6:	5d                   	pop    %rbp
     4f7:	e9 00 00 00 00       	jmpq   4fc <e1000_update_itr+0xac>
     4fc:	b8 02 00 00 00       	mov    $0x2,%eax
     501:	81 fe d0 07 00 00    	cmp    $0x7d0,%esi
     507:	0f 8f 6f ff ff ff    	jg     47c <e1000_update_itr+0x2c>
     50d:	83 ff 02             	cmp    $0x2,%edi
     510:	5d                   	pop    %rbp
     511:	0f 9e c0             	setle  %al
     514:	81 f9 ff 01 00 00    	cmp    $0x1ff,%ecx
     51a:	0f 9e c2             	setle  %dl
     51d:	21 d0                	and    %edx,%eax
     51f:	83 f0 01             	xor    $0x1,%eax
     522:	0f b6 c0             	movzbl %al,%eax
     525:	e9 00 00 00 00       	jmpq   52a <e1000_update_itr+0xda>
     52a:	31 c0                	xor    %eax,%eax
     52c:	81 f9 6f 17 00 00    	cmp    $0x176f,%ecx
     532:	5d                   	pop    %rbp
     533:	0f 9f c0             	setg   %al
     536:	83 c0 01             	add    $0x1,%eax
     539:	e9 00 00 00 00       	jmpq   53e <e1000_update_itr+0xee>
     53e:	66 90                	xchg   %ax,%ax

0000000000000540 <e1000_maybe_stop_tx>:
     540:	e8 00 00 00 00       	callq  545 <e1000_maybe_stop_tx+0x5>
     545:	55                   	push   %rbp
     546:	8b 46 1c             	mov    0x1c(%rsi),%eax
     549:	48 89 e5             	mov    %rsp,%rbp
     54c:	8b 4e 18             	mov    0x18(%rsi),%ecx
     54f:	45 31 c0             	xor    %r8d,%r8d
     552:	39 c8                	cmp    %ecx,%eax
     554:	77 04                	ja     55a <e1000_maybe_stop_tx+0x1a>
     556:	44 8b 46 14          	mov    0x14(%rsi),%r8d
     55a:	83 e8 01             	sub    $0x1,%eax
     55d:	29 c8                	sub    %ecx,%eax
     55f:	44 01 c0             	add    %r8d,%eax
     562:	45 31 c0             	xor    %r8d,%r8d
     565:	39 c2                	cmp    %eax,%edx
     567:	77 09                	ja     572 <e1000_maybe_stop_tx+0x32>
     569:	44 89 c0             	mov    %r8d,%eax
     56c:	5d                   	pop    %rbp
     56d:	e9 00 00 00 00       	jmpq   572 <e1000_maybe_stop_tx+0x32>
     572:	48 8b 8f c0 0b 00 00 	mov    0xbc0(%rdi),%rcx
     579:	48 8b 87 00 04 00 00 	mov    0x400(%rdi),%rax
     580:	f0 80 88 90 00 00 00 	lock orb $0x1,0x90(%rax)
     587:	01 
     588:	f0 83 44 24 fc 00    	lock addl $0x0,-0x4(%rsp)
     58e:	8b 41 1c             	mov    0x1c(%rcx),%eax
     591:	8b 71 18             	mov    0x18(%rcx),%esi
     594:	39 f0                	cmp    %esi,%eax
     596:	77 04                	ja     59c <e1000_maybe_stop_tx+0x5c>
     598:	44 8b 41 14          	mov    0x14(%rcx),%r8d
     59c:	83 e8 01             	sub    $0x1,%eax
     59f:	29 f0                	sub    %esi,%eax
     5a1:	44 01 c0             	add    %r8d,%eax
     5a4:	41 b8 f0 ff ff ff    	mov    $0xfffffff0,%r8d
     5aa:	39 c2                	cmp    %eax,%edx
     5ac:	77 bb                	ja     569 <e1000_maybe_stop_tx+0x29>
     5ae:	48 8b 87 00 04 00 00 	mov    0x400(%rdi),%rax
     5b5:	f0 80 a0 90 00 00 00 	lock andb $0xfe,0x90(%rax)
     5bc:	fe 
     5bd:	45 31 c0             	xor    %r8d,%r8d
     5c0:	83 87 c8 0b 00 00 01 	addl   $0x1,0xbc8(%rdi)
     5c7:	eb a0                	jmp    569 <e1000_maybe_stop_tx+0x29>
     5c9:	0f 1f 80 00 00 00 00 	nopl   0x0(%rax)

00000000000005d0 <e1000_intr>:
     5d0:	e8 00 00 00 00       	callq  5d5 <e1000_intr+0x5>
     5d5:	48 8b 86 08 0e 00 00 	mov    0xe08(%rsi),%rax
     5dc:	8b 80 c0 00 00 00    	mov    0xc0(%rax),%eax
     5e2:	85 c0                	test   %eax,%eax
     5e4:	0f 84 ba 00 00 00    	je     6a4 <e1000_intr+0xd4>
     5ea:	55                   	push   %rbp
     5eb:	48 89 e5             	mov    %rsp,%rbp
     5ee:	41 54                	push   %r12
     5f0:	53                   	push   %rbx
     5f1:	48 8b 96 f0 11 00 00 	mov    0x11f0(%rsi),%rdx
     5f8:	48 89 f3             	mov    %rsi,%rbx
     5fb:	83 e2 04             	and    $0x4,%edx
     5fe:	0f 85 8e 00 00 00    	jne    692 <e1000_intr+0xc2>
     604:	a8 0c                	test   $0xc,%al
     606:	0f 85 9d 00 00 00    	jne    6a9 <e1000_intr+0xd9>
     60c:	48 8b 93 08 0e 00 00 	mov    0xe08(%rbx),%rdx
     613:	b8 ff ff ff ff       	mov    $0xffffffff,%eax
     618:	89 82 d8 00 00 00    	mov    %eax,0xd8(%rdx)
     61e:	48 8b 83 08 0e 00 00 	mov    0xe08(%rbx),%rax
     625:	8b 40 08             	mov    0x8(%rax),%eax
     628:	4c 8d a3 30 0c 00 00 	lea    0xc30(%rbx),%r12
     62f:	4c 89 e7             	mov    %r12,%rdi
     632:	e8 00 00 00 00       	callq  637 <e1000_intr+0x67>
     637:	84 c0                	test   %al,%al
     639:	74 30                	je     66b <e1000_intr+0x9b>
     63b:	48 c7 83 a0 0b 00 00 	movq   $0x0,0xba0(%rbx)
     642:	00 00 00 00 
     646:	4c 89 e7             	mov    %r12,%rdi
     649:	48 c7 83 a8 0b 00 00 	movq   $0x0,0xba8(%rbx)
     650:	00 00 00 00 
     654:	e8 00 00 00 00       	callq  659 <e1000_intr+0x89>
     659:	41 b8 01 00 00 00    	mov    $0x1,%r8d
     65f:	5b                   	pop    %rbx
     660:	41 5c                	pop    %r12
     662:	44 89 c0             	mov    %r8d,%eax
     665:	5d                   	pop    %rbp
     666:	e9 00 00 00 00       	jmpq   66b <e1000_intr+0x9b>
     66b:	48 8b 83 f0 11 00 00 	mov    0x11f0(%rbx),%rax
     672:	a8 04                	test   $0x4,%al
     674:	75 1c                	jne    692 <e1000_intr+0xc2>
     676:	48 8b 93 08 0e 00 00 	mov    0xe08(%rbx),%rdx
     67d:	b8 9d 00 00 00       	mov    $0x9d,%eax
     682:	89 82 d0 00 00 00    	mov    %eax,0xd0(%rdx)
     688:	48 8b 83 08 0e 00 00 	mov    0xe08(%rbx),%rax
     68f:	8b 40 08             	mov    0x8(%rax),%eax
     692:	41 b8 01 00 00 00    	mov    $0x1,%r8d
     698:	5b                   	pop    %rbx
     699:	41 5c                	pop    %r12
     69b:	44 89 c0             	mov    %r8d,%eax
     69e:	5d                   	pop    %rbp
     69f:	e9 00 00 00 00       	jmpq   6a4 <e1000_intr+0xd4>
     6a4:	e9 00 00 00 00       	jmpq   6a9 <e1000_intr+0xd9>
     6a9:	48 8b 86 f0 11 00 00 	mov    0x11f0(%rsi),%rax
     6b0:	c6 86 14 0f 00 00 01 	movb   $0x1,0xf14(%rsi)
     6b7:	a8 04                	test   $0x4,%al
     6b9:	0f 85 4d ff ff ff    	jne    60c <e1000_intr+0x3c>
     6bf:	48 8d 96 28 12 00 00 	lea    0x1228(%rsi),%rdx
     6c6:	b9 01 00 00 00       	mov    $0x1,%ecx
     6cb:	bf 00 20 00 00       	mov    $0x2000,%edi
     6d0:	48 8b 35 00 00 00 00 	mov    0x0(%rip),%rsi        # 6d7 <e1000_intr+0x107>
     6d7:	e8 00 00 00 00       	callq  6dc <e1000_intr+0x10c>
     6dc:	e9 2b ff ff ff       	jmpq   60c <e1000_intr+0x3c>
     6e1:	66 66 2e 0f 1f 84 00 	data16 nopw %cs:0x0(%rax,%rax,1)
     6e8:	00 00 00 00 
     6ec:	0f 1f 40 00          	nopl   0x0(%rax)

00000000000006f0 <e1000_request_irq>:
     6f0:	e8 00 00 00 00       	callq  6f5 <e1000_request_irq+0x5>
     6f5:	55                   	push   %rbp
     6f6:	31 d2                	xor    %edx,%edx
     6f8:	b9 80 00 00 00       	mov    $0x80,%ecx
     6fd:	48 c7 c6 00 00 00 00 	mov    $0x0,%rsi
     704:	48 89 e5             	mov    %rsp,%rbp
     707:	53                   	push   %rbx
     708:	48 89 fb             	mov    %rdi,%rbx
     70b:	48 83 ec 08          	sub    $0x8,%rsp
     70f:	48 8b 87 80 04 00 00 	mov    0x480(%rdi),%rax
     716:	4c 8b 87 78 04 00 00 	mov    0x478(%rdi),%r8
     71d:	8b b8 bc 03 00 00    	mov    0x3bc(%rax),%edi
     723:	4d 89 c1             	mov    %r8,%r9
     726:	e8 00 00 00 00       	callq  72b <e1000_request_irq+0x3b>
     72b:	85 c0                	test   %eax,%eax
     72d:	74 0d                	je     73c <e1000_request_irq+0x4c>
     72f:	f6 83 68 08 00 00 02 	testb  $0x2,0x868(%rbx)
     736:	0f 85 00 00 00 00    	jne    73c <e1000_request_irq+0x4c>
     73c:	48 83 c4 08          	add    $0x8,%rsp
     740:	5b                   	pop    %rbx
     741:	5d                   	pop    %rbp
     742:	e9 00 00 00 00       	jmpq   747 <e1000_request_irq+0x57>
     747:	66 0f 1f 84 00 00 00 	nopw   0x0(%rax,%rax,1)
     74e:	00 00 

0000000000000750 <e1000_alloc_frag>:
     750:	e8 00 00 00 00       	callq  755 <e1000_alloc_frag+0x5>
     755:	55                   	push   %rbp
     756:	8b bf 08 02 00 00    	mov    0x208(%rdi),%edi
     75c:	be ff ff ff ff       	mov    $0xffffffff,%esi
     761:	83 c7 7f             	add    $0x7f,%edi
     764:	83 e7 c0             	and    $0xffffffc0,%edi
     767:	48 89 e5             	mov    %rsp,%rbp
     76a:	81 c7 40 01 00 00    	add    $0x140,%edi
     770:	e8 00 00 00 00       	callq  775 <e1000_alloc_frag+0x25>
     775:	5d                   	pop    %rbp
     776:	48 8d 50 40          	lea    0x40(%rax),%rdx
     77a:	48 85 c0             	test   %rax,%rax
     77d:	48 0f 45 c2          	cmovne %rdx,%rax
     781:	e9 00 00 00 00       	jmpq   786 <e1000_alloc_frag+0x36>
     786:	66 2e 0f 1f 84 00 00 	nopw   %cs:0x0(%rax,%rax,1)
     78d:	00 00 00 

0000000000000790 <e1000_alloc_jumbo_rx_buffers>:
     790:	e8 00 00 00 00       	callq  795 <e1000_alloc_jumbo_rx_buffers+0x5>
     795:	55                   	push   %rbp
     796:	48 89 e5             	mov    %rsp,%rbp
     799:	41 57                	push   %r15
     79b:	41 56                	push   %r14
     79d:	41 55                	push   %r13
     79f:	41 54                	push   %r12
     7a1:	53                   	push   %rbx
     7a2:	48 83 ec 08          	sub    $0x8,%rsp
     7a6:	48 8b 87 80 04 00 00 	mov    0x480(%rdi),%rax
     7ad:	8b 5e 18             	mov    0x18(%rsi),%ebx
     7b0:	48 05 d0 00 00 00    	add    $0xd0,%rax
     7b6:	49 89 dc             	mov    %rbx,%r12
     7b9:	48 c1 e3 04          	shl    $0x4,%rbx
     7bd:	48 03 5e 20          	add    0x20(%rsi),%rbx
     7c1:	48 89 45 d0          	mov    %rax,-0x30(%rbp)
     7c5:	85 d2                	test   %edx,%edx
     7c7:	0f 84 c8 00 00 00    	je     895 <e1000_alloc_jumbo_rx_buffers+0x105>
     7cd:	49 89 fd             	mov    %rdi,%r13
     7d0:	49 89 f7             	mov    %rsi,%r15
     7d3:	41 89 d6             	mov    %edx,%r14d
     7d6:	eb 2c                	jmp    804 <e1000_alloc_jumbo_rx_buffers+0x74>
     7d8:	44 89 e2             	mov    %r12d,%edx
     7db:	41 83 c4 01          	add    $0x1,%r12d
     7df:	48 c1 e2 04          	shl    $0x4,%rdx
     7e3:	49 03 17             	add    (%r15),%rdx
     7e6:	48 89 02             	mov    %rax,(%rdx)
     7e9:	45 39 67 14          	cmp    %r12d,0x14(%r15)
     7ed:	0f 84 cf 00 00 00    	je     8c2 <e1000_alloc_jumbo_rx_buffers+0x132>
     7f3:	44 89 e3             	mov    %r12d,%ebx
     7f6:	48 c1 e3 04          	shl    $0x4,%rbx
     7fa:	49 03 5f 20          	add    0x20(%r15),%rbx
     7fe:	41 83 ee 01          	sub    $0x1,%r14d
     802:	74 6f                	je     873 <e1000_alloc_jumbo_rx_buffers+0xe3>
     804:	48 83 3b 00          	cmpq   $0x0,(%rbx)
     808:	0f 84 9a 00 00 00    	je     8a8 <e1000_alloc_jumbo_rx_buffers+0x118>
     80e:	48 8b 43 08          	mov    0x8(%rbx),%rax
     812:	48 85 c0             	test   %rax,%rax
     815:	75 c1                	jne    7d8 <e1000_alloc_jumbo_rx_buffers+0x48>
     817:	41 8b 8d 08 02 00 00 	mov    0x208(%r13),%ecx
     81e:	48 8b 33             	mov    (%rbx),%rsi
     821:	45 31 c9             	xor    %r9d,%r9d
     824:	31 d2                	xor    %edx,%edx
     826:	48 8b 7d d0          	mov    -0x30(%rbp),%rdi
     82a:	41 b8 02 00 00 00    	mov    $0x2,%r8d
     830:	e8 00 00 00 00       	callq  835 <e1000_alloc_jumbo_rx_buffers+0xa5>
     835:	48 89 43 08          	mov    %rax,0x8(%rbx)
     839:	48 83 f8 ff          	cmp    $0xffffffffffffffff,%rax
     83d:	75 99                	jne    7d8 <e1000_alloc_jumbo_rx_buffers+0x48>
     83f:	48 8b 3b             	mov    (%rbx),%rdi
     842:	48 8b 47 08          	mov    0x8(%rdi),%rax
     846:	48 8d 50 ff          	lea    -0x1(%rax),%rdx
     84a:	a8 01                	test   $0x1,%al
     84c:	48 0f 45 fa          	cmovne %rdx,%rdi
     850:	66 90                	xchg   %ax,%ax
     852:	f0 ff 4f 34          	lock decl 0x34(%rdi)
     856:	0f 84 a0 00 00 00    	je     8fc <e1000_alloc_jumbo_rx_buffers+0x16c>
     85c:	48 c7 03 00 00 00 00 	movq   $0x0,(%rbx)
     863:	48 c7 43 08 00 00 00 	movq   $0x0,0x8(%rbx)
     86a:	00 
     86b:	41 83 85 58 04 00 00 	addl   $0x1,0x458(%r13)
     872:	01 
     873:	45 39 67 18          	cmp    %r12d,0x18(%r15)
     877:	74 1c                	je     895 <e1000_alloc_jumbo_rx_buffers+0x105>
     879:	45 89 67 18          	mov    %r12d,0x18(%r15)
     87d:	41 8d 54 24 ff       	lea    -0x1(%r12),%edx
     882:	45 85 e4             	test   %r12d,%r12d
     885:	74 7f                	je     906 <e1000_alloc_jumbo_rx_buffers+0x176>
     887:	41 0f b7 47 36       	movzwl 0x36(%r15),%eax
     88c:	49 03 85 88 04 00 00 	add    0x488(%r13),%rax
     893:	89 10                	mov    %edx,(%rax)
     895:	48 83 c4 08          	add    $0x8,%rsp
     899:	5b                   	pop    %rbx
     89a:	41 5c                	pop    %r12
     89c:	41 5d                	pop    %r13
     89e:	41 5e                	pop    %r14
     8a0:	41 5f                	pop    %r15
     8a2:	5d                   	pop    %rbp
     8a3:	e9 00 00 00 00       	jmpq   8a8 <e1000_alloc_jumbo_rx_buffers+0x118>
     8a8:	31 f6                	xor    %esi,%esi
     8aa:	bf 20 0a 00 00       	mov    $0xa20,%edi
     8af:	e8 00 00 00 00       	callq  8b4 <e1000_alloc_jumbo_rx_buffers+0x124>
     8b4:	48 89 03             	mov    %rax,(%rbx)
     8b7:	48 85 c0             	test   %rax,%rax
     8ba:	0f 85 4e ff ff ff    	jne    80e <e1000_alloc_jumbo_rx_buffers+0x7e>
     8c0:	eb a9                	jmp    86b <e1000_alloc_jumbo_rx_buffers+0xdb>
     8c2:	31 db                	xor    %ebx,%ebx
     8c4:	45 31 e4             	xor    %r12d,%r12d
     8c7:	e9 2e ff ff ff       	jmpq   7fa <e1000_alloc_jumbo_rx_buffers+0x6a>
     8cc:	48 8b 07             	mov    (%rdi),%rax
     8cf:	48 c1 e8 33          	shr    $0x33,%rax
     8d3:	83 e0 07             	and    $0x7,%eax
     8d6:	83 f8 04             	cmp    $0x4,%eax
     8d9:	0f 85 73 ff ff ff    	jne    852 <e1000_alloc_jumbo_rx_buffers+0xc2>
     8df:	48 8b 47 08          	mov    0x8(%rdi),%rax
     8e3:	8b 40 60             	mov    0x60(%rax),%eax
     8e6:	83 e8 01             	sub    $0x1,%eax
     8e9:	83 f8 01             	cmp    $0x1,%eax
     8ec:	0f 87 60 ff ff ff    	ja     852 <e1000_alloc_jumbo_rx_buffers+0xc2>
     8f2:	e8 00 00 00 00       	callq  8f7 <e1000_alloc_jumbo_rx_buffers+0x167>
     8f7:	e9 60 ff ff ff       	jmpq   85c <e1000_alloc_jumbo_rx_buffers+0xcc>
     8fc:	e8 00 00 00 00       	callq  901 <e1000_alloc_jumbo_rx_buffers+0x171>
     901:	e9 56 ff ff ff       	jmpq   85c <e1000_alloc_jumbo_rx_buffers+0xcc>
     906:	41 8b 47 14          	mov    0x14(%r15),%eax
     90a:	8d 50 ff             	lea    -0x1(%rax),%edx
     90d:	e9 75 ff ff ff       	jmpq   887 <e1000_alloc_jumbo_rx_buffers+0xf7>
     912:	66 66 2e 0f 1f 84 00 	data16 nopw %cs:0x0(%rax,%rax,1)
     919:	00 00 00 00 
     91d:	0f 1f 00             	nopl   (%rax)

0000000000000920 <e1000_down_and_stop>:
     920:	e8 00 00 00 00       	callq  925 <e1000_down_and_stop+0x5>
     925:	55                   	push   %rbp
     926:	48 89 e5             	mov    %rsp,%rbp
     929:	53                   	push   %rbx
     92a:	48 89 fb             	mov    %rdi,%rbx
     92d:	f0 80 8f 70 08 00 00 	lock orb $0x4,0x870(%rdi)
     934:	04 
     935:	48 81 c7 a8 08 00 00 	add    $0x8a8,%rdi
     93c:	e8 00 00 00 00       	callq  941 <e1000_down_and_stop+0x21>
     941:	48 8d bb 58 09 00 00 	lea    0x958(%rbx),%rdi
     948:	e8 00 00 00 00       	callq  94d <e1000_down_and_stop+0x2d>
     94d:	48 8d bb 00 09 00 00 	lea    0x900(%rbx),%rdi
     954:	e8 00 00 00 00       	callq  959 <e1000_down_and_stop+0x39>
     959:	48 8b 83 70 08 00 00 	mov    0x870(%rbx),%rax
     960:	a8 02                	test   $0x2,%al
     962:	74 07                	je     96b <e1000_down_and_stop+0x4b>
     964:	5b                   	pop    %rbx
     965:	5d                   	pop    %rbp
     966:	e9 00 00 00 00       	jmpq   96b <e1000_down_and_stop+0x4b>
     96b:	48 8d bb 88 08 00 00 	lea    0x888(%rbx),%rdi
     972:	e8 00 00 00 00       	callq  977 <e1000_down_and_stop+0x57>
     977:	5b                   	pop    %rbx
     978:	5d                   	pop    %rbp
     979:	e9 00 00 00 00       	jmpq   97e <e1000_down_and_stop+0x5e>
     97e:	66 90                	xchg   %ax,%ax

0000000000000980 <e1000_update_phy_info_task>:
     980:	e8 00 00 00 00       	callq  985 <e1000_update_phy_info_task+0x5>
     985:	55                   	push   %rbp
     986:	48 8d b7 78 fe ff ff 	lea    -0x188(%rdi),%rsi
     98d:	48 81 ef d0 04 00 00 	sub    $0x4d0,%rdi
     994:	48 89 e5             	mov    %rsp,%rbp
     997:	e8 00 00 00 00       	callq  99c <e1000_update_phy_info_task+0x1c>
     99c:	5d                   	pop    %rbp
     99d:	e9 00 00 00 00       	jmpq   9a2 <e1000_update_phy_info_task+0x22>
     9a2:	66 66 2e 0f 1f 84 00 	data16 nopw %cs:0x0(%rax,%rax,1)
     9a9:	00 00 00 00 
     9ad:	0f 1f 00             	nopl   (%rax)

00000000000009b0 <e1000_82547_tx_fifo_stall_task>:
     9b0:	e8 00 00 00 00       	callq  9b5 <e1000_82547_tx_fifo_stall_task+0x5>
     9b5:	8b 87 8c f9 ff ff    	mov    -0x674(%rdi),%eax
     9bb:	85 c0                	test   %eax,%eax
     9bd:	74 62                	je     a21 <e1000_82547_tx_fifo_stall_task+0x71>
     9bf:	55                   	push   %rbp
     9c0:	83 bf a0 fb ff ff 03 	cmpl   $0x3,-0x460(%rdi)
     9c7:	48 19 c0             	sbb    %rax,%rax
     9ca:	48 8b b7 78 fb ff ff 	mov    -0x488(%rdi),%rsi
     9d1:	48 25 20 cc ff ff    	and    $0xffffffffffffcc20,%rax
     9d7:	48 89 e5             	mov    %rsp,%rbp
     9da:	48 05 18 38 00 00    	add    $0x3818,%rax
     9e0:	48 03 87 88 fb ff ff 	add    -0x478(%rdi),%rax
     9e7:	8b 08                	mov    (%rax),%ecx
     9e9:	83 bf a0 fb ff ff 03 	cmpl   $0x3,-0x460(%rdi)
     9f0:	48 19 c0             	sbb    %rax,%rax
     9f3:	48 25 20 cc ff ff    	and    $0xffffffffffffcc20,%rax
     9f9:	48 05 10 38 00 00    	add    $0x3810,%rax
     9ff:	48 03 87 88 fb ff ff 	add    -0x478(%rdi),%rax
     a06:	8b 00                	mov    (%rax),%eax
     a08:	39 c1                	cmp    %eax,%ecx
     a0a:	74 1a                	je     a26 <e1000_82547_tx_fifo_stall_task+0x76>
     a0c:	48 8b 87 70 ff ff ff 	mov    -0x90(%rdi),%rax
     a13:	a8 04                	test   $0x4,%al
     a15:	0f 84 33 01 00 00    	je     b4e <e1000_82547_tx_fifo_stall_task+0x19e>
     a1b:	5d                   	pop    %rbp
     a1c:	e9 00 00 00 00       	jmpq   a21 <e1000_82547_tx_fifo_stall_task+0x71>
     a21:	e9 00 00 00 00       	jmpq   a26 <e1000_82547_tx_fifo_stall_task+0x76>
     a26:	83 bf a0 fb ff ff 03 	cmpl   $0x3,-0x460(%rdi)
     a2d:	48 19 c0             	sbb    %rax,%rax
     a30:	25 00 4c 00 00       	and    $0x4c00,%eax
     a35:	48 05 18 34 00 00    	add    $0x3418,%rax
     a3b:	48 03 87 88 fb ff ff 	add    -0x478(%rdi),%rax
     a42:	8b 08                	mov    (%rax),%ecx
     a44:	83 bf a0 fb ff ff 03 	cmpl   $0x3,-0x460(%rdi)
     a4b:	48 19 c0             	sbb    %rax,%rax
     a4e:	25 00 4c 00 00       	and    $0x4c00,%eax
     a53:	48 05 10 34 00 00    	add    $0x3410,%rax
     a59:	48 03 87 88 fb ff ff 	add    -0x478(%rdi),%rax
     a60:	8b 00                	mov    (%rax),%eax
     a62:	39 c1                	cmp    %eax,%ecx
     a64:	75 a6                	jne    a0c <e1000_82547_tx_fifo_stall_task+0x5c>
     a66:	48 8b 87 88 fb ff ff 	mov    -0x478(%rdi),%rax
     a6d:	8b 80 28 34 00 00    	mov    0x3428(%rax),%eax
     a73:	48 8b 8f 88 fb ff ff 	mov    -0x478(%rdi),%rcx
     a7a:	8b 89 20 34 00 00    	mov    0x3420(%rcx),%ecx
     a80:	39 c1                	cmp    %eax,%ecx
     a82:	75 88                	jne    a0c <e1000_82547_tx_fifo_stall_task+0x5c>
     a84:	48 8b 87 88 fb ff ff 	mov    -0x478(%rdi),%rax
     a8b:	8b 88 00 04 00 00    	mov    0x400(%rax),%ecx
     a91:	89 c8                	mov    %ecx,%eax
     a93:	48 8b 97 88 fb ff ff 	mov    -0x478(%rdi),%rdx
     a9a:	83 e0 fd             	and    $0xfffffffd,%eax
     a9d:	89 82 00 04 00 00    	mov    %eax,0x400(%rdx)
     aa3:	83 bf a0 fb ff ff 03 	cmpl   $0x3,-0x460(%rdi)
     aaa:	8b 97 80 f9 ff ff    	mov    -0x680(%rdi),%edx
     ab0:	48 19 c0             	sbb    %rax,%rax
     ab3:	25 00 4c 00 00       	and    $0x4c00,%eax
     ab8:	48 05 18 34 00 00    	add    $0x3418,%rax
     abe:	48 03 87 88 fb ff ff 	add    -0x478(%rdi),%rax
     ac5:	89 10                	mov    %edx,(%rax)
     ac7:	83 bf a0 fb ff ff 03 	cmpl   $0x3,-0x460(%rdi)
     ace:	8b 97 80 f9 ff ff    	mov    -0x680(%rdi),%edx
     ad4:	48 19 c0             	sbb    %rax,%rax
     ad7:	25 00 4c 00 00       	and    $0x4c00,%eax
     adc:	48 05 10 34 00 00    	add    $0x3410,%rax
     ae2:	48 03 87 88 fb ff ff 	add    -0x478(%rdi),%rax
     ae9:	89 10                	mov    %edx,(%rax)
     aeb:	48 8b 97 88 fb ff ff 	mov    -0x478(%rdi),%rdx
     af2:	8b 87 80 f9 ff ff    	mov    -0x680(%rdi),%eax
     af8:	89 82 28 34 00 00    	mov    %eax,0x3428(%rdx)
     afe:	48 8b 97 88 fb ff ff 	mov    -0x478(%rdi),%rdx
     b05:	8b 87 80 f9 ff ff    	mov    -0x680(%rdi),%eax
     b0b:	89 82 20 34 00 00    	mov    %eax,0x3420(%rdx)
     b11:	48 8b 87 88 fb ff ff 	mov    -0x478(%rdi),%rax
     b18:	89 88 00 04 00 00    	mov    %ecx,0x400(%rax)
     b1e:	48 8b 87 88 fb ff ff 	mov    -0x478(%rdi),%rax
     b25:	8b 40 08             	mov    0x8(%rax),%eax
     b28:	c7 87 7c f9 ff ff 00 	movl   $0x0,-0x684(%rdi)
     b2f:	00 00 00 
     b32:	c7 87 8c f9 ff ff 00 	movl   $0x0,-0x674(%rdi)
     b39:	00 00 00 
     b3c:	48 8b be 00 04 00 00 	mov    0x400(%rsi),%rdi
     b43:	e8 00 00 00 00       	callq  b48 <e1000_82547_tx_fifo_stall_task+0x198>
     b48:	5d                   	pop    %rbp
     b49:	e9 00 00 00 00       	jmpq   b4e <e1000_82547_tx_fifo_stall_task+0x19e>
     b4e:	48 8b 35 00 00 00 00 	mov    0x0(%rip),%rsi        # b55 <e1000_82547_tx_fifo_stall_task+0x1a5>
     b55:	48 89 fa             	mov    %rdi,%rdx
     b58:	b9 01 00 00 00       	mov    $0x1,%ecx
     b5d:	bf 00 20 00 00       	mov    $0x2000,%edi
     b62:	e8 00 00 00 00       	callq  b67 <e1000_82547_tx_fifo_stall_task+0x1b7>
     b67:	5d                   	pop    %rbp
     b68:	e9 00 00 00 00       	jmpq   b6d <e1000_82547_tx_fifo_stall_task+0x1bd>
     b6d:	0f 1f 00             	nopl   (%rax)

0000000000000b70 <e1000_tx_timeout>:
     b70:	e8 00 00 00 00       	callq  b75 <e1000_tx_timeout+0x5>
     b75:	55                   	push   %rbp
     b76:	48 8b 35 00 00 00 00 	mov    0x0(%rip),%rsi        # b7d <e1000_tx_timeout+0xd>
     b7d:	48 8d 97 08 12 00 00 	lea    0x1208(%rdi),%rdx
     b84:	83 87 f8 0b 00 00 01 	addl   $0x1,0xbf8(%rdi)
     b8b:	bf 00 20 00 00       	mov    $0x2000,%edi
     b90:	48 89 e5             	mov    %rsp,%rbp
     b93:	e8 00 00 00 00       	callq  b98 <e1000_tx_timeout+0x28>
     b98:	5d                   	pop    %rbp
     b99:	e9 00 00 00 00       	jmpq   b9e <e1000_tx_timeout+0x2e>
     b9e:	66 90                	xchg   %ax,%ax

0000000000000ba0 <e1000_netpoll>:
     ba0:	e8 00 00 00 00       	callq  ba5 <e1000_netpoll+0x5>
     ba5:	55                   	push   %rbp
     ba6:	48 89 e5             	mov    %rsp,%rbp
     ba9:	53                   	push   %rbx
     baa:	48 8b 87 00 0e 00 00 	mov    0xe00(%rdi),%rax
     bb1:	48 89 fb             	mov    %rdi,%rbx
     bb4:	8b b8 bc 03 00 00    	mov    0x3bc(%rax),%edi
     bba:	e8 00 00 00 00       	callq  bbf <e1000_netpoll+0x1f>
     bbf:	84 c0                	test   %al,%al
     bc1:	75 19                	jne    bdc <e1000_netpoll+0x3c>
     bc3:	48 8b 83 00 0e 00 00 	mov    0xe00(%rbx),%rax
     bca:	8b b8 bc 03 00 00    	mov    0x3bc(%rax),%edi
     bd0:	e8 00 00 00 00       	callq  bd5 <e1000_netpoll+0x35>
     bd5:	5b                   	pop    %rbx
     bd6:	5d                   	pop    %rbp
     bd7:	e9 00 00 00 00       	jmpq   bdc <e1000_netpoll+0x3c>
     bdc:	48 8b 83 00 0e 00 00 	mov    0xe00(%rbx),%rax
     be3:	48 89 de             	mov    %rbx,%rsi
     be6:	8b b8 bc 03 00 00    	mov    0x3bc(%rax),%edi
     bec:	e8 df f9 ff ff       	callq  5d0 <e1000_intr>
     bf1:	eb d0                	jmp    bc3 <e1000_netpoll+0x23>
     bf3:	66 66 2e 0f 1f 84 00 	data16 nopw %cs:0x0(%rax,%rax,1)
     bfa:	00 00 00 00 
     bfe:	66 90                	xchg   %ax,%ax

0000000000000c00 <e1000_power_down_phy>:
     c00:	e8 00 00 00 00       	callq  c05 <e1000_power_down_phy+0x5>
     c05:	55                   	push   %rbp
     c06:	48 89 e5             	mov    %rsp,%rbp
     c09:	41 54                	push   %r12
     c0b:	48 83 ec 10          	sub    $0x10,%rsp
     c0f:	8b b7 0c 02 00 00    	mov    0x20c(%rdi),%esi
     c15:	65 48 8b 04 25 28 00 	mov    %gs:0x28,%rax
     c1c:	00 00 
     c1e:	48 89 45 f0          	mov    %rax,-0x10(%rbp)
     c22:	31 c0                	xor    %eax,%eax
     c24:	85 f6                	test   %esi,%esi
     c26:	75 0b                	jne    c33 <e1000_power_down_phy+0x33>
     c28:	8b 87 a0 04 00 00    	mov    0x4a0(%rdi),%eax
     c2e:	83 f8 04             	cmp    $0x4,%eax
     c31:	77 1b                	ja     c4e <e1000_power_down_phy+0x4e>
     c33:	48 8b 45 f0          	mov    -0x10(%rbp),%rax
     c37:	65 48 33 04 25 28 00 	xor    %gs:0x28,%rax
     c3e:	00 00 
     c40:	75 6e                	jne    cb0 <e1000_power_down_phy+0xb0>
     c42:	48 83 c4 10          	add    $0x10,%rsp
     c46:	41 5c                	pop    %r12
     c48:	5d                   	pop    %rbp
     c49:	e9 00 00 00 00       	jmpq   c4e <e1000_power_down_phy+0x4e>
     c4e:	8b 8f ac 04 00 00    	mov    0x4ac(%rdi),%ecx
     c54:	85 c9                	test   %ecx,%ecx
     c56:	75 db                	jne    c33 <e1000_power_down_phy+0x33>
     c58:	31 d2                	xor    %edx,%edx
     c5a:	83 e8 05             	sub    $0x5,%eax
     c5d:	66 89 55 ee          	mov    %dx,-0x12(%rbp)
     c61:	83 f8 09             	cmp    $0x9,%eax
     c64:	77 cd                	ja     c33 <e1000_power_down_phy+0x33>
     c66:	48 8b 87 88 04 00 00 	mov    0x488(%rdi),%rax
     c6d:	8b 80 20 58 00 00    	mov    0x5820(%rax),%eax
     c73:	a8 01                	test   $0x1,%al
     c75:	75 bc                	jne    c33 <e1000_power_down_phy+0x33>
     c77:	4c 8d a7 88 04 00 00 	lea    0x488(%rdi),%r12
     c7e:	48 8d 55 ee          	lea    -0x12(%rbp),%rdx
     c82:	31 f6                	xor    %esi,%esi
     c84:	4c 89 e7             	mov    %r12,%rdi
     c87:	e8 00 00 00 00       	callq  c8c <e1000_power_down_phy+0x8c>
     c8c:	0f b7 55 ee          	movzwl -0x12(%rbp),%edx
     c90:	4c 89 e7             	mov    %r12,%rdi
     c93:	31 f6                	xor    %esi,%esi
     c95:	80 ce 08             	or     $0x8,%dh
     c98:	66 89 55 ee          	mov    %dx,-0x12(%rbp)
     c9c:	0f b7 d2             	movzwl %dx,%edx
     c9f:	e8 00 00 00 00       	callq  ca4 <e1000_power_down_phy+0xa4>
     ca4:	bf 01 00 00 00       	mov    $0x1,%edi
     ca9:	e8 00 00 00 00       	callq  cae <e1000_power_down_phy+0xae>
     cae:	eb 83                	jmp    c33 <e1000_power_down_phy+0x33>
     cb0:	e8 00 00 00 00       	callq  cb5 <e1000_power_down_phy+0xb5>
     cb5:	66 66 2e 0f 1f 84 00 	data16 nopw %cs:0x0(%rax,%rax,1)
     cbc:	00 00 00 00 

0000000000000cc0 <e1000_setup_rctl>:
     cc0:	e8 00 00 00 00       	callq  cc5 <e1000_setup_rctl+0x5>
     cc5:	55                   	push   %rbp
     cc6:	48 89 e5             	mov    %rsp,%rbp
     cc9:	41 55                	push   %r13
     ccb:	41 54                	push   %r12
     ccd:	49 89 fc             	mov    %rdi,%r12
     cd0:	53                   	push   %rbx
     cd1:	48 8b 87 88 04 00 00 	mov    0x488(%rdi),%rax
     cd8:	8b 80 00 01 00 00    	mov    0x100(%rax),%eax
     cde:	8b 9f 28 05 00 00    	mov    0x528(%rdi),%ebx
     ce4:	44 0f b6 af 97 05 00 	movzbl 0x597(%rdi),%r13d
     ceb:	00 
     cec:	80 e4 cf             	and    $0xcf,%ah
     cef:	c1 e3 0c             	shl    $0xc,%ebx
     cf2:	09 c3                	or     %eax,%ebx
     cf4:	41 80 fd 01          	cmp    $0x1,%r13b
     cf8:	0f 87 00 00 00 00    	ja     cfe <e1000_setup_rctl+0x3e>
     cfe:	89 d8                	mov    %ebx,%eax
     d00:	83 e3 fb             	and    $0xfffffffb,%ebx
     d03:	49 8b bc 24 78 04 00 	mov    0x478(%r12),%rdi
     d0a:	00 
     d0b:	0d 04 80 00 00       	or     $0x8004,%eax
     d10:	80 cf 80             	or     $0x80,%bh
     d13:	41 83 e5 01          	and    $0x1,%r13d
     d17:	0f 45 d8             	cmovne %eax,%ebx
     d1a:	89 d9                	mov    %ebx,%ecx
     d1c:	83 c9 20             	or     $0x20,%ecx
     d1f:	81 bf d8 00 00 00 dc 	cmpl   $0x5dc,0xd8(%rdi)
     d26:	05 00 00 
     d29:	77 05                	ja     d30 <e1000_setup_rctl+0x70>
     d2b:	89 d9                	mov    %ebx,%ecx
     d2d:	83 e1 df             	and    $0xffffffdf,%ecx
     d30:	89 ca                	mov    %ecx,%edx
     d32:	41 8b b4 24 08 02 00 	mov    0x208(%r12),%esi
     d39:	00 
     d3a:	81 e2 ff ff fc ff    	and    $0xfffcffff,%edx
     d40:	89 d0                	mov    %edx,%eax
     d42:	0d 00 00 02 02       	or     $0x2020000,%eax
     d47:	81 fe 00 20 00 00    	cmp    $0x2000,%esi
     d4d:	74 26                	je     d75 <e1000_setup_rctl+0xb5>
     d4f:	89 d0                	mov    %edx,%eax
     d51:	0d 00 00 01 02       	or     $0x2010000,%eax
     d56:	81 fe 00 40 00 00    	cmp    $0x4000,%esi
     d5c:	74 17                	je     d75 <e1000_setup_rctl+0xb5>
     d5e:	81 e1 ff ff fc fd    	and    $0xfdfcffff,%ecx
     d64:	81 ca 00 00 03 02    	or     $0x2030000,%edx
     d6a:	81 fe 00 10 00 00    	cmp    $0x1000,%esi
     d70:	89 c8                	mov    %ecx,%eax
     d72:	0f 44 c2             	cmove  %edx,%eax
     d75:	89 c2                	mov    %eax,%edx
     d77:	81 e2 ff ff b3 ff    	and    $0xffb3ffff,%edx
     d7d:	81 ca 04 80 80 00    	or     $0x808004,%edx
     d83:	f6 87 e5 00 00 00 10 	testb  $0x10,0xe5(%rdi)
     d8a:	0f 45 c2             	cmovne %edx,%eax
     d8d:	49 8b 94 24 88 04 00 	mov    0x488(%r12),%rdx
     d94:	00 
     d95:	89 82 00 01 00 00    	mov    %eax,0x100(%rdx)
     d9b:	5b                   	pop    %rbx
     d9c:	41 5c                	pop    %r12
     d9e:	41 5d                	pop    %r13
     da0:	5d                   	pop    %rbp
     da1:	e9 00 00 00 00       	jmpq   da6 <e1000_setup_rctl+0xe6>
     da6:	66 2e 0f 1f 84 00 00 	nopw   %cs:0x0(%rax,%rax,1)
     dad:	00 00 00 

0000000000000db0 <e1000_configure_rx>:
     db0:	e8 00 00 00 00       	callq  db5 <e1000_configure_rx+0x5>
     db5:	55                   	push   %rbp
     db6:	48 89 e5             	mov    %rsp,%rbp
     db9:	41 56                	push   %r14
     dbb:	41 55                	push   %r13
     dbd:	41 54                	push   %r12
     dbf:	53                   	push   %rbx
     dc0:	48 8b 87 a8 02 00 00 	mov    0x2a8(%rdi),%rax
     dc7:	48 89 fb             	mov    %rdi,%rbx
     dca:	8b 48 14             	mov    0x14(%rax),%ecx
     dcd:	48 8b 87 78 04 00 00 	mov    0x478(%rdi),%rax
     dd4:	c1 e1 04             	shl    $0x4,%ecx
     dd7:	81 b8 d8 00 00 00 dc 	cmpl   $0x5dc,0xd8(%rax)
     dde:	05 00 00 
     de1:	0f 86 dc 01 00 00    	jbe    fc3 <e1000_configure_rx+0x213>
     de7:	48 c7 87 98 02 00 00 	movq   $0x0,0x298(%rdi)
     dee:	00 00 00 00 
     df2:	48 c7 87 a0 02 00 00 	movq   $0x0,0x2a0(%rdi)
     df9:	00 00 00 00 
     dfd:	48 8b 83 88 04 00 00 	mov    0x488(%rbx),%rax
     e04:	44 8b a0 00 01 00 00 	mov    0x100(%rax),%r12d
     e0b:	44 89 e0             	mov    %r12d,%eax
     e0e:	48 8b 93 88 04 00 00 	mov    0x488(%rbx),%rdx
     e15:	83 e0 fd             	and    $0xfffffffd,%eax
     e18:	89 82 00 01 00 00    	mov    %eax,0x100(%rdx)
     e1e:	83 bb a0 04 00 00 03 	cmpl   $0x3,0x4a0(%rbx)
     e25:	8b 93 5c 04 00 00    	mov    0x45c(%rbx),%edx
     e2b:	48 19 c0             	sbb    %rax,%rax
     e2e:	48 25 e8 d8 ff ff    	and    $0xffffffffffffd8e8,%rax
     e34:	48 05 20 28 00 00    	add    $0x2820,%rax
     e3a:	48 03 83 88 04 00 00 	add    0x488(%rbx),%rax
     e41:	89 10                	mov    %edx,(%rax)
     e43:	8b 83 a0 04 00 00    	mov    0x4a0(%rbx),%eax
     e49:	83 f8 04             	cmp    $0x4,%eax
     e4c:	76 27                	jbe    e75 <e1000_configure_rx+0xc5>
     e4e:	48 8b 93 88 04 00 00 	mov    0x488(%rbx),%rdx
     e55:	8b 83 60 04 00 00    	mov    0x460(%rbx),%eax
     e5b:	89 82 2c 28 00 00    	mov    %eax,0x282c(%rdx)
     e61:	8b 83 34 02 00 00    	mov    0x234(%rbx),%eax
     e67:	85 c0                	test   %eax,%eax
     e69:	0f 85 6f 01 00 00    	jne    fde <e1000_configure_rx+0x22e>
     e6f:	8b 83 a0 04 00 00    	mov    0x4a0(%rbx),%eax
     e75:	83 f8 03             	cmp    $0x3,%eax
     e78:	48 8b 93 a8 02 00 00 	mov    0x2a8(%rbx),%rdx
     e7f:	48 19 c0             	sbb    %rax,%rax
     e82:	48 25 10 d9 ff ff    	and    $0xffffffffffffd910,%rax
     e88:	48 8b 52 08          	mov    0x8(%rdx),%rdx
     e8c:	48 05 08 28 00 00    	add    $0x2808,%rax
     e92:	48 03 83 88 04 00 00 	add    0x488(%rbx),%rax
     e99:	89 08                	mov    %ecx,(%rax)
     e9b:	83 bb a0 04 00 00 03 	cmpl   $0x3,0x4a0(%rbx)
     ea2:	48 89 d1             	mov    %rdx,%rcx
     ea5:	48 19 c0             	sbb    %rax,%rax
     ea8:	48 c1 e9 20          	shr    $0x20,%rcx
     eac:	48 25 10 d9 ff ff    	and    $0xffffffffffffd910,%rax
     eb2:	48 05 04 28 00 00    	add    $0x2804,%rax
     eb8:	48 03 83 88 04 00 00 	add    0x488(%rbx),%rax
     ebf:	89 08                	mov    %ecx,(%rax)
     ec1:	83 bb a0 04 00 00 03 	cmpl   $0x3,0x4a0(%rbx)
     ec8:	48 19 c0             	sbb    %rax,%rax
     ecb:	48 25 10 d9 ff ff    	and    $0xffffffffffffd910,%rax
     ed1:	48 05 00 28 00 00    	add    $0x2800,%rax
     ed7:	48 03 83 88 04 00 00 	add    0x488(%rbx),%rax
     ede:	89 10                	mov    %edx,(%rax)
     ee0:	83 bb a0 04 00 00 03 	cmpl   $0x3,0x4a0(%rbx)
     ee7:	48 19 c0             	sbb    %rax,%rax
     eea:	31 d2                	xor    %edx,%edx
     eec:	48 25 10 d9 ff ff    	and    $0xffffffffffffd910,%rax
     ef2:	48 05 18 28 00 00    	add    $0x2818,%rax
     ef8:	48 03 83 88 04 00 00 	add    0x488(%rbx),%rax
     eff:	89 10                	mov    %edx,(%rax)
     f01:	83 bb a0 04 00 00 03 	cmpl   $0x3,0x4a0(%rbx)
     f08:	48 19 c0             	sbb    %rax,%rax
     f0b:	48 25 10 d9 ff ff    	and    $0xffffffffffffd910,%rax
     f11:	48 05 10 28 00 00    	add    $0x2810,%rax
     f17:	48 03 83 88 04 00 00 	add    0x488(%rbx),%rax
     f1e:	89 10                	mov    %edx,(%rax)
     f20:	83 bb a0 04 00 00 03 	cmpl   $0x3,0x4a0(%rbx)
     f27:	48 8b 93 a8 02 00 00 	mov    0x2a8(%rbx),%rdx
     f2e:	19 c0                	sbb    %eax,%eax
     f30:	66 25 10 d9          	and    $0xd910,%ax
     f34:	66 05 10 28          	add    $0x2810,%ax
     f38:	66 89 42 34          	mov    %ax,0x34(%rdx)
     f3c:	83 bb a0 04 00 00 03 	cmpl   $0x3,0x4a0(%rbx)
     f43:	19 c0                	sbb    %eax,%eax
     f45:	48 8b 93 a8 02 00 00 	mov    0x2a8(%rbx),%rdx
     f4c:	66 25 10 d9          	and    $0xd910,%ax
     f50:	66 05 18 28          	add    $0x2818,%ax
     f54:	66 89 42 36          	mov    %ax,0x36(%rdx)
     f58:	83 bb a0 04 00 00 02 	cmpl   $0x2,0x4a0(%rbx)
     f5f:	76 43                	jbe    fa4 <e1000_configure_rx+0x1f4>
     f61:	48 8b 83 88 04 00 00 	mov    0x488(%rbx),%rax
     f68:	44 8b a8 00 50 00 00 	mov    0x5000(%rax),%r13d
     f6f:	44 0f b6 b3 64 04 00 	movzbl 0x464(%rbx),%r14d
     f76:	00 
     f77:	41 80 fe 01          	cmp    $0x1,%r14b
     f7b:	0f 87 00 00 00 00    	ja     f81 <e1000_configure_rx+0x1d1>
     f81:	44 89 e8             	mov    %r13d,%eax
     f84:	41 81 e5 ff fd ff ff 	and    $0xfffffdff,%r13d
     f8b:	80 cc 02             	or     $0x2,%ah
     f8e:	41 83 e6 01          	and    $0x1,%r14d
     f92:	44 0f 45 e8          	cmovne %eax,%r13d
     f96:	48 8b 83 88 04 00 00 	mov    0x488(%rbx),%rax
     f9d:	44 89 a8 00 50 00 00 	mov    %r13d,0x5000(%rax)
     fa4:	48 8b 83 88 04 00 00 	mov    0x488(%rbx),%rax
     fab:	41 83 cc 02          	or     $0x2,%r12d
     faf:	44 89 a0 00 01 00 00 	mov    %r12d,0x100(%rax)
     fb6:	5b                   	pop    %rbx
     fb7:	41 5c                	pop    %r12
     fb9:	41 5d                	pop    %r13
     fbb:	41 5e                	pop    %r14
     fbd:	5d                   	pop    %rbp
     fbe:	e9 00 00 00 00       	jmpq   fc3 <e1000_configure_rx+0x213>
     fc3:	48 c7 87 98 02 00 00 	movq   $0x0,0x298(%rdi)
     fca:	00 00 00 00 
     fce:	48 c7 87 a0 02 00 00 	movq   $0x0,0x2a0(%rdi)
     fd5:	00 00 00 00 
     fd9:	e9 1f fe ff ff       	jmpq   dfd <e1000_configure_rx+0x4d>
     fde:	8b b3 30 02 00 00    	mov    0x230(%rbx),%esi
     fe4:	31 d2                	xor    %edx,%edx
     fe6:	b8 00 ca 9a 3b       	mov    $0x3b9aca00,%eax
     feb:	48 8b bb 88 04 00 00 	mov    0x488(%rbx),%rdi
     ff2:	c1 e6 08             	shl    $0x8,%esi
     ff5:	f7 f6                	div    %esi
     ff7:	89 87 c4 00 00 00    	mov    %eax,0xc4(%rdi)
     ffd:	e9 6d fe ff ff       	jmpq   e6f <e1000_configure_rx+0xbf>
    1002:	66 66 2e 0f 1f 84 00 	data16 nopw %cs:0x0(%rax,%rax,1)
    1009:	00 00 00 00 
    100d:	0f 1f 00             	nopl   (%rax)

0000000000001010 <e1000_vlan_rx_kill_vid>:
    1010:	e8 00 00 00 00       	callq  1015 <e1000_vlan_rx_kill_vid+0x5>
    1015:	55                   	push   %rbp
    1016:	48 89 e5             	mov    %rsp,%rbp
    1019:	41 56                	push   %r14
    101b:	4c 8d b7 08 0e 00 00 	lea    0xe08(%rdi),%r14
    1022:	41 55                	push   %r13
    1024:	44 0f b7 ea          	movzwl %dx,%r13d
    1028:	41 54                	push   %r12
    102a:	41 89 d4             	mov    %edx,%r12d
    102d:	53                   	push   %rbx
    102e:	48 8b 97 f0 11 00 00 	mov    0x11f0(%rdi),%rdx
    1035:	48 89 fb             	mov    %rdi,%rbx
    1038:	48 8b 87 08 0e 00 00 	mov    0xe08(%rdi),%rax
    103f:	83 e2 04             	and    $0x4,%edx
    1042:	0f 84 9f 00 00 00    	je     10e7 <e1000_vlan_rx_kill_vid+0xd7>
    1048:	48 8b 93 f0 11 00 00 	mov    0x11f0(%rbx),%rdx
    104f:	83 e2 04             	and    $0x4,%edx
    1052:	75 1c                	jne    1070 <e1000_vlan_rx_kill_vid+0x60>
    1054:	ba 9d 00 00 00       	mov    $0x9d,%edx
    1059:	89 90 d0 00 00 00    	mov    %edx,0xd0(%rax)
    105f:	48 8b 83 08 0e 00 00 	mov    0xe08(%rbx),%rax
    1066:	8b 40 08             	mov    0x8(%rax),%eax
    1069:	48 8b 83 08 0e 00 00 	mov    0xe08(%rbx),%rax
    1070:	44 89 e6             	mov    %r12d,%esi
    1073:	66 c1 ee 05          	shr    $0x5,%si
    1077:	83 e6 7f             	and    $0x7f,%esi
    107a:	83 bb 20 0e 00 00 03 	cmpl   $0x3,0xe20(%rbx)
    1081:	48 19 c9             	sbb    %rcx,%rcx
    1084:	8d 14 b5 00 00 00 00 	lea    0x0(,%rsi,4),%edx
    108b:	48 81 e1 00 b0 ff ff 	and    $0xffffffffffffb000,%rcx
    1092:	48 8d 94 11 00 56 00 	lea    0x5600(%rcx,%rdx,1),%rdx
    1099:	00 
    109a:	48 01 d0             	add    %rdx,%rax
    109d:	8b 10                	mov    (%rax),%edx
    109f:	44 0f b3 e2          	btr    %r12d,%edx
    10a3:	4c 89 f7             	mov    %r14,%rdi
    10a6:	4c 8d a3 80 09 00 00 	lea    0x980(%rbx),%r12
    10ad:	e8 00 00 00 00       	callq  10b2 <e1000_vlan_rx_kill_vid+0xa2>
    10b2:	f0 4c 0f b3 ab 80 09 	lock btr %r13,0x980(%rbx)
    10b9:	00 00 
    10bb:	be 00 10 00 00       	mov    $0x1000,%esi
    10c0:	4c 89 e7             	mov    %r12,%rdi
    10c3:	e8 00 00 00 00       	callq  10c8 <e1000_vlan_rx_kill_vid+0xb8>
    10c8:	66 3d ff 0f          	cmp    $0xfff,%ax
    10cc:	76 0a                	jbe    10d8 <e1000_vlan_rx_kill_vid+0xc8>
    10ce:	31 f6                	xor    %esi,%esi
    10d0:	4c 89 e7             	mov    %r12,%rdi
    10d3:	e8 08 01 00 00       	callq  11e0 <e1000_vlan_filter_on_off>
    10d8:	5b                   	pop    %rbx
    10d9:	31 c0                	xor    %eax,%eax
    10db:	41 5c                	pop    %r12
    10dd:	41 5d                	pop    %r13
    10df:	41 5e                	pop    %r14
    10e1:	5d                   	pop    %rbp
    10e2:	e9 00 00 00 00       	jmpq   10e7 <e1000_vlan_rx_kill_vid+0xd7>
    10e7:	ba ff ff ff ff       	mov    $0xffffffff,%edx
    10ec:	89 90 d8 00 00 00    	mov    %edx,0xd8(%rax)
    10f2:	48 8b 87 08 0e 00 00 	mov    0xe08(%rdi),%rax
    10f9:	8b 40 08             	mov    0x8(%rax),%eax
    10fc:	48 8b 87 00 0e 00 00 	mov    0xe00(%rdi),%rax
    1103:	8b b8 bc 03 00 00    	mov    0x3bc(%rax),%edi
    1109:	e8 00 00 00 00       	callq  110e <e1000_vlan_rx_kill_vid+0xfe>
    110e:	48 8b 83 08 0e 00 00 	mov    0xe08(%rbx),%rax
    1115:	e9 2e ff ff ff       	jmpq   1048 <e1000_vlan_rx_kill_vid+0x38>
    111a:	66 0f 1f 44 00 00    	nopw   0x0(%rax,%rax,1)

0000000000001120 <e1000_update_mng_vlan>:
    1120:	e8 00 00 00 00       	callq  1125 <e1000_update_mng_vlan+0x5>
    1125:	55                   	push   %rbp
    1126:	be 00 10 00 00       	mov    $0x1000,%esi
    112b:	48 89 e5             	mov    %rsp,%rbp
    112e:	41 56                	push   %r14
    1130:	41 55                	push   %r13
    1132:	41 54                	push   %r12
    1134:	53                   	push   %rbx
    1135:	48 89 fb             	mov    %rdi,%rbx
    1138:	4c 8b b7 78 04 00 00 	mov    0x478(%rdi),%r14
    113f:	44 0f b7 a7 4e 05 00 	movzwl 0x54e(%rdi),%r12d
    1146:	00 
    1147:	44 0f b7 af 00 02 00 	movzwl 0x200(%rdi),%r13d
    114e:	00 
    114f:	e8 00 00 00 00       	callq  1154 <e1000_update_mng_vlan+0x34>
    1154:	66 3d ff 0f          	cmp    $0xfff,%ax
    1158:	77 36                	ja     1190 <e1000_update_mng_vlan+0x70>
    115a:	41 0f b7 c4          	movzwl %r12w,%eax
    115e:	48 0f a3 03          	bt     %rax,(%rbx)
    1162:	72 39                	jb     119d <e1000_update_mng_vlan+0x7d>
    1164:	f6 83 4c 05 00 00 02 	testb  $0x2,0x54c(%rbx)
    116b:	75 45                	jne    11b2 <e1000_update_mng_vlan+0x92>
    116d:	b8 ff ff ff ff       	mov    $0xffffffff,%eax
    1172:	66 89 83 00 02 00 00 	mov    %ax,0x200(%rbx)
    1179:	66 41 83 fd ff       	cmp    $0xffff,%r13w
    117e:	74 10                	je     1190 <e1000_update_mng_vlan+0x70>
    1180:	66 45 39 ec          	cmp    %r13w,%r12w
    1184:	74 0a                	je     1190 <e1000_update_mng_vlan+0x70>
    1186:	41 0f b7 c5          	movzwl %r13w,%eax
    118a:	48 0f a3 03          	bt     %rax,(%rbx)
    118e:	73 3d                	jae    11cd <e1000_update_mng_vlan+0xad>
    1190:	5b                   	pop    %rbx
    1191:	41 5c                	pop    %r12
    1193:	41 5d                	pop    %r13
    1195:	41 5e                	pop    %r14
    1197:	5d                   	pop    %rbp
    1198:	e9 00 00 00 00       	jmpq   119d <e1000_update_mng_vlan+0x7d>
    119d:	66 44 89 a3 00 02 00 	mov    %r12w,0x200(%rbx)
    11a4:	00 
    11a5:	5b                   	pop    %rbx
    11a6:	41 5c                	pop    %r12
    11a8:	41 5d                	pop    %r13
    11aa:	41 5e                	pop    %r14
    11ac:	5d                   	pop    %rbp
    11ad:	e9 00 00 00 00       	jmpq   11b2 <e1000_update_mng_vlan+0x92>
    11b2:	41 0f b7 d4          	movzwl %r12w,%edx
    11b6:	be 81 00 00 00       	mov    $0x81,%esi
    11bb:	4c 89 f7             	mov    %r14,%rdi
    11be:	e8 3d 01 00 00       	callq  1300 <e1000_vlan_rx_add_vid>
    11c3:	66 44 89 a3 00 02 00 	mov    %r12w,0x200(%rbx)
    11ca:	00 
    11cb:	eb ac                	jmp    1179 <e1000_update_mng_vlan+0x59>
    11cd:	41 0f b7 d5          	movzwl %r13w,%edx
    11d1:	be 81 00 00 00       	mov    $0x81,%esi
    11d6:	4c 89 f7             	mov    %r14,%rdi
    11d9:	e8 32 fe ff ff       	callq  1010 <e1000_vlan_rx_kill_vid>
    11de:	eb b0                	jmp    1190 <e1000_update_mng_vlan+0x70>

00000000000011e0 <e1000_vlan_filter_on_off>:
    11e0:	e8 00 00 00 00       	callq  11e5 <e1000_vlan_filter_on_off+0x5>
    11e5:	55                   	push   %rbp
    11e6:	48 89 e5             	mov    %rsp,%rbp
    11e9:	41 54                	push   %r12
    11eb:	41 89 f4             	mov    %esi,%r12d
    11ee:	53                   	push   %rbx
    11ef:	48 8b 97 70 08 00 00 	mov    0x870(%rdi),%rdx
    11f6:	48 89 fb             	mov    %rdi,%rbx
    11f9:	48 8b 87 88 04 00 00 	mov    0x488(%rdi),%rax
    1200:	83 e2 04             	and    $0x4,%edx
    1203:	0f 84 bb 00 00 00    	je     12c4 <e1000_vlan_filter_on_off+0xe4>
    1209:	48 8b 93 78 04 00 00 	mov    0x478(%rbx),%rdx
    1210:	48 8b 8a e0 00 00 00 	mov    0xe0(%rdx),%rcx
    1217:	8b 00                	mov    (%rax),%eax
    1219:	89 c2                	mov    %eax,%edx
    121b:	25 ff ff ff bf       	and    $0xbfffffff,%eax
    1220:	81 ca 00 00 00 40    	or     $0x40000000,%edx
    1226:	80 e5 01             	and    $0x1,%ch
    1229:	0f 45 c2             	cmovne %edx,%eax
    122c:	48 8b 93 88 04 00 00 	mov    0x488(%rbx),%rdx
    1233:	89 02                	mov    %eax,(%rdx)
    1235:	48 8b 83 88 04 00 00 	mov    0x488(%rbx),%rax
    123c:	45 84 e4             	test   %r12b,%r12b
    123f:	74 69                	je     12aa <e1000_vlan_filter_on_off+0xca>
    1241:	8b 80 00 01 00 00    	mov    0x100(%rax),%eax
    1247:	25 ff ff f7 ff       	and    $0xfff7ffff,%eax
    124c:	48 8b 8b 78 04 00 00 	mov    0x478(%rbx),%rcx
    1253:	89 c2                	mov    %eax,%edx
    1255:	81 ca 00 00 04 00    	or     $0x40000,%edx
    125b:	f6 81 c1 00 00 00 01 	testb  $0x1,0xc1(%rcx)
    1262:	0f 44 c2             	cmove  %edx,%eax
    1265:	48 8b 93 88 04 00 00 	mov    0x488(%rbx),%rdx
    126c:	89 82 00 01 00 00    	mov    %eax,0x100(%rdx)
    1272:	48 89 df             	mov    %rbx,%rdi
    1275:	e8 a6 fe ff ff       	callq  1120 <e1000_update_mng_vlan>
    127a:	48 8b 83 70 08 00 00 	mov    0x870(%rbx),%rax
    1281:	a8 04                	test   $0x4,%al
    1283:	75 1c                	jne    12a1 <e1000_vlan_filter_on_off+0xc1>
    1285:	48 8b 93 88 04 00 00 	mov    0x488(%rbx),%rdx
    128c:	b8 9d 00 00 00       	mov    $0x9d,%eax
    1291:	89 82 d0 00 00 00    	mov    %eax,0xd0(%rdx)
    1297:	48 8b 83 88 04 00 00 	mov    0x488(%rbx),%rax
    129e:	8b 40 08             	mov    0x8(%rax),%eax
    12a1:	5b                   	pop    %rbx
    12a2:	41 5c                	pop    %r12
    12a4:	5d                   	pop    %rbp
    12a5:	e9 00 00 00 00       	jmpq   12aa <e1000_vlan_filter_on_off+0xca>
    12aa:	8b 80 00 01 00 00    	mov    0x100(%rax),%eax
    12b0:	48 8b 93 88 04 00 00 	mov    0x488(%rbx),%rdx
    12b7:	25 ff ff fb ff       	and    $0xfffbffff,%eax
    12bc:	89 82 00 01 00 00    	mov    %eax,0x100(%rdx)
    12c2:	eb b6                	jmp    127a <e1000_vlan_filter_on_off+0x9a>
    12c4:	ba ff ff ff ff       	mov    $0xffffffff,%edx
    12c9:	89 90 d8 00 00 00    	mov    %edx,0xd8(%rax)
    12cf:	48 8b 87 88 04 00 00 	mov    0x488(%rdi),%rax
    12d6:	8b 40 08             	mov    0x8(%rax),%eax
    12d9:	48 8b 87 80 04 00 00 	mov    0x480(%rdi),%rax
    12e0:	8b b8 bc 03 00 00    	mov    0x3bc(%rax),%edi
    12e6:	e8 00 00 00 00       	callq  12eb <e1000_vlan_filter_on_off+0x10b>
    12eb:	48 8b 83 88 04 00 00 	mov    0x488(%rbx),%rax
    12f2:	e9 12 ff ff ff       	jmpq   1209 <e1000_vlan_filter_on_off+0x29>
    12f7:	66 0f 1f 84 00 00 00 	nopw   0x0(%rax,%rax,1)
    12fe:	00 00 

0000000000001300 <e1000_vlan_rx_add_vid>:
    1300:	e8 00 00 00 00       	callq  1305 <e1000_vlan_rx_add_vid+0x5>
    1305:	55                   	push   %rbp
    1306:	48 89 e5             	mov    %rsp,%rbp
    1309:	41 57                	push   %r15
    130b:	41 56                	push   %r14
    130d:	4c 8d b7 08 0e 00 00 	lea    0xe08(%rdi),%r14
    1314:	41 55                	push   %r13
    1316:	44 0f b7 ea          	movzwl %dx,%r13d
    131a:	41 54                	push   %r12
    131c:	41 89 d4             	mov    %edx,%r12d
    131f:	53                   	push   %rbx
    1320:	48 89 fb             	mov    %rdi,%rbx
    1323:	f6 87 cc 0e 00 00 02 	testb  $0x2,0xecc(%rdi)
    132a:	74 09                	je     1335 <e1000_vlan_rx_add_vid+0x35>
    132c:	66 39 97 80 0b 00 00 	cmp    %dx,0xb80(%rdi)
    1333:	74 62                	je     1397 <e1000_vlan_rx_add_vid+0x97>
    1335:	4c 8d bb 80 09 00 00 	lea    0x980(%rbx),%r15
    133c:	be 00 10 00 00       	mov    $0x1000,%esi
    1341:	4c 89 ff             	mov    %r15,%rdi
    1344:	e8 00 00 00 00       	callq  1349 <e1000_vlan_rx_add_vid+0x49>
    1349:	66 3d ff 0f          	cmp    $0xfff,%ax
    134d:	77 59                	ja     13a8 <e1000_vlan_rx_add_vid+0xa8>
    134f:	44 89 e6             	mov    %r12d,%esi
    1352:	66 c1 ee 05          	shr    $0x5,%si
    1356:	83 e6 7f             	and    $0x7f,%esi
    1359:	83 bb 20 0e 00 00 03 	cmpl   $0x3,0xe20(%rbx)
    1360:	48 19 d2             	sbb    %rdx,%rdx
    1363:	8d 04 b5 00 00 00 00 	lea    0x0(,%rsi,4),%eax
    136a:	48 81 e2 00 b0 ff ff 	and    $0xffffffffffffb000,%rdx
    1371:	48 8d 84 02 00 56 00 	lea    0x5600(%rdx,%rax,1),%rax
    1378:	00 
    1379:	48 03 83 08 0e 00 00 	add    0xe08(%rbx),%rax
    1380:	8b 10                	mov    (%rax),%edx
    1382:	44 0f ab e2          	bts    %r12d,%edx
    1386:	4c 89 f7             	mov    %r14,%rdi
    1389:	e8 00 00 00 00       	callq  138e <e1000_vlan_rx_add_vid+0x8e>
    138e:	f0 4c 0f ab ab 80 09 	lock bts %r13,0x980(%rbx)
    1395:	00 00 
    1397:	5b                   	pop    %rbx
    1398:	31 c0                	xor    %eax,%eax
    139a:	41 5c                	pop    %r12
    139c:	41 5d                	pop    %r13
    139e:	41 5e                	pop    %r14
    13a0:	41 5f                	pop    %r15
    13a2:	5d                   	pop    %rbp
    13a3:	e9 00 00 00 00       	jmpq   13a8 <e1000_vlan_rx_add_vid+0xa8>
    13a8:	be 01 00 00 00       	mov    $0x1,%esi
    13ad:	4c 89 ff             	mov    %r15,%rdi
    13b0:	e8 2b fe ff ff       	callq  11e0 <e1000_vlan_filter_on_off>
    13b5:	eb 98                	jmp    134f <e1000_vlan_rx_add_vid+0x4f>
    13b7:	66 0f 1f 84 00 00 00 	nopw   0x0(%rax,%rax,1)
    13be:	00 00 

00000000000013c0 <e1000_init_manageability.part.0>:
    13c0:	e8 00 00 00 00       	callq  13c5 <e1000_init_manageability.part.0+0x5>
    13c5:	55                   	push   %rbp
    13c6:	48 8b 87 88 04 00 00 	mov    0x488(%rdi),%rax
    13cd:	48 89 e5             	mov    %rsp,%rbp
    13d0:	8b 80 20 58 00 00    	mov    0x5820(%rax),%eax
    13d6:	48 8b 97 88 04 00 00 	mov    0x488(%rdi),%rdx
    13dd:	80 e4 df             	and    $0xdf,%ah
    13e0:	89 82 20 58 00 00    	mov    %eax,0x5820(%rdx)
    13e6:	5d                   	pop    %rbp
    13e7:	e9 00 00 00 00       	jmpq   13ec <e1000_init_manageability.part.0+0x2c>
    13ec:	0f 1f 40 00          	nopl   0x0(%rax)

00000000000013f0 <e1000_release_manageability.part.0>:
    13f0:	e8 00 00 00 00       	callq  13f5 <e1000_release_manageability.part.0+0x5>
    13f5:	55                   	push   %rbp
    13f6:	48 8b 87 88 04 00 00 	mov    0x488(%rdi),%rax
    13fd:	48 89 e5             	mov    %rsp,%rbp
    1400:	8b 80 20 58 00 00    	mov    0x5820(%rax),%eax
    1406:	48 8b 97 88 04 00 00 	mov    0x488(%rdi),%rdx
    140d:	80 cc 20             	or     $0x20,%ah
    1410:	89 82 20 58 00 00    	mov    %eax,0x5820(%rdx)
    1416:	5d                   	pop    %rbp
    1417:	e9 00 00 00 00       	jmpq   141c <e1000_release_manageability.part.0+0x2c>
    141c:	0f 1f 40 00          	nopl   0x0(%rax)

0000000000001420 <e1000_remove>:
    1420:	e8 00 00 00 00       	callq  1425 <e1000_remove+0x5>
    1425:	55                   	push   %rbp
    1426:	48 89 e5             	mov    %rsp,%rbp
    1429:	41 57                	push   %r15
    142b:	41 56                	push   %r14
    142d:	41 55                	push   %r13
    142f:	49 89 fd             	mov    %rdi,%r13
    1432:	41 54                	push   %r12
    1434:	4c 8b a7 48 01 00 00 	mov    0x148(%rdi),%r12
    143b:	4d 8d b4 24 80 09 00 	lea    0x980(%r12),%r14
    1442:	00 
    1443:	4d 8d bc 24 08 0e 00 	lea    0xe08(%r12),%r15
    144a:	00 
    144b:	4c 89 f7             	mov    %r14,%rdi
    144e:	e8 cd f4 ff ff       	callq  920 <e1000_down_and_stop>
    1453:	41 8b 84 24 94 0b 00 	mov    0xb94(%r12),%eax
    145a:	00 
    145b:	85 c0                	test   %eax,%eax
    145d:	74 08                	je     1467 <e1000_remove+0x47>
    145f:	4c 89 f7             	mov    %r14,%rdi
    1462:	e8 89 ff ff ff       	callq  13f0 <e1000_release_manageability.part.0>
    1467:	4c 89 e7             	mov    %r12,%rdi
    146a:	e8 00 00 00 00       	callq  146f <e1000_remove+0x4f>
    146f:	4c 89 ff             	mov    %r15,%rdi
    1472:	e8 00 00 00 00       	callq  1477 <e1000_remove+0x57>
    1477:	49 8b bc 24 c0 0b 00 	mov    0xbc0(%r12),%rdi
    147e:	00 
    147f:	e8 00 00 00 00       	callq  1484 <e1000_remove+0x64>
    1484:	49 8b bc 24 28 0c 00 	mov    0xc28(%r12),%rdi
    148b:	00 
    148c:	e8 00 00 00 00       	callq  1491 <e1000_remove+0x71>
    1491:	41 83 bc 24 20 0e 00 	cmpl   $0x9,0xe20(%r12)
    1498:	00 09 
    149a:	74 6f                	je     150b <e1000_remove+0xeb>
    149c:	49 8b bc 24 08 0e 00 	mov    0xe08(%r12),%rdi
    14a3:	00 
    14a4:	e8 00 00 00 00       	callq  14a9 <e1000_remove+0x89>
    14a9:	49 8b bc 24 10 0e 00 	mov    0xe10(%r12),%rdi
    14b0:	00 
    14b1:	48 85 ff             	test   %rdi,%rdi
    14b4:	74 05                	je     14bb <e1000_remove+0x9b>
    14b6:	e8 00 00 00 00       	callq  14bb <e1000_remove+0x9b>
    14bb:	41 8b b4 24 fc 11 00 	mov    0x11fc(%r12),%esi
    14c2:	00 
    14c3:	4c 89 ef             	mov    %r13,%rdi
    14c6:	e8 00 00 00 00       	callq  14cb <e1000_remove+0xab>
    14cb:	f0 49 0f ba ac 24 f0 	lock btsq $0x3,0x11f0(%r12)
    14d2:	11 00 00 03 
    14d6:	41 0f 92 c6          	setb   %r14b
    14da:	4c 89 e7             	mov    %r12,%rdi
    14dd:	e8 00 00 00 00       	callq  14e2 <e1000_remove+0xc2>
    14e2:	45 84 f6             	test   %r14b,%r14b
    14e5:	74 0e                	je     14f5 <e1000_remove+0xd5>
    14e7:	41 5c                	pop    %r12
    14e9:	41 5d                	pop    %r13
    14eb:	41 5e                	pop    %r14
    14ed:	41 5f                	pop    %r15
    14ef:	5d                   	pop    %rbp
    14f0:	e9 00 00 00 00       	jmpq   14f5 <e1000_remove+0xd5>
    14f5:	4c 89 ef             	mov    %r13,%rdi
    14f8:	e8 00 00 00 00       	callq  14fd <e1000_remove+0xdd>
    14fd:	41 5c                	pop    %r12
    14ff:	41 5d                	pop    %r13
    1501:	41 5e                	pop    %r14
    1503:	41 5f                	pop    %r15
    1505:	5d                   	pop    %rbp
    1506:	e9 00 00 00 00       	jmpq   150b <e1000_remove+0xeb>
    150b:	49 8b bc 24 18 0e 00 	mov    0xe18(%r12),%rdi
    1512:	00 
    1513:	e8 00 00 00 00       	callq  1518 <e1000_remove+0xf8>
    1518:	eb 82                	jmp    149c <e1000_remove+0x7c>
    151a:	66 0f 1f 44 00 00    	nopw   0x0(%rax,%rax,1)

0000000000001520 <e1000_tbi_should_accept>:
    1520:	e8 00 00 00 00       	callq  1525 <e1000_tbi_should_accept+0x5>
    1525:	55                   	push   %rbp
    1526:	89 c8                	mov    %ecx,%eax
    1528:	48 89 e5             	mov    %rsp,%rbp
    152b:	41 56                	push   %r14
    152d:	41 55                	push   %r13
    152f:	41 89 f5             	mov    %esi,%r13d
    1532:	41 54                	push   %r12
    1534:	49 89 fc             	mov    %rdi,%r12
    1537:	53                   	push   %rbx
    1538:	48 83 ec 18          	sub    $0x18,%rsp
    153c:	0f b6 9f 97 05 00 00 	movzbl 0x597(%rdi),%ebx
    1543:	45 0f b6 74 00 ff    	movzbl -0x1(%r8,%rax,1),%r14d
    1549:	80 fb 01             	cmp    $0x1,%bl
    154c:	0f 87 00 00 00 00    	ja     1552 <e1000_tbi_should_accept+0x32>
    1552:	83 e3 01             	and    $0x1,%ebx
    1555:	74 14                	je     156b <e1000_tbi_should_accept+0x4b>
    1557:	83 e2 97             	and    $0xffffff97,%edx
    155a:	80 fa 01             	cmp    $0x1,%dl
    155d:	0f 94 c3             	sete   %bl
    1560:	41 80 fe 0f          	cmp    $0xf,%r14b
    1564:	0f 94 c0             	sete   %al
    1567:	20 c3                	and    %al,%bl
    1569:	75 13                	jne    157e <e1000_tbi_should_accept+0x5e>
    156b:	48 83 c4 18          	add    $0x18,%rsp
    156f:	89 d8                	mov    %ebx,%eax
    1571:	5b                   	pop    %rbx
    1572:	41 5c                	pop    %r12
    1574:	41 5d                	pop    %r13
    1576:	41 5e                	pop    %r14
    1578:	5d                   	pop    %rbp
    1579:	e9 00 00 00 00       	jmpq   157e <e1000_tbi_should_accept+0x5e>
    157e:	41 83 e5 08          	and    $0x8,%r13d
    1582:	41 8b 84 24 24 05 00 	mov    0x524(%r12),%eax
    1589:	00 
    158a:	0f 85 03 01 00 00    	jne    1693 <e1000_tbi_should_accept+0x173>
    1590:	31 db                	xor    %ebx,%ebx
    1592:	39 c1                	cmp    %eax,%ecx
    1594:	76 d5                	jbe    156b <e1000_tbi_should_accept+0x4b>
    1596:	41 8b 84 24 20 05 00 	mov    0x520(%r12),%eax
    159d:	00 
    159e:	83 c0 05             	add    $0x5,%eax
    15a1:	39 c1                	cmp    %eax,%ecx
    15a3:	0f 96 c3             	setbe  %bl
    15a6:	4c 89 45 d0          	mov    %r8,-0x30(%rbp)
    15aa:	89 4d dc             	mov    %ecx,-0x24(%rbp)
    15ad:	84 db                	test   %bl,%bl
    15af:	74 ba                	je     156b <e1000_tbi_should_accept+0x4b>
    15b1:	4d 8d ac 24 1c 02 00 	lea    0x21c(%r12),%r13
    15b8:	00 
    15b9:	4c 89 ef             	mov    %r13,%rdi
    15bc:	e8 00 00 00 00       	callq  15c1 <e1000_tbi_should_accept+0xa1>
    15c1:	8b 4d dc             	mov    -0x24(%rbp),%ecx
    15c4:	4c 8b 45 d0          	mov    -0x30(%rbp),%r8
    15c8:	49 83 ac 24 a8 05 00 	subq   $0x1,0x5a8(%r12)
    15cf:	00 01 
    15d1:	48 89 c6             	mov    %rax,%rsi
    15d4:	49 8b 84 24 a0 06 00 	mov    0x6a0(%r12),%rax
    15db:	00 
    15dc:	49 83 84 24 80 06 00 	addq   $0x1,0x680(%r12)
    15e3:	00 01 
    15e5:	83 e9 01             	sub    $0x1,%ecx
    15e8:	48 89 ca             	mov    %rcx,%rdx
    15eb:	48 01 c1             	add    %rax,%rcx
    15ee:	a9 00 00 00 80       	test   $0x80000000,%eax
    15f3:	49 89 8c 24 a0 06 00 	mov    %rcx,0x6a0(%r12)
    15fa:	00 
    15fb:	74 11                	je     160e <e1000_tbi_should_accept+0xee>
    15fd:	f7 c1 00 00 00 80    	test   $0x80000000,%ecx
    1603:	75 09                	jne    160e <e1000_tbi_should_accept+0xee>
    1605:	49 83 84 24 a8 06 00 	addq   $0x1,0x6a8(%r12)
    160c:	00 01 
    160e:	41 0f b7 08          	movzwl (%r8),%ecx
    1612:	66 41 23 48 02       	and    0x2(%r8),%cx
    1617:	66 41 23 48 04       	and    0x4(%r8),%cx
    161c:	66 83 f9 ff          	cmp    $0xffff,%cx
    1620:	0f 84 b1 00 00 00    	je     16d7 <e1000_tbi_should_accept+0x1b7>
    1626:	41 f6 00 01          	testb  $0x1,(%r8)
    162a:	74 09                	je     1635 <e1000_tbi_should_accept+0x115>
    162c:	49 83 84 24 90 06 00 	addq   $0x1,0x690(%r12)
    1633:	00 01 
    1635:	41 3b 94 24 20 05 00 	cmp    0x520(%r12),%edx
    163c:	00 
    163d:	74 76                	je     16b5 <e1000_tbi_should_accept+0x195>
    163f:	83 fa 40             	cmp    $0x40,%edx
    1642:	0f 84 9d 00 00 00    	je     16e5 <e1000_tbi_should_accept+0x1c5>
    1648:	83 fa 7f             	cmp    $0x7f,%edx
    164b:	0f 84 a8 00 00 00    	je     16f9 <e1000_tbi_should_accept+0x1d9>
    1651:	81 fa ff 00 00 00    	cmp    $0xff,%edx
    1657:	0f 84 b3 00 00 00    	je     1710 <e1000_tbi_should_accept+0x1f0>
    165d:	81 fa ff 01 00 00    	cmp    $0x1ff,%edx
    1663:	0f 84 be 00 00 00    	je     1727 <e1000_tbi_should_accept+0x207>
    1669:	81 fa ff 03 00 00    	cmp    $0x3ff,%edx
    166f:	0f 84 c9 00 00 00    	je     173e <e1000_tbi_should_accept+0x21e>
    1675:	81 fa f2 05 00 00    	cmp    $0x5f2,%edx
    167b:	75 09                	jne    1686 <e1000_tbi_should_accept+0x166>
    167d:	49 83 84 24 78 06 00 	addq   $0x1,0x678(%r12)
    1684:	00 01 
    1686:	4c 89 ef             	mov    %r13,%rdi
    1689:	e8 00 00 00 00       	callq  168e <e1000_tbi_should_accept+0x16e>
    168e:	e9 d8 fe ff ff       	jmpq   156b <e1000_tbi_should_accept+0x4b>
    1693:	83 e8 04             	sub    $0x4,%eax
    1696:	31 db                	xor    %ebx,%ebx
    1698:	39 c1                	cmp    %eax,%ecx
    169a:	0f 86 cb fe ff ff    	jbe    156b <e1000_tbi_should_accept+0x4b>
    16a0:	41 8b 84 24 20 05 00 	mov    0x520(%r12),%eax
    16a7:	00 
    16a8:	83 c0 01             	add    $0x1,%eax
    16ab:	39 c1                	cmp    %eax,%ecx
    16ad:	0f 96 c3             	setbe  %bl
    16b0:	e9 f1 fe ff ff       	jmpq   15a6 <e1000_tbi_should_accept+0x86>
    16b5:	49 8b 84 24 d8 06 00 	mov    0x6d8(%r12),%rax
    16bc:	00 
    16bd:	48 85 c0             	test   %rax,%rax
    16c0:	0f 84 79 ff ff ff    	je     163f <e1000_tbi_should_accept+0x11f>
    16c6:	48 83 e8 01          	sub    $0x1,%rax
    16ca:	49 89 84 24 d8 06 00 	mov    %rax,0x6d8(%r12)
    16d1:	00 
    16d2:	e9 68 ff ff ff       	jmpq   163f <e1000_tbi_should_accept+0x11f>
    16d7:	49 83 84 24 88 06 00 	addq   $0x1,0x688(%r12)
    16de:	00 01 
    16e0:	e9 50 ff ff ff       	jmpq   1635 <e1000_tbi_should_accept+0x115>
    16e5:	49 83 84 24 50 06 00 	addq   $0x1,0x650(%r12)
    16ec:	00 01 
    16ee:	49 83 ac 24 58 06 00 	subq   $0x1,0x658(%r12)
    16f5:	00 01 
    16f7:	eb 8d                	jmp    1686 <e1000_tbi_should_accept+0x166>
    16f9:	49 83 84 24 58 06 00 	addq   $0x1,0x658(%r12)
    1700:	00 01 
    1702:	49 83 ac 24 60 06 00 	subq   $0x1,0x660(%r12)
    1709:	00 01 
    170b:	e9 76 ff ff ff       	jmpq   1686 <e1000_tbi_should_accept+0x166>
    1710:	49 83 84 24 60 06 00 	addq   $0x1,0x660(%r12)
    1717:	00 01 
    1719:	49 83 ac 24 68 06 00 	subq   $0x1,0x668(%r12)
    1720:	00 01 
    1722:	e9 5f ff ff ff       	jmpq   1686 <e1000_tbi_should_accept+0x166>
    1727:	49 83 84 24 68 06 00 	addq   $0x1,0x668(%r12)
    172e:	00 01 
    1730:	49 83 ac 24 70 06 00 	subq   $0x1,0x670(%r12)
    1737:	00 01 
    1739:	e9 48 ff ff ff       	jmpq   1686 <e1000_tbi_should_accept+0x166>
    173e:	49 83 84 24 70 06 00 	addq   $0x1,0x670(%r12)
    1745:	00 01 
    1747:	49 83 ac 24 78 06 00 	subq   $0x1,0x678(%r12)
    174e:	00 01 
    1750:	e9 31 ff ff ff       	jmpq   1686 <e1000_tbi_should_accept+0x166>
    1755:	66 66 2e 0f 1f 84 00 	data16 nopw %cs:0x0(%rax,%rax,1)
    175c:	00 00 00 00 

0000000000001760 <e1000_clean_jumbo_rx_irq>:
    1760:	e8 00 00 00 00       	callq  1765 <e1000_clean_jumbo_rx_irq+0x5>
    1765:	55                   	push   %rbp
    1766:	48 89 e5             	mov    %rsp,%rbp
    1769:	41 57                	push   %r15
    176b:	41 56                	push   %r14
    176d:	41 55                	push   %r13
    176f:	41 54                	push   %r12
    1771:	49 89 f4             	mov    %rsi,%r12
    1774:	53                   	push   %rbx
    1775:	48 83 ec 68          	sub    $0x68,%rsp
    1779:	44 8b 76 1c          	mov    0x1c(%rsi),%r14d
    177d:	4d 8b 3c 24          	mov    (%r12),%r15
    1781:	48 89 7d d0          	mov    %rdi,-0x30(%rbp)
    1785:	48 8b 87 78 04 00 00 	mov    0x478(%rdi),%rax
    178c:	48 89 55 b8          	mov    %rdx,-0x48(%rbp)
    1790:	4c 89 f3             	mov    %r14,%rbx
    1793:	44 89 f6             	mov    %r14d,%esi
    1796:	49 c1 e6 04          	shl    $0x4,%r14
    179a:	89 4d c0             	mov    %ecx,-0x40(%rbp)
    179d:	48 89 45 90          	mov    %rax,-0x70(%rbp)
    17a1:	48 8b 87 80 04 00 00 	mov    0x480(%rdi),%rax
    17a8:	4d 01 f7             	add    %r14,%r15
    17ab:	4d 03 74 24 20       	add    0x20(%r12),%r14
    17b0:	48 89 45 98          	mov    %rax,-0x68(%rbp)
    17b4:	41 f6 47 0c 01       	testb  $0x1,0xc(%r15)
    17b9:	0f 84 0c 07 00 00    	je     1ecb <e1000_clean_jumbo_rx_irq+0x76b>
    17bf:	65 48 8b 04 25 00 00 	mov    %gs:0x0,%rax
    17c6:	00 00 
    17c8:	c7 45 a0 00 00 00 00 	movl   $0x0,-0x60(%rbp)
    17cf:	45 31 ed             	xor    %r13d,%r13d
    17d2:	4d 89 f3             	mov    %r14,%r11
    17d5:	c7 45 a4 00 00 00 00 	movl   $0x0,-0x5c(%rbp)
    17dc:	c7 45 c4 00 00 00 00 	movl   $0x0,-0x3c(%rbp)
    17e3:	48 89 45 88          	mov    %rax,-0x78(%rbp)
    17e7:	e9 a9 00 00 00       	jmpq   1895 <e1000_clean_jumbo_rx_irq+0x135>
    17ec:	8b 88 bc 00 00 00    	mov    0xbc(%rax),%ecx
    17f2:	48 03 88 c0 00 00 00 	add    0xc0(%rax),%rcx
    17f9:	0f b6 79 02          	movzbl 0x2(%rcx),%edi
    17fd:	49 8b 13             	mov    (%r11),%rdx
    1800:	49 89 f8             	mov    %rdi,%r8
    1803:	48 89 fe             	mov    %rdi,%rsi
    1806:	48 c1 e7 04          	shl    $0x4,%rdi
    180a:	49 c1 e0 04          	shl    $0x4,%r8
    180e:	49 01 c8             	add    %rcx,%r8
    1811:	49 89 50 30          	mov    %rdx,0x30(%r8)
    1815:	41 c7 40 3c 00 00 00 	movl   $0x0,0x3c(%r8)
    181c:	00 
    181d:	44 89 6c 0f 38       	mov    %r13d,0x38(%rdi,%rcx,1)
    1822:	48 8b 4a 08          	mov    0x8(%rdx),%rcx
    1826:	48 8d 79 ff          	lea    -0x1(%rcx),%rdi
    182a:	83 e1 01             	and    $0x1,%ecx
    182d:	48 0f 45 d7          	cmovne %rdi,%rdx
    1831:	f6 42 08 02          	testb  $0x2,0x8(%rdx)
    1835:	74 04                	je     183b <e1000_clean_jumbo_rx_irq+0xdb>
    1837:	80 48 7e 40          	orb    $0x40,0x7e(%rax)
    183b:	8b 90 bc 00 00 00    	mov    0xbc(%rax),%edx
    1841:	48 8b 80 c0 00 00 00 	mov    0xc0(%rax),%rax
    1848:	83 c6 01             	add    $0x1,%esi
    184b:	40 88 74 10 02       	mov    %sil,0x2(%rax,%rdx,1)
    1850:	49 8b 44 24 28       	mov    0x28(%r12),%rax
    1855:	49 c7 03 00 00 00 00 	movq   $0x0,(%r11)
    185c:	44 01 68 70          	add    %r13d,0x70(%rax)
    1860:	44 01 68 74          	add    %r13d,0x74(%rax)
    1864:	81 80 d0 00 00 00 00 	addl   $0x1000,0xd0(%rax)
    186b:	10 00 00 
    186e:	83 7d c4 0f          	cmpl   $0xf,-0x3c(%rbp)
    1872:	41 c6 47 0c 00       	movb   $0x0,0xc(%r15)
    1877:	0f 8f a6 02 00 00    	jg     1b23 <e1000_clean_jumbo_rx_irq+0x3c3>
    187d:	41 bd 01 00 00 00    	mov    $0x1,%r13d
    1883:	41 f6 46 0c 01       	testb  $0x1,0xc(%r14)
    1888:	0f 84 c3 02 00 00    	je     1b51 <e1000_clean_jumbo_rx_irq+0x3f1>
    188e:	4c 8b 5d a8          	mov    -0x58(%rbp),%r11
    1892:	4d 89 f7             	mov    %r14,%r15
    1895:	48 8b 45 b8          	mov    -0x48(%rbp),%rax
    1899:	8b 00                	mov    (%rax),%eax
    189b:	3b 45 c0             	cmp    -0x40(%rbp),%eax
    189e:	0f 8d ad 02 00 00    	jge    1b51 <e1000_clean_jumbo_rx_irq+0x3f1>
    18a4:	48 8b 4d b8          	mov    -0x48(%rbp),%rcx
    18a8:	83 c0 01             	add    $0x1,%eax
    18ab:	89 01                	mov    %eax,(%rcx)
    18ad:	41 0f b6 47 0c       	movzbl 0xc(%r15),%eax
    18b2:	83 c3 01             	add    $0x1,%ebx
    18b5:	88 45 c8             	mov    %al,-0x38(%rbp)
    18b8:	89 d8                	mov    %ebx,%eax
    18ba:	48 c1 e0 04          	shl    $0x4,%rax
    18be:	41 39 5c 24 14       	cmp    %ebx,0x14(%r12)
    18c3:	75 04                	jne    18c9 <e1000_clean_jumbo_rx_irq+0x169>
    18c5:	31 c0                	xor    %eax,%eax
    18c7:	31 db                	xor    %ebx,%ebx
    18c9:	4d 8b 34 24          	mov    (%r12),%r14
    18cd:	49 8b 73 08          	mov    0x8(%r11),%rsi
    18d1:	45 31 c0             	xor    %r8d,%r8d
    18d4:	b9 02 00 00 00       	mov    $0x2,%ecx
    18d9:	49 01 c6             	add    %rax,%r14
    18dc:	49 03 44 24 20       	add    0x20(%r12),%rax
    18e1:	41 0f 18 0e          	prefetcht0 (%r14)
    18e5:	48 89 45 a8          	mov    %rax,-0x58(%rbp)
    18e9:	48 8b 45 d0          	mov    -0x30(%rbp),%rax
    18ed:	4c 89 5d b0          	mov    %r11,-0x50(%rbp)
    18f1:	8b 90 08 02 00 00    	mov    0x208(%rax),%edx
    18f7:	48 8b 45 98          	mov    -0x68(%rbp),%rax
    18fb:	83 45 c4 01          	addl   $0x1,-0x3c(%rbp)
    18ff:	48 8d b8 d0 00 00 00 	lea    0xd0(%rax),%rdi
    1906:	e8 00 00 00 00       	callq  190b <e1000_clean_jumbo_rx_irq+0x1ab>
    190b:	4c 8b 5d b0          	mov    -0x50(%rbp),%r11
    190f:	49 c7 43 08 00 00 00 	movq   $0x0,0x8(%r11)
    1916:	00 
    1917:	45 0f b7 6f 08       	movzwl 0x8(%r15),%r13d
    191c:	f6 45 c8 02          	testb  $0x2,-0x38(%rbp)
    1920:	0f 85 83 00 00 00    	jne    19a9 <e1000_clean_jumbo_rx_irq+0x249>
    1926:	49 8b 44 24 28       	mov    0x28(%r12),%rax
    192b:	48 85 c0             	test   %rax,%rax
    192e:	0f 85 b8 fe ff ff    	jne    17ec <e1000_clean_jumbo_rx_irq+0x8c>
    1934:	48 8b 45 d0          	mov    -0x30(%rbp),%rax
    1938:	4c 89 5d c8          	mov    %r11,-0x38(%rbp)
    193c:	48 8d b8 b0 02 00 00 	lea    0x2b0(%rax),%rdi
    1943:	e8 00 00 00 00       	callq  1948 <e1000_clean_jumbo_rx_irq+0x1e8>
    1948:	4c 8b 5d c8          	mov    -0x38(%rbp),%r11
    194c:	48 85 c0             	test   %rax,%rax
    194f:	49 89 44 24 28       	mov    %rax,0x28(%r12)
    1954:	0f 84 4a 05 00 00    	je     1ea4 <e1000_clean_jumbo_rx_irq+0x744>
    195a:	49 8b 13             	mov    (%r11),%rdx
    195d:	8b 88 bc 00 00 00    	mov    0xbc(%rax),%ecx
    1963:	48 03 88 c0 00 00 00 	add    0xc0(%rax),%rcx
    196a:	48 89 51 30          	mov    %rdx,0x30(%rcx)
    196e:	c7 41 3c 00 00 00 00 	movl   $0x0,0x3c(%rcx)
    1975:	44 89 69 38          	mov    %r13d,0x38(%rcx)
    1979:	48 8b 4a 08          	mov    0x8(%rdx),%rcx
    197d:	48 8d 71 ff          	lea    -0x1(%rcx),%rsi
    1981:	83 e1 01             	and    $0x1,%ecx
    1984:	48 0f 45 d6          	cmovne %rsi,%rdx
    1988:	f6 42 08 02          	testb  $0x2,0x8(%rdx)
    198c:	74 04                	je     1992 <e1000_clean_jumbo_rx_irq+0x232>
    198e:	80 48 7e 40          	orb    $0x40,0x7e(%rax)
    1992:	8b 90 bc 00 00 00    	mov    0xbc(%rax),%edx
    1998:	48 8b 80 c0 00 00 00 	mov    0xc0(%rax),%rax
    199f:	c6 44 10 02 01       	movb   $0x1,0x2(%rax,%rdx,1)
    19a4:	e9 a7 fe ff ff       	jmpq   1850 <e1000_clean_jumbo_rx_irq+0xf0>
    19a9:	41 0f b6 47 0d       	movzbl 0xd(%r15),%eax
    19ae:	44 0f b6 55 c8       	movzbl -0x38(%rbp),%r10d
    19b3:	49 8b 0b             	mov    (%r11),%rcx
    19b6:	a8 97                	test   $0x97,%al
    19b8:	0f 85 61 04 00 00    	jne    1e1f <e1000_clean_jumbo_rx_irq+0x6bf>
    19be:	49 8b 7c 24 28       	mov    0x28(%r12),%rdi
    19c3:	48 8b 45 d0          	mov    -0x30(%rbp),%rax
    19c7:	4c 8d 88 b0 02 00 00 	lea    0x2b0(%rax),%r9
    19ce:	48 85 ff             	test   %rdi,%rdi
    19d1:	0f 84 f7 01 00 00    	je     1bce <e1000_clean_jumbo_rx_irq+0x46e>
    19d7:	8b 87 bc 00 00 00    	mov    0xbc(%rdi),%eax
    19dd:	48 03 87 c0 00 00 00 	add    0xc0(%rdi),%rax
    19e4:	0f b6 70 02          	movzbl 0x2(%rax),%esi
    19e8:	49 89 f0             	mov    %rsi,%r8
    19eb:	48 89 f2             	mov    %rsi,%rdx
    19ee:	48 c1 e6 04          	shl    $0x4,%rsi
    19f2:	49 c1 e0 04          	shl    $0x4,%r8
    19f6:	49 01 c0             	add    %rax,%r8
    19f9:	49 89 48 30          	mov    %rcx,0x30(%r8)
    19fd:	41 c7 40 3c 00 00 00 	movl   $0x0,0x3c(%r8)
    1a04:	00 
    1a05:	44 89 6c 06 38       	mov    %r13d,0x38(%rsi,%rax,1)
    1a0a:	48 8b 41 08          	mov    0x8(%rcx),%rax
    1a0e:	48 8d 70 ff          	lea    -0x1(%rax),%rsi
    1a12:	a8 01                	test   $0x1,%al
    1a14:	48 0f 45 ce          	cmovne %rsi,%rcx
    1a18:	f6 41 08 02          	testb  $0x2,0x8(%rcx)
    1a1c:	74 04                	je     1a22 <e1000_clean_jumbo_rx_irq+0x2c2>
    1a1e:	80 4f 7e 40          	orb    $0x40,0x7e(%rdi)
    1a22:	8b 87 bc 00 00 00    	mov    0xbc(%rdi),%eax
    1a28:	48 8b 8f c0 00 00 00 	mov    0xc0(%rdi),%rcx
    1a2f:	83 c2 01             	add    $0x1,%edx
    1a32:	88 54 01 02          	mov    %dl,0x2(%rcx,%rax,1)
    1a36:	49 8b 54 24 28       	mov    0x28(%r12),%rdx
    1a3b:	49 c7 44 24 28 00 00 	movq   $0x0,0x28(%r12)
    1a42:	00 00 
    1a44:	49 c7 03 00 00 00 00 	movq   $0x0,(%r11)
    1a4b:	45 0f b7 ed          	movzwl %r13w,%r13d
    1a4f:	44 89 d1             	mov    %r10d,%ecx
    1a52:	44 01 6a 70          	add    %r13d,0x70(%rdx)
    1a56:	44 01 6a 74          	add    %r13d,0x74(%rdx)
    1a5a:	81 82 d0 00 00 00 00 	addl   $0x1000,0xd0(%rdx)
    1a61:	10 00 00 
    1a64:	41 0f b6 47 0d       	movzbl 0xd(%r15),%eax
    1a69:	48 8b 7d d0          	mov    -0x30(%rbp),%rdi
    1a6d:	c1 e0 18             	shl    $0x18,%eax
    1a70:	09 c1                	or     %eax,%ecx
    1a72:	c1 e8 18             	shr    $0x18,%eax
    1a75:	83 bf a0 04 00 00 02 	cmpl   $0x2,0x4a0(%rdi)
    1a7c:	76 34                	jbe    1ab2 <e1000_clean_jumbo_rx_irq+0x352>
    1a7e:	0f b7 f1             	movzwl %cx,%esi
    1a81:	83 e1 04             	and    $0x4,%ecx
    1a84:	75 2c                	jne    1ab2 <e1000_clean_jumbo_rx_irq+0x352>
    1a86:	a8 20                	test   $0x20,%al
    1a88:	0f 85 65 03 00 00    	jne    1df3 <e1000_clean_jumbo_rx_irq+0x693>
    1a8e:	83 e6 20             	and    $0x20,%esi
    1a91:	74 1f                	je     1ab2 <e1000_clean_jumbo_rx_irq+0x352>
    1a93:	0f b6 82 80 00 00 00 	movzbl 0x80(%rdx),%eax
    1a9a:	83 e0 9f             	and    $0xffffff9f,%eax
    1a9d:	83 c8 20             	or     $0x20,%eax
    1aa0:	88 82 80 00 00 00    	mov    %al,0x80(%rdx)
    1aa6:	48 8b 45 d0          	mov    -0x30(%rbp),%rax
    1aaa:	48 83 80 50 04 00 00 	addq   $0x1,0x450(%rax)
    1ab1:	01 
    1ab2:	48 bf 00 00 00 00 00 	movabs $0x80000000000,%rdi
    1ab9:	08 00 00 
    1abc:	8b 45 a4             	mov    -0x5c(%rbp),%eax
    1abf:	8b 72 70             	mov    0x70(%rdx),%esi
    1ac2:	8d 44 06 fc          	lea    -0x4(%rsi,%rax,1),%eax
    1ac6:	89 45 a4             	mov    %eax,-0x5c(%rbp)
    1ac9:	48 8b 45 90          	mov    -0x70(%rbp),%rax
    1acd:	48 85 b8 e0 00 00 00 	test   %rdi,0xe0(%rax)
    1ad4:	75 09                	jne    1adf <e1000_clean_jumbo_rx_irq+0x37f>
    1ad6:	83 c6 fc             	add    $0xfffffffc,%esi
    1ad9:	0f 82 07 04 00 00    	jb     1ee6 <e1000_clean_jumbo_rx_irq+0x786>
    1adf:	83 45 a0 01          	addl   $0x1,-0x60(%rbp)
    1ae3:	f6 45 c8 08          	testb  $0x8,-0x38(%rbp)
    1ae7:	74 23                	je     1b0c <e1000_clean_jumbo_rx_irq+0x3ac>
    1ae9:	41 0f b7 47 0e       	movzwl 0xe(%r15),%eax
    1aee:	b9 81 00 00 00       	mov    $0x81,%ecx
    1af3:	80 8a 82 00 00 00 01 	orb    $0x1,0x82(%rdx)
    1afa:	66 89 8a 98 00 00 00 	mov    %cx,0x98(%rdx)
    1b01:	66 25 ff 0f          	and    $0xfff,%ax
    1b05:	66 89 82 9a 00 00 00 	mov    %ax,0x9a(%rdx)
    1b0c:	4c 89 cf             	mov    %r9,%rdi
    1b0f:	e8 00 00 00 00       	callq  1b14 <e1000_clean_jumbo_rx_irq+0x3b4>
    1b14:	83 7d c4 0f          	cmpl   $0xf,-0x3c(%rbp)
    1b18:	41 c6 47 0c 00       	movb   $0x0,0xc(%r15)
    1b1d:	0f 8e 5a fd ff ff    	jle    187d <e1000_clean_jumbo_rx_irq+0x11d>
    1b23:	48 8b 7d d0          	mov    -0x30(%rbp),%rdi
    1b27:	8b 55 c4             	mov    -0x3c(%rbp),%edx
    1b2a:	4c 89 e6             	mov    %r12,%rsi
    1b2d:	41 bd 01 00 00 00    	mov    $0x1,%r13d
    1b33:	48 8b 87 a0 02 00 00 	mov    0x2a0(%rdi),%rax
    1b3a:	e8 00 00 00 00       	callq  1b3f <e1000_clean_jumbo_rx_irq+0x3df>
    1b3f:	c7 45 c4 00 00 00 00 	movl   $0x0,-0x3c(%rbp)
    1b46:	41 f6 46 0c 01       	testb  $0x1,0xc(%r14)
    1b4b:	0f 85 3d fd ff ff    	jne    188e <e1000_clean_jumbo_rx_irq+0x12e>
    1b51:	89 de                	mov    %ebx,%esi
    1b53:	44 8b 75 a4          	mov    -0x5c(%rbp),%r14d
    1b57:	8b 5d a0             	mov    -0x60(%rbp),%ebx
    1b5a:	41 89 74 24 1c       	mov    %esi,0x1c(%r12)
    1b5f:	41 8b 54 24 1c       	mov    0x1c(%r12),%edx
    1b64:	41 8b 4c 24 18       	mov    0x18(%r12),%ecx
    1b69:	31 c0                	xor    %eax,%eax
    1b6b:	39 ca                	cmp    %ecx,%edx
    1b6d:	77 05                	ja     1b74 <e1000_clean_jumbo_rx_irq+0x414>
    1b6f:	41 8b 44 24 14       	mov    0x14(%r12),%eax
    1b74:	83 ea 01             	sub    $0x1,%edx
    1b77:	29 ca                	sub    %ecx,%edx
    1b79:	01 c2                	add    %eax,%edx
    1b7b:	74 13                	je     1b90 <e1000_clean_jumbo_rx_irq+0x430>
    1b7d:	48 8b 7d d0          	mov    -0x30(%rbp),%rdi
    1b81:	4c 89 e6             	mov    %r12,%rsi
    1b84:	48 8b 87 a0 02 00 00 	mov    0x2a0(%rdi),%rax
    1b8b:	e8 00 00 00 00       	callq  1b90 <e1000_clean_jumbo_rx_irq+0x430>
    1b90:	48 8b 45 d0          	mov    -0x30(%rbp),%rax
    1b94:	8b 75 a0             	mov    -0x60(%rbp),%esi
    1b97:	01 b0 2c 02 00 00    	add    %esi,0x22c(%rax)
    1b9d:	8b 75 a4             	mov    -0x5c(%rbp),%esi
    1ba0:	01 b0 28 02 00 00    	add    %esi,0x228(%rax)
    1ba6:	48 8b 45 90          	mov    -0x70(%rbp),%rax
    1baa:	4c 01 b0 38 01 00 00 	add    %r14,0x138(%rax)
    1bb1:	48 01 98 28 01 00 00 	add    %rbx,0x128(%rax)
    1bb8:	48 83 c4 68          	add    $0x68,%rsp
    1bbc:	44 89 e8             	mov    %r13d,%eax
    1bbf:	5b                   	pop    %rbx
    1bc0:	41 5c                	pop    %r12
    1bc2:	41 5d                	pop    %r13
    1bc4:	41 5e                	pop    %r14
    1bc6:	41 5f                	pop    %r15
    1bc8:	5d                   	pop    %rbp
    1bc9:	e9 00 00 00 00       	jmpq   1bce <e1000_clean_jumbo_rx_irq+0x46e>
    1bce:	44 39 2d 00 00 00 00 	cmp    %r13d,0x0(%rip)        # 1bd5 <e1000_clean_jumbo_rx_irq+0x475>
    1bd5:	0f 82 91 01 00 00    	jb     1d6c <e1000_clean_jumbo_rx_irq+0x60c>
    1bdb:	48 8b 75 90          	mov    -0x70(%rbp),%rsi
    1bdf:	48 89 4d 80          	mov    %rcx,-0x80(%rbp)
    1be3:	41 8d 45 fc          	lea    -0x4(%r13),%eax
    1be7:	4c 89 cf             	mov    %r9,%rdi
    1bea:	48 b9 00 00 00 00 00 	movabs $0x80000000000,%rcx
    1bf1:	08 00 00 
    1bf4:	ba 20 0a 00 00       	mov    $0xa20,%edx
    1bf9:	44 89 95 7c ff ff ff 	mov    %r10d,-0x84(%rbp)
    1c00:	48 85 8e e0 00 00 00 	test   %rcx,0xe0(%rsi)
    1c07:	4c 89 4d b0          	mov    %r9,-0x50(%rbp)
    1c0b:	44 0f 44 e8          	cmove  %eax,%r13d
    1c0f:	44 89 ee             	mov    %r13d,%esi
    1c12:	e8 00 00 00 00       	callq  1c17 <e1000_clean_jumbo_rx_irq+0x4b7>
    1c17:	4c 8b 4d b0          	mov    -0x50(%rbp),%r9
    1c1b:	48 8b 4d 80          	mov    -0x80(%rbp),%rcx
    1c1f:	48 85 c0             	test   %rax,%rax
    1c22:	44 8b 95 7c ff ff ff 	mov    -0x84(%rbp),%r10d
    1c29:	49 89 c0             	mov    %rax,%r8
    1c2c:	0f 84 ce 01 00 00    	je     1e00 <e1000_clean_jumbo_rx_irq+0x6a0>
    1c32:	44 89 95 7c ff ff ff 	mov    %r10d,-0x84(%rbp)
    1c39:	4c 89 4d 80          	mov    %r9,-0x80(%rbp)
    1c3d:	48 8b 45 88          	mov    -0x78(%rbp),%rax
    1c41:	83 80 40 14 00 00 01 	addl   $0x1,0x1440(%rax)
    1c48:	48 89 ce             	mov    %rcx,%rsi
    1c4b:	48 2b 35 00 00 00 00 	sub    0x0(%rip),%rsi        # 1c52 <e1000_clean_jumbo_rx_irq+0x4f2>
    1c52:	44 89 ea             	mov    %r13d,%edx
    1c55:	4c 89 45 b0          	mov    %r8,-0x50(%rbp)
    1c59:	48 c1 fe 06          	sar    $0x6,%rsi
    1c5d:	41 8b b8 b8 00 00 00 	mov    0xb8(%r8),%edi
    1c64:	49 03 b8 c0 00 00 00 	add    0xc0(%r8),%rdi
    1c6b:	48 c1 e6 0c          	shl    $0xc,%rsi
    1c6f:	48 03 35 00 00 00 00 	add    0x0(%rip),%rsi        # 1c76 <e1000_clean_jumbo_rx_irq+0x516>
    1c76:	e8 00 00 00 00       	callq  1c7b <e1000_clean_jumbo_rx_irq+0x51b>
    1c7b:	48 8b 45 88          	mov    -0x78(%rbp),%rax
    1c7f:	83 a8 40 14 00 00 01 	subl   $0x1,0x1440(%rax)
    1c86:	4c 8b 45 b0          	mov    -0x50(%rbp),%r8
    1c8a:	44 89 ee             	mov    %r13d,%esi
    1c8d:	4c 89 c7             	mov    %r8,%rdi
    1c90:	e8 00 00 00 00       	callq  1c95 <e1000_clean_jumbo_rx_irq+0x535>
    1c95:	41 0f b6 47 0d       	movzbl 0xd(%r15),%eax
    1c9a:	44 8b 95 7c ff ff ff 	mov    -0x84(%rbp),%r10d
    1ca1:	48 8b 75 d0          	mov    -0x30(%rbp),%rsi
    1ca5:	4c 8b 45 b0          	mov    -0x50(%rbp),%r8
    1ca9:	c1 e0 18             	shl    $0x18,%eax
    1cac:	44 89 d2             	mov    %r10d,%edx
    1caf:	4c 8b 4d 80          	mov    -0x80(%rbp),%r9
    1cb3:	09 c2                	or     %eax,%edx
    1cb5:	c1 e8 18             	shr    $0x18,%eax
    1cb8:	83 be a0 04 00 00 02 	cmpl   $0x2,0x4a0(%rsi)
    1cbf:	76 36                	jbe    1cf7 <e1000_clean_jumbo_rx_irq+0x597>
    1cc1:	0f b7 ca             	movzwl %dx,%ecx
    1cc4:	83 e2 04             	and    $0x4,%edx
    1cc7:	75 2e                	jne    1cf7 <e1000_clean_jumbo_rx_irq+0x597>
    1cc9:	a8 20                	test   $0x20,%al
    1ccb:	0f 85 9e 01 00 00    	jne    1e6f <e1000_clean_jumbo_rx_irq+0x70f>
    1cd1:	83 e1 20             	and    $0x20,%ecx
    1cd4:	74 21                	je     1cf7 <e1000_clean_jumbo_rx_irq+0x597>
    1cd6:	41 0f b6 80 80 00 00 	movzbl 0x80(%r8),%eax
    1cdd:	00 
    1cde:	83 e0 9f             	and    $0xffffff9f,%eax
    1ce1:	83 c8 20             	or     $0x20,%eax
    1ce4:	41 88 80 80 00 00 00 	mov    %al,0x80(%r8)
    1ceb:	48 8b 45 d0          	mov    -0x30(%rbp),%rax
    1cef:	48 83 80 50 04 00 00 	addq   $0x1,0x450(%rax)
    1cf6:	01 
    1cf7:	48 8b 45 d0          	mov    -0x30(%rbp),%rax
    1cfb:	41 8b 70 70          	mov    0x70(%r8),%esi
    1cff:	4c 89 c7             	mov    %r8,%rdi
    1d02:	4c 89 4d 80          	mov    %r9,-0x80(%rbp)
    1d06:	01 75 a4             	add    %esi,-0x5c(%rbp)
    1d09:	45 0f b7 6f 0e       	movzwl 0xe(%r15),%r13d
    1d0e:	48 8b b0 78 04 00 00 	mov    0x478(%rax),%rsi
    1d15:	83 45 a0 01          	addl   $0x1,-0x60(%rbp)
    1d19:	4c 89 45 b0          	mov    %r8,-0x50(%rbp)
    1d1d:	e8 00 00 00 00       	callq  1d22 <e1000_clean_jumbo_rx_irq+0x5c2>
    1d22:	4c 8b 45 b0          	mov    -0x50(%rbp),%r8
    1d26:	f6 45 c8 08          	testb  $0x8,-0x38(%rbp)
    1d2a:	4c 8b 4d 80          	mov    -0x80(%rbp),%r9
    1d2e:	66 41 89 80 b0 00 00 	mov    %ax,0xb0(%r8)
    1d35:	00 
    1d36:	74 24                	je     1d5c <e1000_clean_jumbo_rx_irq+0x5fc>
    1d38:	41 ba 81 00 00 00    	mov    $0x81,%r10d
    1d3e:	66 41 81 e5 ff 0f    	and    $0xfff,%r13w
    1d44:	41 80 88 82 00 00 00 	orb    $0x1,0x82(%r8)
    1d4b:	01 
    1d4c:	66 45 89 90 98 00 00 	mov    %r10w,0x98(%r8)
    1d53:	00 
    1d54:	66 45 89 a8 9a 00 00 	mov    %r13w,0x9a(%r8)
    1d5b:	00 
    1d5c:	4c 89 c6             	mov    %r8,%rsi
    1d5f:	4c 89 cf             	mov    %r9,%rdi
    1d62:	e8 00 00 00 00       	callq  1d67 <e1000_clean_jumbo_rx_irq+0x607>
    1d67:	e9 02 fb ff ff       	jmpq   186e <e1000_clean_jumbo_rx_irq+0x10e>
    1d6c:	4c 89 cf             	mov    %r9,%rdi
    1d6f:	4c 89 9d 70 ff ff ff 	mov    %r11,-0x90(%rbp)
    1d76:	44 89 95 7c ff ff ff 	mov    %r10d,-0x84(%rbp)
    1d7d:	48 89 4d 80          	mov    %rcx,-0x80(%rbp)
    1d81:	4c 89 4d b0          	mov    %r9,-0x50(%rbp)
    1d85:	e8 00 00 00 00       	callq  1d8a <e1000_clean_jumbo_rx_irq+0x62a>
    1d8a:	4c 8b 4d b0          	mov    -0x50(%rbp),%r9
    1d8e:	48 8b 4d 80          	mov    -0x80(%rbp),%rcx
    1d92:	48 85 c0             	test   %rax,%rax
    1d95:	44 8b 95 7c ff ff ff 	mov    -0x84(%rbp),%r10d
    1d9c:	4c 8b 9d 70 ff ff ff 	mov    -0x90(%rbp),%r11
    1da3:	48 89 c2             	mov    %rax,%rdx
    1da6:	74 58                	je     1e00 <e1000_clean_jumbo_rx_irq+0x6a0>
    1da8:	8b 80 bc 00 00 00    	mov    0xbc(%rax),%eax
    1dae:	48 03 82 c0 00 00 00 	add    0xc0(%rdx),%rax
    1db5:	48 89 48 30          	mov    %rcx,0x30(%rax)
    1db9:	c7 40 3c 00 00 00 00 	movl   $0x0,0x3c(%rax)
    1dc0:	44 89 68 38          	mov    %r13d,0x38(%rax)
    1dc4:	48 8b 41 08          	mov    0x8(%rcx),%rax
    1dc8:	48 8d 70 ff          	lea    -0x1(%rax),%rsi
    1dcc:	a8 01                	test   $0x1,%al
    1dce:	48 0f 45 ce          	cmovne %rsi,%rcx
    1dd2:	f6 41 08 02          	testb  $0x2,0x8(%rcx)
    1dd6:	74 04                	je     1ddc <e1000_clean_jumbo_rx_irq+0x67c>
    1dd8:	80 4a 7e 40          	orb    $0x40,0x7e(%rdx)
    1ddc:	8b 82 bc 00 00 00    	mov    0xbc(%rdx),%eax
    1de2:	48 8b 8a c0 00 00 00 	mov    0xc0(%rdx),%rcx
    1de9:	c6 44 01 02 01       	movb   $0x1,0x2(%rcx,%rax,1)
    1dee:	e9 51 fc ff ff       	jmpq   1a44 <e1000_clean_jumbo_rx_irq+0x2e4>
    1df3:	48 83 87 48 04 00 00 	addq   $0x1,0x448(%rdi)
    1dfa:	01 
    1dfb:	e9 b2 fc ff ff       	jmpq   1ab2 <e1000_clean_jumbo_rx_irq+0x352>
    1e00:	48 8b 45 d0          	mov    -0x30(%rbp),%rax
    1e04:	89 de                	mov    %ebx,%esi
    1e06:	44 8b 75 a4          	mov    -0x5c(%rbp),%r14d
    1e0a:	41 bd 01 00 00 00    	mov    $0x1,%r13d
    1e10:	8b 5d a0             	mov    -0x60(%rbp),%ebx
    1e13:	83 80 58 04 00 00 01 	addl   $0x1,0x458(%rax)
    1e1a:	e9 3b fd ff ff       	jmpq   1b5a <e1000_clean_jumbo_rx_irq+0x3fa>
    1e1f:	48 8b 7d d0          	mov    -0x30(%rbp),%rdi
    1e23:	44 89 d6             	mov    %r10d,%esi
    1e26:	0f b6 d0             	movzbl %al,%edx
    1e29:	4c 89 5d 80          	mov    %r11,-0x80(%rbp)
    1e2d:	48 2b 0d 00 00 00 00 	sub    0x0(%rip),%rcx        # 1e34 <e1000_clean_jumbo_rx_irq+0x6d4>
    1e34:	44 89 55 b0          	mov    %r10d,-0x50(%rbp)
    1e38:	49 89 c8             	mov    %rcx,%r8
    1e3b:	44 89 e9             	mov    %r13d,%ecx
    1e3e:	49 c1 f8 06          	sar    $0x6,%r8
    1e42:	49 c1 e0 0c          	shl    $0xc,%r8
    1e46:	4c 03 05 00 00 00 00 	add    0x0(%rip),%r8        # 1e4d <e1000_clean_jumbo_rx_irq+0x6ed>
    1e4d:	e8 ce f6 ff ff       	callq  1520 <e1000_tbi_should_accept>
    1e52:	44 8b 55 b0          	mov    -0x50(%rbp),%r10d
    1e56:	4c 8b 5d 80          	mov    -0x80(%rbp),%r11
    1e5a:	84 c0                	test   %al,%al
    1e5c:	74 22                	je     1e80 <e1000_clean_jumbo_rx_irq+0x720>
    1e5e:	49 8b 0b             	mov    (%r11),%rcx
    1e61:	49 8b 7c 24 28       	mov    0x28(%r12),%rdi
    1e66:	41 83 ed 01          	sub    $0x1,%r13d
    1e6a:	e9 54 fb ff ff       	jmpq   19c3 <e1000_clean_jumbo_rx_irq+0x263>
    1e6f:	48 8b 45 d0          	mov    -0x30(%rbp),%rax
    1e73:	48 83 80 48 04 00 00 	addq   $0x1,0x448(%rax)
    1e7a:	01 
    1e7b:	e9 77 fe ff ff       	jmpq   1cf7 <e1000_clean_jumbo_rx_irq+0x597>
    1e80:	48 8b 45 90          	mov    -0x70(%rbp),%rax
    1e84:	49 8b 7c 24 28       	mov    0x28(%r12),%rdi
    1e89:	48 be 00 00 00 00 00 	movabs $0x100000000000,%rsi
    1e90:	10 00 00 
    1e93:	48 85 b0 e0 00 00 00 	test   %rsi,0xe0(%rax)
    1e9a:	74 1c                	je     1eb8 <e1000_clean_jumbo_rx_irq+0x758>
    1e9c:	49 8b 0b             	mov    (%r11),%rcx
    1e9f:	e9 1f fb ff ff       	jmpq   19c3 <e1000_clean_jumbo_rx_irq+0x263>
    1ea4:	89 de                	mov    %ebx,%esi
    1ea6:	44 8b 75 a4          	mov    -0x5c(%rbp),%r14d
    1eaa:	8b 5d a0             	mov    -0x60(%rbp),%ebx
    1ead:	41 bd 01 00 00 00    	mov    $0x1,%r13d
    1eb3:	e9 a2 fc ff ff       	jmpq   1b5a <e1000_clean_jumbo_rx_irq+0x3fa>
    1eb8:	e8 00 00 00 00       	callq  1ebd <e1000_clean_jumbo_rx_irq+0x75d>
    1ebd:	49 c7 44 24 28 00 00 	movq   $0x0,0x28(%r12)
    1ec4:	00 00 
    1ec6:	e9 a3 f9 ff ff       	jmpq   186e <e1000_clean_jumbo_rx_irq+0x10e>
    1ecb:	c7 45 a0 00 00 00 00 	movl   $0x0,-0x60(%rbp)
    1ed2:	31 db                	xor    %ebx,%ebx
    1ed4:	45 31 f6             	xor    %r14d,%r14d
    1ed7:	45 31 ed             	xor    %r13d,%r13d
    1eda:	c7 45 a4 00 00 00 00 	movl   $0x0,-0x5c(%rbp)
    1ee1:	e9 74 fc ff ff       	jmpq   1b5a <e1000_clean_jumbo_rx_irq+0x3fa>
    1ee6:	8b 7a 74             	mov    0x74(%rdx),%edi
    1ee9:	85 ff                	test   %edi,%edi
    1eeb:	75 1e                	jne    1f0b <e1000_clean_jumbo_rx_irq+0x7ab>
    1eed:	48 8b 82 c8 00 00 00 	mov    0xc8(%rdx),%rax
    1ef4:	48 2b 82 c0 00 00 00 	sub    0xc0(%rdx),%rax
    1efb:	89 72 70             	mov    %esi,0x70(%rdx)
    1efe:	01 c6                	add    %eax,%esi
    1f00:	89 b2 b8 00 00 00    	mov    %esi,0xb8(%rdx)
    1f06:	e9 d4 fb ff ff       	jmpq   1adf <e1000_clean_jumbo_rx_irq+0x37f>
    1f0b:	48 89 d7             	mov    %rdx,%rdi
    1f0e:	4c 89 4d 80          	mov    %r9,-0x80(%rbp)
    1f12:	48 89 55 b0          	mov    %rdx,-0x50(%rbp)
    1f16:	e8 00 00 00 00       	callq  1f1b <e1000_clean_jumbo_rx_irq+0x7bb>
    1f1b:	48 8b 55 b0          	mov    -0x50(%rbp),%rdx
    1f1f:	4c 8b 4d 80          	mov    -0x80(%rbp),%r9
    1f23:	e9 b7 fb ff ff       	jmpq   1adf <e1000_clean_jumbo_rx_irq+0x37f>
    1f28:	0f 1f 84 00 00 00 00 	nopl   0x0(%rax,%rax,1)
    1f2f:	00 

0000000000001f30 <e1000_unmap_and_free_tx_resource.isra.0>:
    1f30:	e8 00 00 00 00       	callq  1f35 <e1000_unmap_and_free_tx_resource.isra.0+0x5>
    1f35:	55                   	push   %rbp
    1f36:	48 89 e5             	mov    %rsp,%rbp
    1f39:	41 54                	push   %r12
    1f3b:	53                   	push   %rbx
    1f3c:	48 89 f3             	mov    %rsi,%rbx
    1f3f:	48 8b 76 08          	mov    0x8(%rsi),%rsi
    1f43:	48 85 f6             	test   %rsi,%rsi
    1f46:	74 33                	je     1f7b <e1000_unmap_and_free_tx_resource.isra.0+0x4b>
    1f48:	0f b6 43 1c          	movzbl 0x1c(%rbx),%eax
    1f4c:	49 89 fc             	mov    %rdi,%r12
    1f4f:	3c 01                	cmp    $0x1,%al
    1f51:	0f 87 00 00 00 00    	ja     1f57 <e1000_unmap_and_free_tx_resource.isra.0+0x27>
    1f57:	49 8b 3c 24          	mov    (%r12),%rdi
    1f5b:	0f b7 53 18          	movzwl 0x18(%rbx),%edx
    1f5f:	45 31 c0             	xor    %r8d,%r8d
    1f62:	b9 01 00 00 00       	mov    $0x1,%ecx
    1f67:	48 81 c7 d0 00 00 00 	add    $0xd0,%rdi
    1f6e:	e8 00 00 00 00       	callq  1f73 <e1000_unmap_and_free_tx_resource.isra.0+0x43>
    1f73:	48 c7 43 08 00 00 00 	movq   $0x0,0x8(%rbx)
    1f7a:	00 
    1f7b:	48 8b 3b             	mov    (%rbx),%rdi
    1f7e:	48 85 ff             	test   %rdi,%rdi
    1f81:	74 11                	je     1f94 <e1000_unmap_and_free_tx_resource.isra.0+0x64>
    1f83:	be 01 00 00 00       	mov    $0x1,%esi
    1f88:	e8 00 00 00 00       	callq  1f8d <e1000_unmap_and_free_tx_resource.isra.0+0x5d>
    1f8d:	48 c7 03 00 00 00 00 	movq   $0x0,(%rbx)
    1f94:	48 c7 43 10 00 00 00 	movq   $0x0,0x10(%rbx)
    1f9b:	00 
    1f9c:	5b                   	pop    %rbx
    1f9d:	41 5c                	pop    %r12
    1f9f:	5d                   	pop    %rbp
    1fa0:	e9 00 00 00 00       	jmpq   1fa5 <e1000_unmap_and_free_tx_resource.isra.0+0x75>
    1fa5:	66 66 2e 0f 1f 84 00 	data16 nopw %cs:0x0(%rax,%rax,1)
    1fac:	00 00 00 00 

0000000000001fb0 <e1000_clean_tx_ring>:
    1fb0:	e8 00 00 00 00       	callq  1fb5 <e1000_clean_tx_ring+0x5>
    1fb5:	55                   	push   %rbp
    1fb6:	48 89 e5             	mov    %rsp,%rbp
    1fb9:	41 56                	push   %r14
    1fbb:	49 89 fe             	mov    %rdi,%r14
    1fbe:	41 55                	push   %r13
    1fc0:	4c 8d af 80 04 00 00 	lea    0x480(%rdi),%r13
    1fc7:	41 54                	push   %r12
    1fc9:	49 89 f4             	mov    %rsi,%r12
    1fcc:	53                   	push   %rbx
    1fcd:	8b 46 14             	mov    0x14(%rsi),%eax
    1fd0:	31 db                	xor    %ebx,%ebx
    1fd2:	85 c0                	test   %eax,%eax
    1fd4:	74 21                	je     1ff7 <e1000_clean_tx_ring+0x47>
    1fd6:	89 d8                	mov    %ebx,%eax
    1fd8:	4c 89 ef             	mov    %r13,%rdi
    1fdb:	83 c3 01             	add    $0x1,%ebx
    1fde:	48 8d 14 80          	lea    (%rax,%rax,4),%rdx
    1fe2:	49 8b 44 24 20       	mov    0x20(%r12),%rax
    1fe7:	48 8d 34 d0          	lea    (%rax,%rdx,8),%rsi
    1feb:	e8 40 ff ff ff       	callq  1f30 <e1000_unmap_and_free_tx_resource.isra.0>
    1ff0:	41 39 5c 24 14       	cmp    %ebx,0x14(%r12)
    1ff5:	77 df                	ja     1fd6 <e1000_clean_tx_ring+0x26>
    1ff7:	49 8b 86 78 04 00 00 	mov    0x478(%r14),%rax
    1ffe:	48 8b b8 00 04 00 00 	mov    0x400(%rax),%rdi
    2005:	f0 80 a7 90 00 00 00 	lock andb $0xfd,0x90(%rdi)
    200c:	fd 
    200d:	48 81 c7 c0 00 00 00 	add    $0xc0,%rdi
    2014:	e8 00 00 00 00       	callq  2019 <e1000_clean_tx_ring+0x69>
    2019:	41 8b 44 24 14       	mov    0x14(%r12),%eax
    201e:	49 8b 7c 24 20       	mov    0x20(%r12),%rdi
    2023:	31 f6                	xor    %esi,%esi
    2025:	48 8d 14 80          	lea    (%rax,%rax,4),%rdx
    2029:	48 c1 e2 03          	shl    $0x3,%rdx
    202d:	e8 00 00 00 00       	callq  2032 <e1000_clean_tx_ring+0x82>
    2032:	41 8b 54 24 10       	mov    0x10(%r12),%edx
    2037:	49 8b 3c 24          	mov    (%r12),%rdi
    203b:	31 f6                	xor    %esi,%esi
    203d:	e8 00 00 00 00       	callq  2042 <e1000_clean_tx_ring+0x92>
    2042:	41 c6 44 24 2c 00    	movb   $0x0,0x2c(%r12)
    2048:	41 0f b7 44 24 28    	movzwl 0x28(%r12),%eax
    204e:	31 d2                	xor    %edx,%edx
    2050:	49 c7 44 24 18 00 00 	movq   $0x0,0x18(%r12)
    2057:	00 00 
    2059:	49 03 86 88 04 00 00 	add    0x488(%r14),%rax
    2060:	89 10                	mov    %edx,(%rax)
    2062:	41 0f b7 44 24 2a    	movzwl 0x2a(%r12),%eax
    2068:	49 03 86 88 04 00 00 	add    0x488(%r14),%rax
    206f:	89 10                	mov    %edx,(%rax)
    2071:	5b                   	pop    %rbx
    2072:	41 5c                	pop    %r12
    2074:	41 5d                	pop    %r13
    2076:	41 5e                	pop    %r14
    2078:	5d                   	pop    %rbp
    2079:	e9 00 00 00 00       	jmpq   207e <e1000_clean_tx_ring+0xce>
    207e:	66 90                	xchg   %ax,%ax

0000000000002080 <e1000_free_tx_resources>:
    2080:	e8 00 00 00 00       	callq  2085 <e1000_free_tx_resources+0x5>
    2085:	55                   	push   %rbp
    2086:	48 89 e5             	mov    %rsp,%rbp
    2089:	41 54                	push   %r12
    208b:	53                   	push   %rbx
    208c:	48 89 f3             	mov    %rsi,%rbx
    208f:	4c 8b a7 80 04 00 00 	mov    0x480(%rdi),%r12
    2096:	e8 15 ff ff ff       	callq  1fb0 <e1000_clean_tx_ring>
    209b:	48 8b 7b 20          	mov    0x20(%rbx),%rdi
    209f:	e8 00 00 00 00       	callq  20a4 <e1000_free_tx_resources+0x24>
    20a4:	48 8b 4b 08          	mov    0x8(%rbx),%rcx
    20a8:	8b 73 10             	mov    0x10(%rbx),%esi
    20ab:	45 31 c0             	xor    %r8d,%r8d
    20ae:	48 c7 43 20 00 00 00 	movq   $0x0,0x20(%rbx)
    20b5:	00 
    20b6:	48 8b 13             	mov    (%rbx),%rdx
    20b9:	49 8d bc 24 d0 00 00 	lea    0xd0(%r12),%rdi
    20c0:	00 
    20c1:	e8 00 00 00 00       	callq  20c6 <e1000_free_tx_resources+0x46>
    20c6:	48 c7 03 00 00 00 00 	movq   $0x0,(%rbx)
    20cd:	5b                   	pop    %rbx
    20ce:	41 5c                	pop    %r12
    20d0:	5d                   	pop    %rbp
    20d1:	e9 00 00 00 00       	jmpq   20d6 <e1000_free_tx_resources+0x56>
    20d6:	66 2e 0f 1f 84 00 00 	nopw   %cs:0x0(%rax,%rax,1)
    20dd:	00 00 00 

00000000000020e0 <e1000_clean>:
    20e0:	e8 00 00 00 00       	callq  20e5 <e1000_clean+0x5>
    20e5:	55                   	push   %rbp
    20e6:	45 31 c0             	xor    %r8d,%r8d
    20e9:	48 89 e5             	mov    %rsp,%rbp
    20ec:	41 57                	push   %r15
    20ee:	49 89 ff             	mov    %rdi,%r15
    20f1:	41 56                	push   %r14
    20f3:	41 55                	push   %r13
    20f5:	41 54                	push   %r12
    20f7:	53                   	push   %rbx
    20f8:	48 83 ec 48          	sub    $0x48,%rsp
    20fc:	89 75 b4             	mov    %esi,-0x4c(%rbp)
    20ff:	4c 8b 77 90          	mov    -0x70(%rdi),%r14
    2103:	4c 8b a7 c8 01 00 00 	mov    0x1c8(%rdi),%r12
    210a:	49 8b 76 20          	mov    0x20(%r14),%rsi
    210e:	65 48 8b 04 25 28 00 	mov    %gs:0x28,%rax
    2115:	00 00 
    2117:	48 89 45 d0          	mov    %rax,-0x30(%rbp)
    211b:	31 c0                	xor    %eax,%eax
    211d:	48 8d 87 50 fd ff ff 	lea    -0x2b0(%rdi),%rax
    2124:	c7 45 cc 00 00 00 00 	movl   $0x0,-0x34(%rbp)
    212b:	48 89 45 a8          	mov    %rax,-0x58(%rbp)
    212f:	41 8b 46 1c          	mov    0x1c(%r14),%eax
    2133:	c7 45 c0 00 00 00 00 	movl   $0x0,-0x40(%rbp)
    213a:	48 89 c2             	mov    %rax,%rdx
    213d:	48 8d 04 80          	lea    (%rax,%rax,4),%rax
    2141:	c7 45 c4 00 00 00 00 	movl   $0x0,-0x3c(%rbp)
    2148:	48 8d 04 c6          	lea    (%rsi,%rax,8),%rax
    214c:	0f b7 78 1a          	movzwl 0x1a(%rax),%edi
    2150:	48 89 f8             	mov    %rdi,%rax
    2153:	89 7d b8             	mov    %edi,-0x48(%rbp)
    2156:	48 c1 e0 04          	shl    $0x4,%rax
    215a:	49 03 06             	add    (%r14),%rax
    215d:	8b 58 0c             	mov    0xc(%rax),%ebx
    2160:	49 89 c5             	mov    %rax,%r13
    2163:	83 e3 01             	and    $0x1,%ebx
    2166:	0f 84 3a 04 00 00    	je     25a6 <e1000_clean+0x4c6>
    216c:	31 db                	xor    %ebx,%ebx
    216e:	49 8d bf d0 01 00 00 	lea    0x1d0(%r15),%rdi
    2175:	4c 89 65 98          	mov    %r12,-0x68(%rbp)
    2179:	4c 89 7d 90          	mov    %r15,-0x70(%rbp)
    217d:	41 89 dc             	mov    %ebx,%r12d
    2180:	49 89 ff             	mov    %rdi,%r15
    2183:	45 3b 66 14          	cmp    0x14(%r14),%r12d
    2187:	0f 83 1d 03 00 00    	jae    24aa <e1000_clean+0x3ca>
    218d:	89 5d a0             	mov    %ebx,-0x60(%rbp)
    2190:	89 d0                	mov    %edx,%eax
    2192:	8d 5a 01             	lea    0x1(%rdx),%ebx
    2195:	41 83 c4 01          	add    $0x1,%r12d
    2199:	49 89 c5             	mov    %rax,%r13
    219c:	48 8d 0c 80          	lea    (%rax,%rax,4),%rcx
    21a0:	49 8b 46 20          	mov    0x20(%r14),%rax
    21a4:	49 c1 e5 04          	shl    $0x4,%r13
    21a8:	4d 03 2e             	add    (%r14),%r13
    21ab:	48 8d 34 c8          	lea    (%rax,%rcx,8),%rsi
    21af:	39 55 b8             	cmp    %edx,-0x48(%rbp)
    21b2:	74 1e                	je     21d2 <e1000_clean+0xf2>
    21b4:	4c 89 ff             	mov    %r15,%rdi
    21b7:	e8 74 fd ff ff       	callq  1f30 <e1000_unmap_and_free_tx_resource.isra.0>
    21bc:	41 c7 45 0c 00 00 00 	movl   $0x0,0xc(%r13)
    21c3:	00 
    21c4:	ba 00 00 00 00       	mov    $0x0,%edx
    21c9:	41 39 5e 14          	cmp    %ebx,0x14(%r14)
    21cd:	0f 45 d3             	cmovne %ebx,%edx
    21d0:	eb be                	jmp    2190 <e1000_clean+0xb0>
    21d2:	0f b7 56 1e          	movzwl 0x1e(%rsi),%edx
    21d6:	01 55 c0             	add    %edx,-0x40(%rbp)
    21d9:	48 8b 16             	mov    (%rsi),%rdx
    21dc:	8b 4d c4             	mov    -0x3c(%rbp),%ecx
    21df:	4c 89 6d b8          	mov    %r13,-0x48(%rbp)
    21e3:	41 89 dd             	mov    %ebx,%r13d
    21e6:	03 4e 20             	add    0x20(%rsi),%ecx
    21e9:	8b 5d a0             	mov    -0x60(%rbp),%ebx
    21ec:	89 4d c4             	mov    %ecx,-0x3c(%rbp)
    21ef:	48 85 d2             	test   %rdx,%rdx
    21f2:	74 03                	je     21f7 <e1000_clean+0x117>
    21f4:	03 5a 70             	add    0x70(%rdx),%ebx
    21f7:	4c 89 ff             	mov    %r15,%rdi
    21fa:	89 4d a0             	mov    %ecx,-0x60(%rbp)
    21fd:	e8 2e fd ff ff       	callq  1f30 <e1000_unmap_and_free_tx_resource.isra.0>
    2202:	48 8b 45 b8          	mov    -0x48(%rbp),%rax
    2206:	8b 4d a0             	mov    -0x60(%rbp),%ecx
    2209:	c7 40 0c 00 00 00 00 	movl   $0x0,0xc(%rax)
    2210:	45 39 6e 14          	cmp    %r13d,0x14(%r14)
    2214:	0f 84 87 02 00 00    	je     24a1 <e1000_clean+0x3c1>
    221a:	44 89 ea             	mov    %r13d,%edx
    221d:	48 8d 34 92          	lea    (%rdx,%rdx,4),%rsi
    2221:	44 89 ea             	mov    %r13d,%edx
    2224:	48 c1 e6 03          	shl    $0x3,%rsi
    2228:	4d 8b 46 20          	mov    0x20(%r14),%r8
    222c:	41 0f b7 44 30 1a    	movzwl 0x1a(%r8,%rsi,1),%eax
    2232:	49 89 c5             	mov    %rax,%r13
    2235:	89 45 b8             	mov    %eax,-0x48(%rbp)
    2238:	49 c1 e5 04          	shl    $0x4,%r13
    223c:	4d 03 2e             	add    (%r14),%r13
    223f:	41 f6 45 0c 01       	testb  $0x1,0xc(%r13)
    2244:	0f 85 39 ff ff ff    	jne    2183 <e1000_clean+0xa3>
    224a:	89 c8                	mov    %ecx,%eax
    224c:	41 89 d8             	mov    %ebx,%r8d
    224f:	44 89 e3             	mov    %r12d,%ebx
    2252:	4c 8b 65 98          	mov    -0x68(%rbp),%r12
    2256:	48 89 45 a0          	mov    %rax,-0x60(%rbp)
    225a:	8b 45 c0             	mov    -0x40(%rbp),%eax
    225d:	4c 8b 7d 90          	mov    -0x70(%rbp),%r15
    2261:	48 89 45 98          	mov    %rax,-0x68(%rbp)
    2265:	41 89 56 1c          	mov    %edx,0x1c(%r14)
    2269:	4d 8b 8c 24 00 04 00 	mov    0x400(%r12),%r9
    2270:	00 
    2271:	45 85 c0             	test   %r8d,%r8d
    2274:	74 3f                	je     22b5 <e1000_clean+0x1d5>
    2276:	49 8d b9 c0 00 00 00 	lea    0xc0(%r9),%rdi
    227d:	44 89 c6             	mov    %r8d,%esi
    2280:	4c 89 4d 90          	mov    %r9,-0x70(%rbp)
    2284:	e8 00 00 00 00       	callq  2289 <e1000_clean+0x1a9>
    2289:	f0 83 44 24 fc 00    	lock addl $0x0,-0x4(%rsp)
    228f:	4c 8b 4d 90          	mov    -0x70(%rbp),%r9
    2293:	41 8b 89 c4 00 00 00 	mov    0xc4(%r9),%ecx
    229a:	41 8b 91 c0 00 00 00 	mov    0xc0(%r9),%edx
    22a1:	39 d1                	cmp    %edx,%ecx
    22a3:	78 10                	js     22b5 <e1000_clean+0x1d5>
    22a5:	f0 49 0f ba b1 90 00 	lock btrq $0x1,0x90(%r9)
    22ac:	00 00 01 
    22af:	0f 82 16 02 00 00    	jb     24cb <e1000_clean+0x3eb>
    22b5:	85 db                	test   %ebx,%ebx
    22b7:	0f 85 1e 02 00 00    	jne    24db <e1000_clean+0x3fb>
    22bd:	41 0f b6 57 e1       	movzbl -0x1f(%r15),%edx
    22c2:	80 fa 01             	cmp    $0x1,%dl
    22c5:	0f 87 00 00 00 00    	ja     22cb <e1000_clean+0x1eb>
    22cb:	83 e2 01             	and    $0x1,%edx
    22ce:	74 3d                	je     230d <e1000_clean+0x22d>
    22d0:	8b 55 b8             	mov    -0x48(%rbp),%edx
    22d3:	41 c6 47 e1 00       	movb   $0x0,-0x1f(%r15)
    22d8:	49 8b 4e 20          	mov    0x20(%r14),%rcx
    22dc:	48 8d 14 92          	lea    (%rdx,%rdx,4),%rdx
    22e0:	48 c1 e2 03          	shl    $0x3,%rdx
    22e4:	48 8b 74 11 10       	mov    0x10(%rcx,%rdx,1),%rsi
    22e9:	48 85 f6             	test   %rsi,%rsi
    22ec:	74 1f                	je     230d <e1000_clean+0x22d>
    22ee:	41 0f b6 4f d8       	movzbl -0x28(%r15),%ecx
    22f3:	48 8b 3d 00 00 00 00 	mov    0x0(%rip),%rdi        # 22fa <e1000_clean+0x21a>
    22fa:	48 69 c9 fa 00 00 00 	imul   $0xfa,%rcx,%rcx
    2301:	48 29 f9             	sub    %rdi,%rcx
    2304:	48 01 f1             	add    %rsi,%rcx
    2307:	0f 88 5c 02 00 00    	js     2569 <e1000_clean+0x489>
    230d:	8b 45 c4             	mov    -0x3c(%rbp),%eax
    2310:	41 01 87 70 ff ff ff 	add    %eax,-0x90(%r15)
    2317:	48 8d 55 cc          	lea    -0x34(%rbp),%rdx
    231b:	8b 45 c0             	mov    -0x40(%rbp),%eax
    231e:	41 01 87 74 ff ff ff 	add    %eax,-0x8c(%r15)
    2325:	48 8b 45 a0          	mov    -0x60(%rbp),%rax
    2329:	49 01 84 24 40 01 00 	add    %rax,0x140(%r12)
    2330:	00 
    2331:	48 8b 45 98          	mov    -0x68(%rbp),%rax
    2335:	49 01 84 24 30 01 00 	add    %rax,0x130(%r12)
    233c:	00 
    233d:	45 8b 66 14          	mov    0x14(%r14),%r12d
    2341:	44 8b 75 b4          	mov    -0x4c(%rbp),%r14d
    2345:	49 8b 77 f8          	mov    -0x8(%r15),%rsi
    2349:	49 8b 47 e8          	mov    -0x18(%r15),%rax
    234d:	48 8b 7d a8          	mov    -0x58(%rbp),%rdi
    2351:	44 89 f1             	mov    %r14d,%ecx
    2354:	e8 00 00 00 00       	callq  2359 <e1000_clean+0x279>
    2359:	44 39 e3             	cmp    %r12d,%ebx
    235c:	0f 83 16 01 00 00    	jae    2478 <e1000_clean+0x398>
    2362:	8b 75 cc             	mov    -0x34(%rbp),%esi
    2365:	44 39 f6             	cmp    %r14d,%esi
    2368:	0f 84 0a 01 00 00    	je     2478 <e1000_clean+0x398>
    236e:	4c 89 ff             	mov    %r15,%rdi
    2371:	e8 00 00 00 00       	callq  2376 <e1000_clean+0x296>
    2376:	84 c0                	test   %al,%al
    2378:	0f 84 f4 00 00 00    	je     2472 <e1000_clean+0x392>
    237e:	45 8b 6f 84          	mov    -0x7c(%r15),%r13d
    2382:	41 f6 c5 03          	test   $0x3,%r13b
    2386:	0f 84 d7 00 00 00    	je     2463 <e1000_clean+0x383>
    238c:	41 83 bf f0 01 00 00 	cmpl   $0x4,0x1f0(%r15)
    2393:	04 
    2394:	45 8b 67 80          	mov    -0x80(%r15),%r12d
    2398:	0f 86 c5 00 00 00    	jbe    2463 <e1000_clean+0x383>
    239e:	66 41 81 bf 68 ff ff 	cmpw   $0x3e8,-0x98(%r15)
    23a5:	ff e8 03 
    23a8:	0f 85 35 02 00 00    	jne    25e3 <e1000_clean+0x503>
    23ae:	41 0f b7 77 88       	movzwl -0x78(%r15),%esi
    23b3:	41 8b 8f 70 ff ff ff 	mov    -0x90(%r15),%ecx
    23ba:	41 8b 97 74 ff ff ff 	mov    -0x8c(%r15),%edx
    23c1:	48 8b 7d a8          	mov    -0x58(%rbp),%rdi
    23c5:	e8 86 e0 ff ff       	callq  450 <e1000_update_itr>
    23ca:	41 83 fd 03          	cmp    $0x3,%r13d
    23ce:	66 41 89 47 88       	mov    %ax,-0x78(%r15)
    23d3:	0f b7 d8             	movzwl %ax,%ebx
    23d6:	41 0f 94 c5          	sete   %r13b
    23da:	66 85 c0             	test   %ax,%ax
    23dd:	75 09                	jne    23e8 <e1000_clean+0x308>
    23df:	45 84 ed             	test   %r13b,%r13b
    23e2:	0f 85 d3 01 00 00    	jne    25bb <e1000_clean+0x4db>
    23e8:	41 8b 97 7c ff ff ff 	mov    -0x84(%r15),%edx
    23ef:	41 0f b7 77 8a       	movzwl -0x76(%r15),%esi
    23f4:	41 8b 8f 78 ff ff ff 	mov    -0x88(%r15),%ecx
    23fb:	48 8b 7d a8          	mov    -0x58(%rbp),%rdi
    23ff:	e8 4c e0 ff ff       	callq  450 <e1000_update_itr>
    2404:	66 41 89 47 8a       	mov    %ax,-0x76(%r15)
    2409:	0f b7 d0             	movzwl %ax,%edx
    240c:	66 85 c0             	test   %ax,%ax
    240f:	75 09                	jne    241a <e1000_clean+0x33a>
    2411:	45 84 ed             	test   %r13b,%r13b
    2414:	0f 85 b5 01 00 00    	jne    25cf <e1000_clean+0x4ef>
    241a:	66 39 d3             	cmp    %dx,%bx
    241d:	48 0f 42 da          	cmovb  %rdx,%rbx
    2421:	66 83 fb 02          	cmp    $0x2,%bx
    2425:	77 3c                	ja     2463 <e1000_clean+0x383>
    2427:	8b 04 9d 00 00 00 00 	mov    0x0(,%rbx,4),%eax
    242e:	41 39 c4             	cmp    %eax,%r12d
    2431:	74 30                	je     2463 <e1000_clean+0x383>
    2433:	73 0f                	jae    2444 <e1000_clean+0x364>
    2435:	89 c2                	mov    %eax,%edx
    2437:	c1 ea 02             	shr    $0x2,%edx
    243a:	41 01 d4             	add    %edx,%r12d
    243d:	44 39 e0             	cmp    %r12d,%eax
    2440:	41 0f 47 c4          	cmova  %r12d,%eax
    2444:	41 89 47 80          	mov    %eax,-0x80(%r15)
    2448:	c1 e0 08             	shl    $0x8,%eax
    244b:	31 d2                	xor    %edx,%edx
    244d:	49 8b b7 d8 01 00 00 	mov    0x1d8(%r15),%rsi
    2454:	89 c1                	mov    %eax,%ecx
    2456:	b8 00 ca 9a 3b       	mov    $0x3b9aca00,%eax
    245b:	f7 f1                	div    %ecx
    245d:	89 86 c4 00 00 00    	mov    %eax,0xc4(%rsi)
    2463:	49 8b 87 c0 05 00 00 	mov    0x5c0(%r15),%rax
    246a:	a8 04                	test   $0x4,%al
    246c:	0f 84 d6 00 00 00    	je     2548 <e1000_clean+0x468>
    2472:	8b 45 cc             	mov    -0x34(%rbp),%eax
    2475:	89 45 b4             	mov    %eax,-0x4c(%rbp)
    2478:	48 8b 45 d0          	mov    -0x30(%rbp),%rax
    247c:	65 48 33 04 25 28 00 	xor    %gs:0x28,%rax
    2483:	00 00 
    2485:	0f 85 62 01 00 00    	jne    25ed <e1000_clean+0x50d>
    248b:	8b 45 b4             	mov    -0x4c(%rbp),%eax
    248e:	48 8d 65 d8          	lea    -0x28(%rbp),%rsp
    2492:	5b                   	pop    %rbx
    2493:	41 5c                	pop    %r12
    2495:	41 5d                	pop    %r13
    2497:	41 5e                	pop    %r14
    2499:	41 5f                	pop    %r15
    249b:	5d                   	pop    %rbp
    249c:	e9 00 00 00 00       	jmpq   24a1 <e1000_clean+0x3c1>
    24a1:	31 f6                	xor    %esi,%esi
    24a3:	31 d2                	xor    %edx,%edx
    24a5:	e9 7e fd ff ff       	jmpq   2228 <e1000_clean+0x148>
    24aa:	8b 45 c4             	mov    -0x3c(%rbp),%eax
    24ad:	41 89 d8             	mov    %ebx,%r8d
    24b0:	4c 8b 7d 90          	mov    -0x70(%rbp),%r15
    24b4:	44 89 e3             	mov    %r12d,%ebx
    24b7:	4c 8b 65 98          	mov    -0x68(%rbp),%r12
    24bb:	48 89 45 a0          	mov    %rax,-0x60(%rbp)
    24bf:	8b 45 c0             	mov    -0x40(%rbp),%eax
    24c2:	48 89 45 98          	mov    %rax,-0x68(%rbp)
    24c6:	e9 9a fd ff ff       	jmpq   2265 <e1000_clean+0x185>
    24cb:	4c 89 cf             	mov    %r9,%rdi
    24ce:	e8 00 00 00 00       	callq  24d3 <e1000_clean+0x3f3>
    24d3:	85 db                	test   %ebx,%ebx
    24d5:	0f 84 e2 fd ff ff    	je     22bd <e1000_clean+0x1dd>
    24db:	49 8b 54 24 38       	mov    0x38(%r12),%rdx
    24e0:	83 e2 04             	and    $0x4,%edx
    24e3:	0f 85 d4 fd ff ff    	jne    22bd <e1000_clean+0x1dd>
    24e9:	41 8b 56 1c          	mov    0x1c(%r14),%edx
    24ed:	41 8b 4e 18          	mov    0x18(%r14),%ecx
    24f1:	31 f6                	xor    %esi,%esi
    24f3:	39 ca                	cmp    %ecx,%edx
    24f5:	77 04                	ja     24fb <e1000_clean+0x41b>
    24f7:	41 8b 76 14          	mov    0x14(%r14),%esi
    24fb:	83 ea 01             	sub    $0x1,%edx
    24fe:	29 ca                	sub    %ecx,%edx
    2500:	01 f2                	add    %esi,%edx
    2502:	83 fa 1f             	cmp    $0x1f,%edx
    2505:	0f 86 b2 fd ff ff    	jbe    22bd <e1000_clean+0x1dd>
    250b:	f0 83 44 24 fc 00    	lock addl $0x0,-0x4(%rsp)
    2511:	49 8b bc 24 00 04 00 	mov    0x400(%r12),%rdi
    2518:	00 
    2519:	48 8b 97 90 00 00 00 	mov    0x90(%rdi),%rdx
    2520:	83 e2 01             	and    $0x1,%edx
    2523:	0f 84 94 fd ff ff    	je     22bd <e1000_clean+0x1dd>
    2529:	49 8b 97 c0 05 00 00 	mov    0x5c0(%r15),%rdx
    2530:	80 e2 04             	and    $0x4,%dl
    2533:	0f 85 84 fd ff ff    	jne    22bd <e1000_clean+0x1dd>
    2539:	e8 00 00 00 00       	callq  253e <e1000_clean+0x45e>
    253e:	41 83 47 98 01       	addl   $0x1,-0x68(%r15)
    2543:	e9 75 fd ff ff       	jmpq   22bd <e1000_clean+0x1dd>
    2548:	49 8b 97 d8 01 00 00 	mov    0x1d8(%r15),%rdx
    254f:	b8 9d 00 00 00       	mov    $0x9d,%eax
    2554:	89 82 d0 00 00 00    	mov    %eax,0xd0(%rdx)
    255a:	49 8b 87 d8 01 00 00 	mov    0x1d8(%r15),%rax
    2561:	8b 40 08             	mov    0x8(%rax),%eax
    2564:	e9 09 ff ff ff       	jmpq   2472 <e1000_clean+0x392>
    2569:	49 8b 8f d8 01 00 00 	mov    0x1d8(%r15),%rcx
    2570:	8b 49 08             	mov    0x8(%rcx),%ecx
    2573:	83 e1 10             	and    $0x10,%ecx
    2576:	0f 85 91 fd ff ff    	jne    230d <e1000_clean+0x22d>
    257c:	41 8b 8f b8 05 00 00 	mov    0x5b8(%r15),%ecx
    2583:	f6 c1 01             	test   $0x1,%cl
    2586:	0f 85 ba 00 00 00    	jne    2646 <e1000_clean+0x566>
    258c:	80 e5 20             	and    $0x20,%ch
    258f:	75 61                	jne    25f2 <e1000_clean+0x512>
    2591:	49 8b 84 24 00 04 00 	mov    0x400(%r12),%rax
    2598:	00 
    2599:	f0 80 88 90 00 00 00 	lock orb $0x1,0x90(%rax)
    25a0:	01 
    25a1:	e9 67 fd ff ff       	jmpq   230d <e1000_clean+0x22d>
    25a6:	48 c7 45 98 00 00 00 	movq   $0x0,-0x68(%rbp)
    25ad:	00 
    25ae:	48 c7 45 a0 00 00 00 	movq   $0x0,-0x60(%rbp)
    25b5:	00 
    25b6:	e9 aa fc ff ff       	jmpq   2265 <e1000_clean+0x185>
    25bb:	ba 01 00 00 00       	mov    $0x1,%edx
    25c0:	bb 01 00 00 00       	mov    $0x1,%ebx
    25c5:	66 41 89 57 88       	mov    %dx,-0x78(%r15)
    25ca:	e9 19 fe ff ff       	jmpq   23e8 <e1000_clean+0x308>
    25cf:	b8 01 00 00 00       	mov    $0x1,%eax
    25d4:	ba 01 00 00 00       	mov    $0x1,%edx
    25d9:	66 41 89 47 8a       	mov    %ax,-0x76(%r15)
    25de:	e9 37 fe ff ff       	jmpq   241a <e1000_clean+0x33a>
    25e3:	b8 a0 0f 00 00       	mov    $0xfa0,%eax
    25e8:	e9 41 fe ff ff       	jmpq   242e <e1000_clean+0x34e>
    25ed:	e8 00 00 00 00       	callq  25f2 <e1000_clean+0x512>
    25f2:	4d 8b 5f 90          	mov    -0x70(%r15),%r11
    25f6:	49 8b 47 f8          	mov    -0x8(%r15),%rax
    25fa:	48 8b 7d a8          	mov    -0x58(%rbp),%rdi
    25fe:	4c 89 5d b8          	mov    %r11,-0x48(%rbp)
    2602:	48 89 45 90          	mov    %rax,-0x70(%rbp)
    2606:	e8 35 da ff ff       	callq  40 <e1000_regdump>
    260b:	48 c7 c7 00 00 00 00 	mov    $0x0,%rdi
    2612:	e8 00 00 00 00       	callq  2617 <e1000_clean+0x537>
    2617:	48 c7 c7 00 00 00 00 	mov    $0x0,%rdi
    261e:	e8 00 00 00 00       	callq  2623 <e1000_clean+0x543>
    2623:	48 c7 c7 00 00 00 00 	mov    $0x0,%rdi
    262a:	e8 00 00 00 00       	callq  262f <e1000_clean+0x54f>
    262f:	41 f6 87 b9 05 00 00 	testb  $0x4,0x5b9(%r15)
    2636:	04 
    2637:	4c 8b 5d b8          	mov    -0x48(%rbp),%r11
    263b:	0f 85 00 00 00 00    	jne    2641 <e1000_clean+0x561>
    2641:	e9 00 00 00 00       	jmpq   2646 <e1000_clean+0x566>
    2646:	49 8b 4e 20          	mov    0x20(%r14),%rcx
    264a:	41 0f b6 75 0c       	movzbl 0xc(%r13),%esi
    264f:	48 8b 05 00 00 00 00 	mov    0x0(%rip),%rax        # 2656 <e1000_clean+0x576>
    2656:	45 8b 56 1c          	mov    0x1c(%r14),%r10d
    265a:	4c 8b 5c 11 10       	mov    0x10(%rcx,%rdx,1),%r11
    265f:	45 8b 4e 18          	mov    0x18(%r14),%r9d
    2663:	41 0f b7 56 2a       	movzwl 0x2a(%r14),%edx
    2668:	49 03 97 d8 01 00 00 	add    0x1d8(%r15),%rdx
    266f:	44 8b 02             	mov    (%rdx),%r8d
    2672:	41 0f b7 56 28       	movzwl 0x28(%r14),%edx
    2677:	49 03 97 d8 01 00 00 	add    0x1d8(%r15),%rdx
    267e:	8b 0a                	mov    (%rdx),%ecx
    2680:	48 bf ab aa aa aa aa 	movabs $0xaaaaaaaaaaaaaaab,%rdi
    2687:	aa aa aa 
    268a:	4c 89 f2             	mov    %r14,%rdx
    268d:	49 2b 57 90          	sub    -0x70(%r15),%rdx
    2691:	48 c1 fa 04          	sar    $0x4,%rdx
    2695:	48 0f af d7          	imul   %rdi,%rdx
    2699:	49 8b bf c8 01 00 00 	mov    0x1c8(%r15),%rdi
    26a0:	56                   	push   %rsi
    26a1:	48 c7 c6 00 00 00 00 	mov    $0x0,%rsi
    26a8:	50                   	push   %rax
    26a9:	8b 45 b8             	mov    -0x48(%rbp),%eax
    26ac:	50                   	push   %rax
    26ad:	41 53                	push   %r11
    26af:	41 52                	push   %r10
    26b1:	e8 00 00 00 00       	callq  26b6 <e1000_clean+0x5d6>
    26b6:	41 8b 8f b8 05 00 00 	mov    0x5b8(%r15),%ecx
    26bd:	48 83 c4 28          	add    $0x28,%rsp
    26c1:	e9 c6 fe ff ff       	jmpq   258c <e1000_clean+0x4ac>
    26c6:	66 2e 0f 1f 84 00 00 	nopw   %cs:0x0(%rax,%rax,1)
    26cd:	00 00 00 

00000000000026d0 <e1000_xmit_frame>:
    26d0:	e8 00 00 00 00       	callq  26d5 <e1000_xmit_frame+0x5>
    26d5:	55                   	push   %rbp
    26d6:	49 89 fb             	mov    %rdi,%r11
    26d9:	48 89 e5             	mov    %rsp,%rbp
    26dc:	41 57                	push   %r15
    26de:	41 56                	push   %r14
    26e0:	41 55                	push   %r13
    26e2:	41 54                	push   %r12
    26e4:	53                   	push   %rbx
    26e5:	48 83 ec 70          	sub    $0x70,%rsp
    26e9:	8b 5f 70             	mov    0x70(%rdi),%ebx
    26ec:	44 8b 6f 74          	mov    0x74(%rdi),%r13d
    26f0:	48 89 75 b8          	mov    %rsi,-0x48(%rbp)
    26f4:	44 0f b7 8f b0 00 00 	movzwl 0xb0(%rdi),%r9d
    26fb:	00 
    26fc:	65 48 8b 04 25 28 00 	mov    %gs:0x28,%rax
    2703:	00 00 
    2705:	48 89 45 d0          	mov    %rax,-0x30(%rbp)
    2709:	31 c0                	xor    %eax,%eax
    270b:	66 41 81 f9 81 00    	cmp    $0x81,%r9w
    2711:	0f 84 ce 00 00 00    	je     27e5 <e1000_xmit_frame+0x115>
    2717:	89 d8                	mov    %ebx,%eax
    2719:	66 41 81 f9 88 a8    	cmp    $0xa888,%r9w
    271f:	0f 84 c0 00 00 00    	je     27e5 <e1000_xmit_frame+0x115>
    2725:	48 8b 7d b8          	mov    -0x48(%rbp),%rdi
    2729:	48 8b bf c0 0b 00 00 	mov    0xbc0(%rdi),%rdi
    2730:	48 89 7d c0          	mov    %rdi,-0x40(%rbp)
    2734:	83 f8 3b             	cmp    $0x3b,%eax
    2737:	0f 86 a1 05 00 00    	jbe    2cde <e1000_xmit_frame+0x60e>
    273d:	41 8b 43 74          	mov    0x74(%r11),%eax
    2741:	41 8b 93 bc 00 00 00 	mov    0xbc(%r11),%edx
    2748:	44 29 eb             	sub    %r13d,%ebx
    274b:	89 45 8c             	mov    %eax,-0x74(%rbp)
    274e:	49 8b 83 c0 00 00 00 	mov    0xc0(%r11),%rax
    2755:	44 0f b7 7c 10 04    	movzwl 0x4(%rax,%rdx,1),%r15d
    275b:	45 85 ff             	test   %r15d,%r15d
    275e:	0f 84 ff 00 00 00    	je     2863 <e1000_xmit_frame+0x193>
    2764:	42 8d 3c bd 00 00 00 	lea    0x0(,%r15,4),%edi
    276b:	00 
    276c:	ba 00 10 00 00       	mov    $0x1000,%edx
    2771:	b9 ff ff ff ff       	mov    $0xffffffff,%ecx
    2776:	81 ff 00 10 00 00    	cmp    $0x1000,%edi
    277c:	0f 46 d7             	cmovbe %edi,%edx
    277f:	0f bd ca             	bsr    %edx,%ecx
    2782:	89 55 a4             	mov    %edx,-0x5c(%rbp)
    2785:	8b 55 8c             	mov    -0x74(%rbp),%edx
    2788:	41 89 ce             	mov    %ecx,%r14d
    278b:	85 d2                	test   %edx,%edx
    278d:	0f 84 e5 05 00 00    	je     2d78 <e1000_xmit_frame+0x6a8>
    2793:	41 0f b7 93 b2 00 00 	movzwl 0xb2(%r11),%edx
    279a:	00 
    279b:	48 01 c2             	add    %rax,%rdx
    279e:	48 89 d6             	mov    %rdx,%rsi
    27a1:	0f b6 52 0c          	movzbl 0xc(%rdx),%edx
    27a5:	49 2b b3 c8 00 00 00 	sub    0xc8(%r11),%rsi
    27ac:	c0 ea 04             	shr    $0x4,%dl
    27af:	8d 14 96             	lea    (%rsi,%rdx,4),%edx
    27b2:	0f b6 d2             	movzbl %dl,%edx
    27b5:	39 da                	cmp    %ebx,%edx
    27b7:	0f 84 73 0d 00 00    	je     3530 <e1000_xmit_frame+0xe60>
    27bd:	b8 01 00 00 00       	mov    $0x1,%eax
    27c2:	44 89 7d 8c          	mov    %r15d,-0x74(%rbp)
    27c6:	41 bf 02 00 00 00    	mov    $0x2,%r15d
    27cc:	d3 e0                	shl    %cl,%eax
    27ce:	41 89 c4             	mov    %eax,%r12d
    27d1:	44 8d 6c 03 ff       	lea    -0x1(%rbx,%rax,1),%r13d
    27d6:	41 83 fe 1f          	cmp    $0x1f,%r14d
    27da:	0f 86 ca 00 00 00    	jbe    28aa <e1000_xmit_frame+0x1da>
    27e0:	e9 00 00 00 00       	jmpq   27e5 <e1000_xmit_frame+0x115>
    27e5:	41 0f b7 43 78       	movzwl 0x78(%r11),%eax
    27ea:	85 c0                	test   %eax,%eax
    27ec:	0f 84 d4 04 00 00    	je     2cc6 <e1000_xmit_frame+0x5f6>
    27f2:	44 8d 60 fc          	lea    -0x4(%rax),%r12d
    27f6:	83 f8 03             	cmp    $0x3,%eax
    27f9:	0f 86 25 0f 00 00    	jbe    3724 <e1000_xmit_frame+0x1054>
    27ff:	45 8d 74 24 1c       	lea    0x1c(%r12),%r14d
    2804:	44 89 e9             	mov    %r13d,%ecx
    2807:	89 d8                	mov    %ebx,%eax
    2809:	4d 89 df             	mov    %r11,%r15
    280c:	89 c7                	mov    %eax,%edi
    280e:	49 8b 97 c8 00 00 00 	mov    0xc8(%r15),%rdx
    2815:	29 cf                	sub    %ecx,%edi
    2817:	89 f9                	mov    %edi,%ecx
    2819:	44 29 e1             	sub    %r12d,%ecx
    281c:	83 f9 03             	cmp    $0x3,%ecx
    281f:	0f 8e 29 0c 00 00    	jle    344e <e1000_xmit_frame+0xd7e>
    2825:	49 63 cc             	movslq %r12d,%rcx
    2828:	48 01 ca             	add    %rcx,%rdx
    282b:	0f 84 61 0c 00 00    	je     3492 <e1000_xmit_frame+0xdc2>
    2831:	45 39 f4             	cmp    %r14d,%r12d
    2834:	0f 84 3a 0c 00 00    	je     3474 <e1000_xmit_frame+0xda4>
    283a:	44 0f b7 4a 02       	movzwl 0x2(%rdx),%r9d
    283f:	41 8b 47 70          	mov    0x70(%r15),%eax
    2843:	66 41 81 f9 81 00    	cmp    $0x81,%r9w
    2849:	0f 84 82 04 00 00    	je     2cd1 <e1000_xmit_frame+0x601>
    284f:	66 41 81 f9 88 a8    	cmp    $0xa888,%r9w
    2855:	0f 84 76 04 00 00    	je     2cd1 <e1000_xmit_frame+0x601>
    285b:	4d 89 fb             	mov    %r15,%r11
    285e:	e9 c2 fe ff ff       	jmpq   2725 <e1000_xmit_frame+0x55>
    2863:	41 0f b6 83 80 00 00 	movzbl 0x80(%r11),%eax
    286a:	00 
    286b:	45 31 ff             	xor    %r15d,%r15d
    286e:	8b 55 8c             	mov    -0x74(%rbp),%edx
    2871:	44 8d ab ff 0f 00 00 	lea    0xfff(%rbx),%r13d
    2878:	83 e0 60             	and    $0x60,%eax
    287b:	3c 60                	cmp    $0x60,%al
    287d:	41 0f 94 c7          	sete   %r15b
    2881:	41 8d 47 01          	lea    0x1(%r15),%eax
    2885:	85 d2                	test   %edx,%edx
    2887:	0f 84 2e 05 00 00    	je     2dbb <e1000_xmit_frame+0x6eb>
    288d:	c7 45 8c 00 00 00 00 	movl   $0x0,-0x74(%rbp)
    2894:	41 89 c7             	mov    %eax,%r15d
    2897:	41 bc 00 10 00 00    	mov    $0x1000,%r12d
    289d:	41 be 0c 00 00 00    	mov    $0xc,%r14d
    28a3:	c7 45 a4 00 10 00 00 	movl   $0x1000,-0x5c(%rbp)
    28aa:	48 8b 45 b8          	mov    -0x48(%rbp),%rax
    28ae:	44 89 f1             	mov    %r14d,%ecx
    28b1:	41 d3 ed             	shr    %cl,%r13d
    28b4:	45 01 fd             	add    %r15d,%r13d
    28b7:	44 0f b6 b8 10 0c 00 	movzbl 0xc10(%rax),%r15d
    28be:	00 
    28bf:	41 80 ff 01          	cmp    $0x1,%r15b
    28c3:	0f 87 00 00 00 00    	ja     28c9 <e1000_xmit_frame+0x1f9>
    28c9:	48 8b 45 b8          	mov    -0x48(%rbp),%rax
    28cd:	41 83 e7 01          	and    $0x1,%r15d
    28d1:	41 80 ff 01          	cmp    $0x1,%r15b
    28d5:	41 83 dd ff          	sbb    $0xffffffff,%r13d
    28d9:	83 b8 54 0e 00 00 02 	cmpl   $0x2,0xe54(%rax)
    28e0:	75 0f                	jne    28f1 <e1000_xmit_frame+0x221>
    28e2:	81 fb df 07 00 00    	cmp    $0x7df,%ebx
    28e8:	0f 97 c0             	seta   %al
    28eb:	3c 01                	cmp    $0x1,%al
    28ed:	41 83 dd ff          	sbb    $0xffffffff,%r13d
    28f1:	41 8b 83 bc 00 00 00 	mov    0xbc(%r11),%eax
    28f8:	49 8b 93 c0 00 00 00 	mov    0xc0(%r11),%rdx
    28ff:	0f b6 7c 02 02       	movzbl 0x2(%rdx,%rax,1),%edi
    2904:	89 7d a0             	mov    %edi,-0x60(%rbp)
    2907:	85 ff                	test   %edi,%edi
    2909:	74 53                	je     295e <e1000_xmit_frame+0x28e>
    290b:	44 8d 7f ff          	lea    -0x1(%rdi),%r15d
    290f:	44 89 f2             	mov    %r14d,%edx
    2912:	44 89 f1             	mov    %r14d,%ecx
    2915:	bb 30 00 00 00       	mov    $0x30,%ebx
    291a:	49 83 c7 04          	add    $0x4,%r15
    291e:	41 8d 44 24 ff       	lea    -0x1(%r12),%eax
    2923:	45 89 ce             	mov    %r9d,%r14d
    2926:	49 c1 e7 04          	shl    $0x4,%r15
    292a:	83 f9 1f             	cmp    $0x1f,%ecx
    292d:	0f 87 00 00 00 00    	ja     2933 <e1000_xmit_frame+0x263>
    2933:	49 8b b3 c0 00 00 00 	mov    0xc0(%r11),%rsi
    293a:	41 8b bb bc 00 00 00 	mov    0xbc(%r11),%edi
    2941:	48 01 de             	add    %rbx,%rsi
    2944:	44 8b 64 37 08       	mov    0x8(%rdi,%rsi,1),%r12d
    2949:	41 01 c4             	add    %eax,%r12d
    294c:	41 d3 ec             	shr    %cl,%r12d
    294f:	48 83 c3 10          	add    $0x10,%rbx
    2953:	45 01 e5             	add    %r12d,%r13d
    2956:	49 39 df             	cmp    %rbx,%r15
    2959:	75 cf                	jne    292a <e1000_xmit_frame+0x25a>
    295b:	45 89 f1             	mov    %r14d,%r9d
    295e:	48 8b 45 b8          	mov    -0x48(%rbp),%rax
    2962:	0f b6 98 10 0c 00 00 	movzbl 0xc10(%rax),%ebx
    2969:	80 fb 01             	cmp    $0x1,%bl
    296c:	0f 87 00 00 00 00    	ja     2972 <e1000_xmit_frame+0x2a2>
    2972:	8b 45 a0             	mov    -0x60(%rbp),%eax
    2975:	48 8b 75 c0          	mov    -0x40(%rbp),%rsi
    2979:	4c 89 5d a8          	mov    %r11,-0x58(%rbp)
    297d:	48 8b 7d b8          	mov    -0x48(%rbp),%rdi
    2981:	44 89 4d b0          	mov    %r9d,-0x50(%rbp)
    2985:	44 01 e8             	add    %r13d,%eax
    2988:	83 e3 01             	and    $0x1,%ebx
    298b:	44 0f 45 e8          	cmovne %eax,%r13d
    298f:	41 8d 55 02          	lea    0x2(%r13),%edx
    2993:	e8 a8 db ff ff       	callq  540 <e1000_maybe_stop_tx>
    2998:	44 8b 4d b0          	mov    -0x50(%rbp),%r9d
    299c:	4c 8b 5d a8          	mov    -0x58(%rbp),%r11
    29a0:	85 c0                	test   %eax,%eax
    29a2:	89 85 74 ff ff ff    	mov    %eax,-0x8c(%rbp)
    29a8:	0f 85 73 0b 00 00    	jne    3521 <e1000_xmit_frame+0xe51>
    29ae:	48 8b 45 b8          	mov    -0x48(%rbp),%rax
    29b2:	83 b8 20 0e 00 00 0d 	cmpl   $0xd,0xe20(%rax)
    29b9:	0f 84 d8 0a 00 00    	je     3497 <e1000_xmit_frame+0xdc7>
    29bf:	c7 45 88 00 00 00 00 	movl   $0x0,-0x78(%rbp)
    29c6:	41 f6 83 82 00 00 00 	testb  $0x1,0x82(%r11)
    29cd:	01 
    29ce:	74 11                	je     29e1 <e1000_xmit_frame+0x311>
    29d0:	41 0f b7 83 9a 00 00 	movzwl 0x9a(%r11),%eax
    29d7:	00 
    29d8:	c1 e0 10             	shl    $0x10,%eax
    29db:	83 c8 02             	or     $0x2,%eax
    29de:	89 45 88             	mov    %eax,-0x78(%rbp)
    29e1:	48 8b 45 c0          	mov    -0x40(%rbp),%rax
    29e5:	49 8b bb c0 00 00 00 	mov    0xc0(%r11),%rdi
    29ec:	8b 40 18             	mov    0x18(%rax),%eax
    29ef:	89 85 70 ff ff ff    	mov    %eax,-0x90(%rbp)
    29f5:	41 8b 83 bc 00 00 00 	mov    0xbc(%r11),%eax
    29fc:	48 01 f8             	add    %rdi,%rax
    29ff:	0f b7 58 04          	movzwl 0x4(%rax),%ebx
    2a03:	66 85 db             	test   %bx,%bx
    2a06:	0f 85 e5 08 00 00    	jne    32f1 <e1000_xmit_frame+0xc21>
    2a0c:	41 0f b6 83 80 00 00 	movzbl 0x80(%r11),%eax
    2a13:	00 
    2a14:	44 8b a5 70 ff ff ff 	mov    -0x90(%rbp),%r12d
    2a1b:	83 e0 60             	and    $0x60,%eax
    2a1e:	3c 60                	cmp    $0x60,%al
    2a20:	0f 85 c3 00 00 00    	jne    2ae9 <e1000_xmit_frame+0x419>
    2a26:	66 41 83 f9 08       	cmp    $0x8,%r9w
    2a2b:	0f 84 ec 0b 00 00    	je     361d <e1000_xmit_frame+0xf4d>
    2a31:	66 41 81 f9 86 dd    	cmp    $0xdd86,%r9w
    2a37:	0f 84 ab 0d 00 00    	je     37e8 <e1000_xmit_frame+0x1118>
    2a3d:	4c 89 5d a8          	mov    %r11,-0x58(%rbp)
    2a41:	44 89 4d b0          	mov    %r9d,-0x50(%rbp)
    2a45:	e8 00 00 00 00       	callq  2a4a <e1000_xmit_frame+0x37a>
    2a4a:	44 8b 4d b0          	mov    -0x50(%rbp),%r9d
    2a4e:	4c 8b 5d a8          	mov    -0x58(%rbp),%r11
    2a52:	85 c0                	test   %eax,%eax
    2a54:	0f 85 c0 0d 00 00    	jne    381a <e1000_xmit_frame+0x114a>
    2a5a:	48 8b 45 c0          	mov    -0x40(%rbp),%rax
    2a5e:	49 8b bb c0 00 00 00 	mov    0xc0(%r11),%rdi
    2a65:	b9 00 00 00 20       	mov    $0x20000000,%ecx
    2a6a:	44 8b 60 18          	mov    0x18(%rax),%r12d
    2a6e:	48 8b 5d c0          	mov    -0x40(%rbp),%rbx
    2a72:	41 0f b7 83 88 00 00 	movzwl 0x88(%r11),%eax
    2a79:	00 
    2a7a:	41 2b 83 c8 00 00 00 	sub    0xc8(%r11),%eax
    2a81:	48 8b 73 20          	mov    0x20(%rbx),%rsi
    2a85:	8d 14 38             	lea    (%rax,%rdi,1),%edx
    2a88:	44 89 e0             	mov    %r12d,%eax
    2a8b:	48 8d 3c 80          	lea    (%rax,%rax,4),%rdi
    2a8f:	48 c1 e0 04          	shl    $0x4,%rax
    2a93:	48 03 03             	add    (%rbx),%rax
    2a96:	c7 00 00 00 00 00    	movl   $0x0,(%rax)
    2a9c:	48 8d 34 fe          	lea    (%rsi,%rdi,8),%rsi
    2aa0:	48 89 df             	mov    %rbx,%rdi
    2aa3:	31 db                	xor    %ebx,%ebx
    2aa5:	88 50 04             	mov    %dl,0x4(%rax)
    2aa8:	41 02 93 8a 00 00 00 	add    0x8a(%r11),%dl
    2aaf:	88 50 05             	mov    %dl,0x5(%rax)
    2ab2:	66 89 58 06          	mov    %bx,0x6(%rax)
    2ab6:	c7 40 0c 00 00 00 00 	movl   $0x0,0xc(%rax)
    2abd:	89 48 08             	mov    %ecx,0x8(%rax)
    2ac0:	48 8b 05 00 00 00 00 	mov    0x0(%rip),%rax        # 2ac7 <e1000_xmit_frame+0x3f7>
    2ac7:	66 44 89 66 1a       	mov    %r12w,0x1a(%rsi)
    2acc:	41 83 c4 01          	add    $0x1,%r12d
    2ad0:	48 89 46 10          	mov    %rax,0x10(%rsi)
    2ad4:	b8 00 00 00 00       	mov    $0x0,%eax
    2ad9:	44 3b 67 14          	cmp    0x14(%rdi),%r12d
    2add:	44 0f 44 e0          	cmove  %eax,%r12d
    2ae1:	83 4d 88 01          	orl    $0x1,-0x78(%rbp)
    2ae5:	44 89 67 18          	mov    %r12d,0x18(%rdi)
    2ae9:	8b 7d 88             	mov    -0x78(%rbp),%edi
    2aec:	41 8b 4b 74          	mov    0x74(%r11),%ecx
    2af0:	45 8b 6b 70          	mov    0x70(%r11),%r13d
    2af4:	89 f8                	mov    %edi,%eax
    2af6:	83 c8 08             	or     $0x8,%eax
    2af9:	66 41 83 f9 08       	cmp    $0x8,%r9w
    2afe:	0f 45 c7             	cmovne %edi,%eax
    2b01:	89 c7                	mov    %eax,%edi
    2b03:	83 c8 10             	or     $0x10,%eax
    2b06:	41 f6 83 81 00 00 00 	testb  $0x10,0x81(%r11)
    2b0d:	10 
    2b0e:	0f 44 c7             	cmove  %edi,%eax
    2b11:	89 45 88             	mov    %eax,-0x78(%rbp)
    2b14:	48 8b 45 b8          	mov    -0x48(%rbp),%rax
    2b18:	48 8b b8 00 0e 00 00 	mov    0xe00(%rax),%rdi
    2b1f:	48 89 bd 68 ff ff ff 	mov    %rdi,-0x98(%rbp)
    2b26:	41 29 cd             	sub    %ecx,%r13d
    2b29:	0f 84 91 0a 00 00    	je     35c0 <e1000_xmit_frame+0xef0>
    2b2f:	44 8b 4d 8c          	mov    -0x74(%rbp),%r9d
    2b33:	44 8b 55 a0          	mov    -0x60(%rbp),%r10d
    2b37:	c7 45 a8 00 00 00 00 	movl   $0x0,-0x58(%rbp)
    2b3e:	45 85 c9             	test   %r9d,%r9d
    2b41:	0f 95 c2             	setne  %dl
    2b44:	45 85 d2             	test   %r10d,%r10d
    2b47:	0f 94 c0             	sete   %al
    2b4a:	45 31 ff             	xor    %r15d,%r15d
    2b4d:	21 c2                	and    %eax,%edx
    2b4f:	48 8d 87 d0 00 00 00 	lea    0xd0(%rdi),%rax
    2b56:	44 89 7d 90          	mov    %r15d,-0x70(%rbp)
    2b5a:	4d 89 df             	mov    %r11,%r15
    2b5d:	88 95 78 ff ff ff    	mov    %dl,-0x88(%rbp)
    2b63:	48 89 45 80          	mov    %rax,-0x80(%rbp)
    2b67:	48 8b 7d c0          	mov    -0x40(%rbp),%rdi
    2b6b:	44 89 e0             	mov    %r12d,%eax
    2b6e:	48 8d 14 80          	lea    (%rax,%rax,4),%rdx
    2b72:	48 8b 47 20          	mov    0x20(%rdi),%rax
    2b76:	48 8d 1c d0          	lea    (%rax,%rdx,8),%rbx
    2b7a:	8b 45 a4             	mov    -0x5c(%rbp),%eax
    2b7d:	44 39 e8             	cmp    %r13d,%eax
    2b80:	41 89 c6             	mov    %eax,%r14d
    2b83:	45 0f 47 f5          	cmova  %r13d,%r14d
    2b87:	85 c9                	test   %ecx,%ecx
    2b89:	75 32                	jne    2bbd <e1000_xmit_frame+0x4ed>
    2b8b:	0f b6 47 2c          	movzbl 0x2c(%rdi),%eax
    2b8f:	3c 01                	cmp    $0x1,%al
    2b91:	0f 87 00 00 00 00    	ja     2b97 <e1000_xmit_frame+0x4c7>
    2b97:	a8 01                	test   $0x1,%al
    2b99:	74 22                	je     2bbd <e1000_xmit_frame+0x4ed>
    2b9b:	41 8b 87 bc 00 00 00 	mov    0xbc(%r15),%eax
    2ba2:	49 8b 97 c0 00 00 00 	mov    0xc0(%r15),%rdx
    2ba9:	66 83 7c 02 04 00    	cmpw   $0x0,0x4(%rdx,%rax,1)
    2baf:	75 0c                	jne    2bbd <e1000_xmit_frame+0x4ed>
    2bb1:	48 8b 45 c0          	mov    -0x40(%rbp),%rax
    2bb5:	41 83 ee 04          	sub    $0x4,%r14d
    2bb9:	c6 40 2c 00          	movb   $0x0,0x2c(%rax)
    2bbd:	80 bd 78 ff ff ff 00 	cmpb   $0x0,-0x88(%rbp)
    2bc4:	0f 85 80 06 00 00    	jne    324a <e1000_xmit_frame+0xb7a>
    2bca:	48 8b 45 b8          	mov    -0x48(%rbp),%rax
    2bce:	83 b8 54 0e 00 00 02 	cmpl   $0x2,0xe54(%rax)
    2bd5:	0f 84 9a 06 00 00    	je     3275 <e1000_xmit_frame+0xba5>
    2bdb:	44 89 f1             	mov    %r14d,%ecx
    2bde:	48 8b 45 b8          	mov    -0x48(%rbp),%rax
    2be2:	0f b6 80 10 0c 00 00 	movzbl 0xc10(%rax),%eax
    2be9:	3c 01                	cmp    $0x1,%al
    2beb:	0f 87 00 00 00 00    	ja     2bf1 <e1000_xmit_frame+0x521>
    2bf1:	8b 55 90             	mov    -0x70(%rbp),%edx
    2bf4:	a8 01                	test   $0x1,%al
    2bf6:	0f 85 24 06 00 00    	jne    3220 <e1000_xmit_frame+0xb50>
    2bfc:	48 8b 05 00 00 00 00 	mov    0x0(%rip),%rax        # 2c03 <e1000_xmit_frame+0x533>
    2c03:	66 44 89 73 18       	mov    %r14w,0x18(%rbx)
    2c08:	c6 43 1c 00          	movb   $0x0,0x1c(%rbx)
    2c0c:	48 89 43 10          	mov    %rax,0x10(%rbx)
    2c10:	49 03 97 c8 00 00 00 	add    0xc8(%r15),%rdx
    2c17:	48 89 d7             	mov    %rdx,%rdi
    2c1a:	48 89 4d 98          	mov    %rcx,-0x68(%rbp)
    2c1e:	48 89 55 b0          	mov    %rdx,-0x50(%rbp)
    2c22:	e8 00 00 00 00       	callq  2c27 <e1000_xmit_frame+0x557>
    2c27:	48 8b 55 b0          	mov    -0x50(%rbp),%rdx
    2c2b:	48 8b 4d 98          	mov    -0x68(%rbp),%rcx
    2c2f:	84 c0                	test   %al,%al
    2c31:	0f 85 5f 05 00 00    	jne    3196 <e1000_xmit_frame+0xac6>
    2c37:	49 89 d2             	mov    %rdx,%r10
    2c3a:	b8 00 00 00 80       	mov    $0x80000000,%eax
    2c3f:	41 81 e2 ff 0f 00 00 	and    $0xfff,%r10d
    2c46:	48 01 c2             	add    %rax,%rdx
    2c49:	0f 82 bf 0b 00 00    	jb     380e <e1000_xmit_frame+0x113e>
    2c4f:	48 c7 c6 00 00 00 80 	mov    $0xffffffff80000000,%rsi
    2c56:	48 2b 35 00 00 00 00 	sub    0x0(%rip),%rsi        # 2c5d <e1000_xmit_frame+0x58d>
    2c5d:	48 01 d6             	add    %rdx,%rsi
    2c60:	48 8b 7d 80          	mov    -0x80(%rbp),%rdi
    2c64:	45 31 c9             	xor    %r9d,%r9d
    2c67:	41 b8 01 00 00 00    	mov    $0x1,%r8d
    2c6d:	48 c1 ee 0c          	shr    $0xc,%rsi
    2c71:	4c 89 d2             	mov    %r10,%rdx
    2c74:	48 c1 e6 06          	shl    $0x6,%rsi
    2c78:	48 03 35 00 00 00 00 	add    0x0(%rip),%rsi        # 2c7f <e1000_xmit_frame+0x5af>
    2c7f:	e8 00 00 00 00       	callq  2c84 <e1000_xmit_frame+0x5b4>
    2c84:	48 89 43 08          	mov    %rax,0x8(%rbx)
    2c88:	48 83 f8 ff          	cmp    $0xffffffffffffffff,%rax
    2c8c:	0f 84 b7 0b 00 00    	je     3849 <e1000_xmit_frame+0x1179>
    2c92:	83 45 a8 01          	addl   $0x1,-0x58(%rbp)
    2c96:	66 44 89 63 1a       	mov    %r12w,0x1a(%rbx)
    2c9b:	45 29 f5             	sub    %r14d,%r13d
    2c9e:	0f 84 2c 01 00 00    	je     2dd0 <e1000_xmit_frame+0x700>
    2ca4:	48 8b 45 c0          	mov    -0x40(%rbp),%rax
    2ca8:	41 83 c4 01          	add    $0x1,%r12d
    2cac:	41 8b 4f 74          	mov    0x74(%r15),%ecx
    2cb0:	44 3b 60 14          	cmp    0x14(%rax),%r12d
    2cb4:	b8 00 00 00 00       	mov    $0x0,%eax
    2cb9:	44 0f 44 e0          	cmove  %eax,%r12d
    2cbd:	44 01 75 90          	add    %r14d,-0x70(%rbp)
    2cc1:	e9 a1 fe ff ff       	jmpq   2b67 <e1000_xmit_frame+0x497>
    2cc6:	41 bc 0e 00 00 00    	mov    $0xe,%r12d
    2ccc:	e9 2e fb ff ff       	jmpq   27ff <e1000_xmit_frame+0x12f>
    2cd1:	41 8b 4f 74          	mov    0x74(%r15),%ecx
    2cd5:	41 83 c4 04          	add    $0x4,%r12d
    2cd9:	e9 2e fb ff ff       	jmpq   280c <e1000_xmit_frame+0x13c>
    2cde:	41 bc 3c 00 00 00    	mov    $0x3c,%r12d
    2ce4:	4c 89 df             	mov    %r11,%rdi
    2ce7:	ba 01 00 00 00       	mov    $0x1,%edx
    2cec:	44 89 4d a8          	mov    %r9d,-0x58(%rbp)
    2cf0:	41 29 c4             	sub    %eax,%r12d
    2cf3:	4c 89 5d b0          	mov    %r11,-0x50(%rbp)
    2cf7:	44 89 e6             	mov    %r12d,%esi
    2cfa:	e8 00 00 00 00       	callq  2cff <e1000_xmit_frame+0x62f>
    2cff:	4c 8b 5d b0          	mov    -0x50(%rbp),%r11
    2d03:	44 8b 4d a8          	mov    -0x58(%rbp),%r9d
    2d07:	85 c0                	test   %eax,%eax
    2d09:	0f 85 f8 03 00 00    	jne    3107 <e1000_xmit_frame+0xa37>
    2d0f:	41 8b 4b 74          	mov    0x74(%r11),%ecx
    2d13:	41 8b 83 b8 00 00 00 	mov    0xb8(%r11),%eax
    2d1a:	85 c9                	test   %ecx,%ecx
    2d1c:	0f 85 c4 0a 00 00    	jne    37e6 <e1000_xmit_frame+0x1116>
    2d22:	44 01 e0             	add    %r12d,%eax
    2d25:	49 8b 93 c0 00 00 00 	mov    0xc0(%r11),%rdx
    2d2c:	45 01 63 70          	add    %r12d,0x70(%r11)
    2d30:	44 29 eb             	sub    %r13d,%ebx
    2d33:	41 89 83 b8 00 00 00 	mov    %eax,0xb8(%r11)
    2d3a:	41 8b 83 bc 00 00 00 	mov    0xbc(%r11),%eax
    2d41:	0f b7 44 02 04       	movzwl 0x4(%rdx,%rax,1),%eax
    2d46:	89 45 8c             	mov    %eax,-0x74(%rbp)
    2d49:	85 c0                	test   %eax,%eax
    2d4b:	0f 84 7b 08 00 00    	je     35cc <e1000_xmit_frame+0xefc>
    2d51:	44 8b 7d 8c          	mov    -0x74(%rbp),%r15d
    2d55:	b8 00 10 00 00       	mov    $0x1000,%eax
    2d5a:	41 be ff ff ff ff    	mov    $0xffffffff,%r14d
    2d60:	42 8d 34 bd 00 00 00 	lea    0x0(,%r15,4),%esi
    2d67:	00 
    2d68:	81 fe 00 10 00 00    	cmp    $0x1000,%esi
    2d6e:	0f 46 c6             	cmovbe %esi,%eax
    2d71:	44 0f bd f0          	bsr    %eax,%r14d
    2d75:	89 45 a4             	mov    %eax,-0x5c(%rbp)
    2d78:	b8 01 00 00 00       	mov    $0x1,%eax
    2d7d:	44 89 f1             	mov    %r14d,%ecx
    2d80:	44 89 7d 8c          	mov    %r15d,-0x74(%rbp)
    2d84:	d3 e0                	shl    %cl,%eax
    2d86:	41 89 c4             	mov    %eax,%r12d
    2d89:	44 8d 6c 03 ff       	lea    -0x1(%rbx,%rax,1),%r13d
    2d8e:	b8 02 00 00 00       	mov    $0x2,%eax
    2d93:	41 bf 01 00 00 00    	mov    $0x1,%r15d
    2d99:	48 8b 7d c0          	mov    -0x40(%rbp),%rdi
    2d9d:	0f b6 57 2c          	movzbl 0x2c(%rdi),%edx
    2da1:	80 fa 01             	cmp    $0x1,%dl
    2da4:	0f 87 00 00 00 00    	ja     2daa <e1000_xmit_frame+0x6da>
    2daa:	83 e2 01             	and    $0x1,%edx
    2dad:	0f 85 7a 06 00 00    	jne    342d <e1000_xmit_frame+0xd5d>
    2db3:	41 89 c7             	mov    %eax,%r15d
    2db6:	e9 1b fa ff ff       	jmpq   27d6 <e1000_xmit_frame+0x106>
    2dbb:	c7 45 a4 00 10 00 00 	movl   $0x1000,-0x5c(%rbp)
    2dc2:	41 bc 00 10 00 00    	mov    $0x1000,%r12d
    2dc8:	41 be 0c 00 00 00    	mov    $0xc,%r14d
    2dce:	eb c9                	jmp    2d99 <e1000_xmit_frame+0x6c9>
    2dd0:	4d 89 fb             	mov    %r15,%r11
    2dd3:	8b 7d a0             	mov    -0x60(%rbp),%edi
    2dd6:	41 8b 93 bc 00 00 00 	mov    0xbc(%r11),%edx
    2ddd:	49 8b 8b c0 00 00 00 	mov    0xc0(%r11),%rcx
    2de4:	85 ff                	test   %edi,%edi
    2de6:	0f 84 cb 07 00 00    	je     35b7 <e1000_xmit_frame+0xee7>
    2dec:	48 8b 85 68 ff ff ff 	mov    -0x98(%rbp),%rax
    2df3:	31 ff                	xor    %edi,%edi
    2df5:	4c 89 9d 78 ff ff ff 	mov    %r11,-0x88(%rbp)
    2dfc:	49 89 fb             	mov    %rdi,%r11
    2dff:	48 05 d0 00 00 00    	add    $0xd0,%rax
    2e05:	48 89 45 90          	mov    %rax,-0x70(%rbp)
    2e09:	4c 89 de             	mov    %r11,%rsi
    2e0c:	48 8d 04 11          	lea    (%rcx,%rdx,1),%rax
    2e10:	48 c1 e6 04          	shl    $0x4,%rsi
    2e14:	4c 8d 54 30 30       	lea    0x30(%rax,%rsi,1),%r10
    2e19:	45 8b 72 08          	mov    0x8(%r10),%r14d
    2e1d:	45 85 f6             	test   %r14d,%r14d
    2e20:	0f 84 e7 00 00 00    	je     2f0d <e1000_xmit_frame+0x83d>
    2e26:	48 8b 45 90          	mov    -0x70(%rbp),%rax
    2e2a:	4c 89 5d 98          	mov    %r11,-0x68(%rbp)
    2e2e:	45 31 ff             	xor    %r15d,%r15d
    2e31:	4d 89 d3             	mov    %r10,%r11
    2e34:	48 89 45 80          	mov    %rax,-0x80(%rbp)
    2e38:	48 8b 45 c0          	mov    -0x40(%rbp),%rax
    2e3c:	41 83 c4 01          	add    $0x1,%r12d
    2e40:	44 3b 60 14          	cmp    0x14(%rax),%r12d
    2e44:	0f 84 f3 02 00 00    	je     313d <e1000_xmit_frame+0xa6d>
    2e4a:	44 89 e0             	mov    %r12d,%eax
    2e4d:	48 8d 1c 80          	lea    (%rax,%rax,4),%rbx
    2e51:	48 c1 e3 03          	shl    $0x3,%rbx
    2e55:	48 8b 45 c0          	mov    -0x40(%rbp),%rax
    2e59:	8b 75 8c             	mov    -0x74(%rbp),%esi
    2e5c:	48 03 58 20          	add    0x20(%rax),%rbx
    2e60:	8b 45 a4             	mov    -0x5c(%rbp),%eax
    2e63:	41 39 c6             	cmp    %eax,%r14d
    2e66:	41 89 c5             	mov    %eax,%r13d
    2e69:	45 0f 46 ee          	cmovbe %r14d,%r13d
    2e6d:	85 f6                	test   %esi,%esi
    2e6f:	0f 85 f2 02 00 00    	jne    3167 <e1000_xmit_frame+0xa97>
    2e75:	48 8b 45 b8          	mov    -0x48(%rbp),%rax
    2e79:	0f b6 80 10 0c 00 00 	movzbl 0xc10(%rax),%eax
    2e80:	3c 01                	cmp    $0x1,%al
    2e82:	0f 87 00 00 00 00    	ja     2e88 <e1000_xmit_frame+0x7b8>
    2e88:	a8 01                	test   $0x1,%al
    2e8a:	0f 85 b7 02 00 00    	jne    3147 <e1000_xmit_frame+0xa77>
    2e90:	66 44 89 6b 18       	mov    %r13w,0x18(%rbx)
    2e95:	48 8b 7d 90          	mov    -0x70(%rbp),%rdi
    2e99:	44 89 e9             	mov    %r13d,%ecx
    2e9c:	45 31 c9             	xor    %r9d,%r9d
    2e9f:	48 8b 05 00 00 00 00 	mov    0x0(%rip),%rax        # 2ea6 <e1000_xmit_frame+0x7d6>
    2ea6:	c6 43 1c 01          	movb   $0x1,0x1c(%rbx)
    2eaa:	41 b8 01 00 00 00    	mov    $0x1,%r8d
    2eb0:	4c 89 5d b0          	mov    %r11,-0x50(%rbp)
    2eb4:	48 89 43 10          	mov    %rax,0x10(%rbx)
    2eb8:	41 8b 53 0c          	mov    0xc(%r11),%edx
    2ebc:	44 89 f8             	mov    %r15d,%eax
    2ebf:	49 8b 33             	mov    (%r11),%rsi
    2ec2:	48 01 c2             	add    %rax,%rdx
    2ec5:	e8 00 00 00 00       	callq  2eca <e1000_xmit_frame+0x7fa>
    2eca:	48 89 43 08          	mov    %rax,0x8(%rbx)
    2ece:	48 83 f8 ff          	cmp    $0xffffffffffffffff,%rax
    2ed2:	0f 84 79 09 00 00    	je     3851 <e1000_xmit_frame+0x1181>
    2ed8:	83 45 a8 01          	addl   $0x1,-0x58(%rbp)
    2edc:	45 01 ef             	add    %r13d,%r15d
    2edf:	45 29 ee             	sub    %r13d,%r14d
    2ee2:	4c 8b 5d b0          	mov    -0x50(%rbp),%r11
    2ee6:	66 44 89 63 1a       	mov    %r12w,0x1a(%rbx)
    2eeb:	0f 85 47 ff ff ff    	jne    2e38 <e1000_xmit_frame+0x768>
    2ef1:	48 8b 85 78 ff ff ff 	mov    -0x88(%rbp),%rax
    2ef8:	4c 8b 5d 98          	mov    -0x68(%rbp),%r11
    2efc:	48 8b 88 c0 00 00 00 	mov    0xc0(%rax),%rcx
    2f03:	8b 90 bc 00 00 00    	mov    0xbc(%rax),%edx
    2f09:	48 8d 04 11          	lea    (%rcx,%rdx,1),%rax
    2f0d:	49 83 c3 01          	add    $0x1,%r11
    2f11:	44 39 5d a0          	cmp    %r11d,-0x60(%rbp)
    2f15:	0f 87 ee fe ff ff    	ja     2e09 <e1000_xmit_frame+0x739>
    2f1b:	4c 8b 9d 78 ff ff ff 	mov    -0x88(%rbp),%r11
    2f22:	66 83 78 06 00       	cmpw   $0x0,0x6(%rax)
    2f27:	b9 01 00 00 00       	mov    $0x1,%ecx
    2f2c:	66 0f 45 48 06       	cmovne 0x6(%rax),%cx
    2f31:	41 8b 73 70          	mov    0x70(%r11),%esi
    2f35:	48 8b 7d c0          	mov    -0x40(%rbp),%rdi
    2f39:	0f b7 c1             	movzwl %cx,%eax
    2f3c:	89 f2                	mov    %esi,%edx
    2f3e:	83 e8 01             	sub    $0x1,%eax
    2f41:	41 2b 53 74          	sub    0x74(%r11),%edx
    2f45:	0f af d0             	imul   %eax,%edx
    2f48:	44 89 e0             	mov    %r12d,%eax
    2f4b:	48 8d 04 80          	lea    (%rax,%rax,4),%rax
    2f4f:	48 c1 e0 03          	shl    $0x3,%rax
    2f53:	01 f2                	add    %esi,%edx
    2f55:	48 8b 77 20          	mov    0x20(%rdi),%rsi
    2f59:	4c 89 1c 06          	mov    %r11,(%rsi,%rax,1)
    2f5d:	48 8b 77 20          	mov    0x20(%rdi),%rsi
    2f61:	66 89 4c 06 1e       	mov    %cx,0x1e(%rsi,%rax,1)
    2f66:	48 8b 4f 20          	mov    0x20(%rdi),%rcx
    2f6a:	89 54 01 20          	mov    %edx,0x20(%rcx,%rax,1)
    2f6e:	8b 85 70 ff ff ff    	mov    -0x90(%rbp),%eax
    2f74:	8b 4d a8             	mov    -0x58(%rbp),%ecx
    2f77:	48 8d 1c 80          	lea    (%rax,%rax,4),%rbx
    2f7b:	48 8b 47 20          	mov    0x20(%rdi),%rax
    2f7f:	48 c1 e3 03          	shl    $0x3,%rbx
    2f83:	66 44 89 64 18 1a    	mov    %r12w,0x1a(%rax,%rbx,1)
    2f89:	85 c9                	test   %ecx,%ecx
    2f8b:	0f 84 60 02 00 00    	je     31f1 <e1000_xmit_frame+0xb21>
    2f91:	48 8b 45 b8          	mov    -0x48(%rbp),%rax
    2f95:	41 8b 53 70          	mov    0x70(%r11),%edx
    2f99:	48 8b 80 00 04 00 00 	mov    0x400(%rax),%rax
    2fa0:	81 fa ff ff ff 0f    	cmp    $0xfffffff,%edx
    2fa6:	0f 87 84 07 00 00    	ja     3730 <e1000_xmit_frame+0x1060>
    2fac:	89 90 c8 00 00 00    	mov    %edx,0xc8(%rax)
    2fb2:	01 90 c0 00 00 00    	add    %edx,0xc0(%rax)
    2fb8:	8b 88 c4 00 00 00    	mov    0xc4(%rax),%ecx
    2fbe:	8b 90 c0 00 00 00    	mov    0xc0(%rax),%edx
    2fc4:	39 d1                	cmp    %edx,%ecx
    2fc6:	0f 88 eb 07 00 00    	js     37b7 <e1000_xmit_frame+0x10e7>
    2fcc:	4c 89 df             	mov    %r11,%rdi
    2fcf:	4c 89 5d b0          	mov    %r11,-0x50(%rbp)
    2fd3:	e8 00 00 00 00       	callq  2fd8 <e1000_xmit_frame+0x908>
    2fd8:	4c 8b 5d b0          	mov    -0x50(%rbp),%r11
    2fdc:	41 8b 83 bc 00 00 00 	mov    0xbc(%r11),%eax
    2fe3:	49 8b 93 c0 00 00 00 	mov    0xc0(%r11),%rdx
    2fea:	f6 44 02 03 02       	testb  $0x2,0x3(%rdx,%rax,1)
    2fef:	0f 85 8e 04 00 00    	jne    3483 <e1000_xmit_frame+0xdb3>
    2ff5:	8b 45 88             	mov    -0x78(%rbp),%eax
    2ff8:	a8 04                	test   $0x4,%al
    2ffa:	0f 84 ab 07 00 00    	je     37ab <e1000_xmit_frame+0x10db>
    3000:	83 e0 08             	and    $0x8,%eax
    3003:	bf 00 00 10 26       	mov    $0x26100000,%edi
    3008:	83 f8 01             	cmp    $0x1,%eax
    300b:	19 f6                	sbb    %esi,%esi
    300d:	40 30 f6             	xor    %sil,%sil
    3010:	81 c6 00 03 00 00    	add    $0x300,%esi
    3016:	f6 45 88 01          	testb  $0x1,-0x78(%rbp)
    301a:	74 0c                	je     3028 <e1000_xmit_frame+0x958>
    301c:	81 cf 00 00 10 20    	or     $0x20100000,%edi
    3022:	81 ce 00 02 00 00    	or     $0x200,%esi
    3028:	f6 45 88 02          	testb  $0x2,-0x78(%rbp)
    302c:	0f 85 66 07 00 00    	jne    3798 <e1000_xmit_frame+0x10c8>
    3032:	44 8b 45 88          	mov    -0x78(%rbp),%r8d
    3036:	4c 8b 5d c0          	mov    -0x40(%rbp),%r11
    303a:	89 f8                	mov    %edi,%eax
    303c:	44 8b 4d a8          	mov    -0x58(%rbp),%r9d
    3040:	25 ff ff ff fd       	and    $0xfdffffff,%eax
    3045:	41 8b 53 18          	mov    0x18(%r11),%edx
    3049:	41 83 e0 10          	and    $0x10,%r8d
    304d:	0f 45 f8             	cmovne %eax,%edi
    3050:	41 83 e9 01          	sub    $0x1,%r9d
    3054:	45 31 d2             	xor    %r10d,%r10d
    3057:	49 8b 4b 20          	mov    0x20(%r11),%rcx
    305b:	89 d0                	mov    %edx,%eax
    305d:	83 c2 01             	add    $0x1,%edx
    3060:	48 8d 1c 80          	lea    (%rax,%rax,4),%rbx
    3064:	48 c1 e0 04          	shl    $0x4,%rax
    3068:	49 03 03             	add    (%r11),%rax
    306b:	48 8d 0c d9          	lea    (%rcx,%rbx,8),%rcx
    306f:	48 8b 59 08          	mov    0x8(%rcx),%rbx
    3073:	48 89 18             	mov    %rbx,(%rax)
    3076:	0f b7 49 18          	movzwl 0x18(%rcx),%ecx
    307a:	89 70 0c             	mov    %esi,0xc(%rax)
    307d:	09 f9                	or     %edi,%ecx
    307f:	89 48 08             	mov    %ecx,0x8(%rax)
    3082:	41 3b 53 14          	cmp    0x14(%r11),%edx
    3086:	41 0f 44 d2          	cmove  %r10d,%edx
    308a:	41 83 e9 01          	sub    $0x1,%r9d
    308e:	41 83 f9 ff          	cmp    $0xffffffff,%r9d
    3092:	75 c3                	jne    3057 <e1000_xmit_frame+0x987>
    3094:	48 8b 7d b8          	mov    -0x48(%rbp),%rdi
    3098:	0b 8f cc 0b 00 00    	or     0xbcc(%rdi),%ecx
    309e:	89 ce                	mov    %ecx,%esi
    30a0:	81 e6 ff ff ff fd    	and    $0xfdffffff,%esi
    30a6:	45 85 c0             	test   %r8d,%r8d
    30a9:	0f 45 ce             	cmovne %esi,%ecx
    30ac:	89 48 08             	mov    %ecx,0x8(%rax)
    30af:	48 8b 45 c0          	mov    -0x40(%rbp),%rax
    30b3:	89 50 18             	mov    %edx,0x18(%rax)
    30b6:	0f b6 9f 10 0c 00 00 	movzbl 0xc10(%rdi),%ebx
    30bd:	80 fb 01             	cmp    $0x1,%bl
    30c0:	0f 87 00 00 00 00    	ja     30c6 <e1000_xmit_frame+0x9f6>
    30c6:	83 e3 01             	and    $0x1,%ebx
    30c9:	48 8b 75 c0          	mov    -0x40(%rbp),%rsi
    30cd:	80 fb 01             	cmp    $0x1,%bl
    30d0:	48 8b 5d b8          	mov    -0x48(%rbp),%rbx
    30d4:	19 d2                	sbb    %edx,%edx
    30d6:	83 e2 ee             	and    $0xffffffee,%edx
    30d9:	48 89 df             	mov    %rbx,%rdi
    30dc:	83 c2 2a             	add    $0x2a,%edx
    30df:	e8 5c d4 ff ff       	callq  540 <e1000_maybe_stop_tx>
    30e4:	65 8a 05 00 00 00 00 	mov    %gs:0x0(%rip),%al        # 30eb <e1000_xmit_frame+0xa1b>
    30eb:	84 c0                	test   %al,%al
    30ed:	0f 84 1d 03 00 00    	je     3410 <e1000_xmit_frame+0xd40>
    30f3:	48 8b 83 00 04 00 00 	mov    0x400(%rbx),%rax
    30fa:	f6 80 90 00 00 00 03 	testb  $0x3,0x90(%rax)
    3101:	0f 85 09 03 00 00    	jne    3410 <e1000_xmit_frame+0xd40>
    3107:	c7 85 74 ff ff ff 00 	movl   $0x0,-0x8c(%rbp)
    310e:	00 00 00 
    3111:	48 8b 45 d0          	mov    -0x30(%rbp),%rax
    3115:	65 48 33 04 25 28 00 	xor    %gs:0x28,%rax
    311c:	00 00 
    311e:	0f 85 20 07 00 00    	jne    3844 <e1000_xmit_frame+0x1174>
    3124:	8b 85 74 ff ff ff    	mov    -0x8c(%rbp),%eax
    312a:	48 83 c4 70          	add    $0x70,%rsp
    312e:	5b                   	pop    %rbx
    312f:	41 5c                	pop    %r12
    3131:	41 5d                	pop    %r13
    3133:	41 5e                	pop    %r14
    3135:	41 5f                	pop    %r15
    3137:	5d                   	pop    %rbp
    3138:	e9 00 00 00 00       	jmpq   313d <e1000_xmit_frame+0xa6d>
    313d:	31 db                	xor    %ebx,%ebx
    313f:	45 31 e4             	xor    %r12d,%r12d
    3142:	e9 0e fd ff ff       	jmpq   2e55 <e1000_xmit_frame+0x785>
    3147:	43 8d 44 2f ff       	lea    -0x1(%r15,%r13,1),%eax
    314c:	a8 04                	test   $0x4,%al
    314e:	0f 85 3c fd ff ff    	jne    2e90 <e1000_xmit_frame+0x7c0>
    3154:	41 83 fd 04          	cmp    $0x4,%r13d
    3158:	0f 86 32 fd ff ff    	jbe    2e90 <e1000_xmit_frame+0x7c0>
    315e:	41 83 ed 04          	sub    $0x4,%r13d
    3162:	e9 29 fd ff ff       	jmpq   2e90 <e1000_xmit_frame+0x7c0>
    3167:	8b 45 a0             	mov    -0x60(%rbp),%eax
    316a:	83 e8 01             	sub    $0x1,%eax
    316d:	3b 45 98             	cmp    -0x68(%rbp),%eax
    3170:	0f 85 ff fc ff ff    	jne    2e75 <e1000_xmit_frame+0x7a5>
    3176:	44 3b 75 a4          	cmp    -0x5c(%rbp),%r14d
    317a:	0f 87 f5 fc ff ff    	ja     2e75 <e1000_xmit_frame+0x7a5>
    3180:	41 83 fd 08          	cmp    $0x8,%r13d
    3184:	41 8d 45 fc          	lea    -0x4(%r13),%eax
    3188:	0f 97 c2             	seta   %dl
    318b:	84 d2                	test   %dl,%dl
    318d:	44 0f 45 e8          	cmovne %eax,%r13d
    3191:	e9 df fc ff ff       	jmpq   2e75 <e1000_xmit_frame+0x7a5>
    3196:	44 0f b6 2d 00 00 00 	movzbl 0x0(%rip),%r13d        # 319e <e1000_xmit_frame+0xace>
    319d:	00 
    319e:	4d 89 fb             	mov    %r15,%r11
    31a1:	41 80 fd 01          	cmp    $0x1,%r13b
    31a5:	0f 87 00 00 00 00    	ja     31ab <e1000_xmit_frame+0xadb>
    31ab:	41 83 e5 01          	and    $0x1,%r13d
    31af:	0f 84 ea 00 00 00    	je     329f <e1000_xmit_frame+0xbcf>
    31b5:	48 c7 43 08 ff ff ff 	movq   $0xffffffffffffffff,0x8(%rbx)
    31bc:	ff 
    31bd:	48 8b 7d 80          	mov    -0x80(%rbp),%rdi
    31c1:	48 c7 c6 00 00 00 00 	mov    $0x0,%rsi
    31c8:	4c 89 5d b0          	mov    %r11,-0x50(%rbp)
    31cc:	e8 00 00 00 00       	callq  31d1 <e1000_xmit_frame+0xb01>
    31d1:	48 c7 43 08 00 00 00 	movq   $0x0,0x8(%rbx)
    31d8:	00 
    31d9:	8b 9d 70 ff ff ff    	mov    -0x90(%rbp),%ebx
    31df:	4c 8b 5d b0          	mov    -0x50(%rbp),%r11
    31e3:	48 6b db 28          	imul   $0x28,%rbx,%rbx
    31e7:	83 7d a8 00          	cmpl   $0x0,-0x58(%rbp)
    31eb:	0f 85 00 00 00 00    	jne    31f1 <e1000_xmit_frame+0xb21>
    31f1:	4c 89 df             	mov    %r11,%rdi
    31f4:	be 01 00 00 00       	mov    $0x1,%esi
    31f9:	e8 00 00 00 00       	callq  31fe <e1000_xmit_frame+0xb2e>
    31fe:	48 8b 7d c0          	mov    -0x40(%rbp),%rdi
    3202:	48 8b 47 20          	mov    0x20(%rdi),%rax
    3206:	48 c7 44 18 10 00 00 	movq   $0x0,0x10(%rax,%rbx,1)
    320d:	00 00 
    320f:	48 89 f8             	mov    %rdi,%rax
    3212:	8b bd 70 ff ff ff    	mov    -0x90(%rbp),%edi
    3218:	89 78 18             	mov    %edi,0x18(%rax)
    321b:	e9 f1 fe ff ff       	jmpq   3111 <e1000_xmit_frame+0xa41>
    3220:	48 8d 44 11 ff       	lea    -0x1(%rcx,%rdx,1),%rax
    3225:	49 03 87 c8 00 00 00 	add    0xc8(%r15),%rax
    322c:	a8 04                	test   $0x4,%al
    322e:	0f 85 c8 f9 ff ff    	jne    2bfc <e1000_xmit_frame+0x52c>
    3234:	41 83 fe 04          	cmp    $0x4,%r14d
    3238:	0f 86 be f9 ff ff    	jbe    2bfc <e1000_xmit_frame+0x52c>
    323e:	41 8d 4e fc          	lea    -0x4(%r14),%ecx
    3242:	49 89 ce             	mov    %rcx,%r14
    3245:	e9 b2 f9 ff ff       	jmpq   2bfc <e1000_xmit_frame+0x52c>
    324a:	45 39 ee             	cmp    %r13d,%r14d
    324d:	0f 85 77 f9 ff ff    	jne    2bca <e1000_xmit_frame+0x4fa>
    3253:	41 83 fe 08          	cmp    $0x8,%r14d
    3257:	41 8d 46 fc          	lea    -0x4(%r14),%eax
    325b:	0f 97 c2             	seta   %dl
    325e:	84 d2                	test   %dl,%dl
    3260:	44 0f 45 f0          	cmovne %eax,%r14d
    3264:	48 8b 45 b8          	mov    -0x48(%rbp),%rax
    3268:	83 b8 54 0e 00 00 02 	cmpl   $0x2,0xe54(%rax)
    326f:	0f 85 66 f9 ff ff    	jne    2bdb <e1000_xmit_frame+0x50b>
    3275:	41 81 fe df 07 00 00 	cmp    $0x7df,%r14d
    327c:	0f 86 59 f9 ff ff    	jbe    2bdb <e1000_xmit_frame+0x50b>
    3282:	44 8b 45 a8          	mov    -0x58(%rbp),%r8d
    3286:	45 85 c0             	test   %r8d,%r8d
    3289:	0f 85 4c f9 ff ff    	jne    2bdb <e1000_xmit_frame+0x50b>
    328f:	b9 df 07 00 00       	mov    $0x7df,%ecx
    3294:	41 be df 07 00 00    	mov    $0x7df,%r14d
    329a:	e9 3f f9 ff ff       	jmpq   2bde <e1000_xmit_frame+0x50e>
    329f:	48 8b 85 68 ff ff ff 	mov    -0x98(%rbp),%rax
    32a6:	c6 05 00 00 00 00 01 	movb   $0x1,0x0(%rip)        # 32ad <e1000_xmit_frame+0xbdd>
    32ad:	4c 8b a8 20 01 00 00 	mov    0x120(%rax),%r13
    32b4:	4d 85 ed             	test   %r13,%r13
    32b7:	75 0e                	jne    32c7 <e1000_xmit_frame+0xbf7>
    32b9:	48 8b 85 68 ff ff ff 	mov    -0x98(%rbp),%rax
    32c0:	4c 8b a8 d0 00 00 00 	mov    0xd0(%rax),%r13
    32c7:	48 8b 7d 80          	mov    -0x80(%rbp),%rdi
    32cb:	4c 89 5d b0          	mov    %r11,-0x50(%rbp)
    32cf:	e8 00 00 00 00       	callq  32d4 <e1000_xmit_frame+0xc04>
    32d4:	4c 89 ea             	mov    %r13,%rdx
    32d7:	48 c7 c7 00 00 00 00 	mov    $0x0,%rdi
    32de:	48 89 c6             	mov    %rax,%rsi
    32e1:	e8 00 00 00 00       	callq  32e6 <e1000_xmit_frame+0xc16>
    32e6:	0f 0b                	ud2    
    32e8:	4c 8b 5d b0          	mov    -0x50(%rbp),%r11
    32ec:	e9 c4 fe ff ff       	jmpq   31b5 <e1000_xmit_frame+0xae5>
    32f1:	41 f6 43 7e 01       	testb  $0x1,0x7e(%r11)
    32f6:	74 14                	je     330c <e1000_xmit_frame+0xc3c>
    32f8:	8b 50 20             	mov    0x20(%rax),%edx
    32fb:	0f b7 ca             	movzwl %dx,%ecx
    32fe:	c1 fa 10             	sar    $0x10,%edx
    3301:	29 d1                	sub    %edx,%ecx
    3303:	83 f9 01             	cmp    $0x1,%ecx
    3306:	0f 85 37 03 00 00    	jne    3643 <e1000_xmit_frame+0xf73>
    330c:	45 0f b7 ab b2 00 00 	movzwl 0xb2(%r11),%r13d
    3313:	00 
    3314:	49 8b b3 c8 00 00 00 	mov    0xc8(%r11),%rsi
    331b:	49 01 fd             	add    %rdi,%r13
    331e:	41 0f b6 55 0c       	movzbl 0xc(%r13),%edx
    3323:	4c 89 e9             	mov    %r13,%rcx
    3326:	48 29 f1             	sub    %rsi,%rcx
    3329:	c0 ea 04             	shr    $0x4,%dl
    332c:	41 89 ca             	mov    %ecx,%r10d
    332f:	44 8d 34 91          	lea    (%rcx,%rdx,4),%r14d
    3333:	41 0f b7 93 b4 00 00 	movzwl 0xb4(%r11),%edx
    333a:	00 
    333b:	48 01 d7             	add    %rdx,%rdi
    333e:	66 41 83 f9 08       	cmp    $0x8,%r9w
    3343:	0f 84 5c 03 00 00    	je     36a5 <e1000_xmit_frame+0xfd5>
    3349:	44 8b 40 18          	mov    0x18(%rax),%r8d
    334d:	45 31 ff             	xor    %r15d,%r15d
    3350:	41 83 e0 10          	and    $0x10,%r8d
    3354:	0f 85 d8 03 00 00    	jne    3732 <e1000_xmit_frame+0x1062>
    335a:	41 8b 4b 70          	mov    0x70(%r11),%ecx
    335e:	41 0f b6 c6          	movzbl %r14b,%eax
    3362:	49 83 c5 10          	add    $0x10,%r13
    3366:	49 29 f5             	sub    %rsi,%r13
    3369:	29 c1                	sub    %eax,%ecx
    336b:	41 09 c8             	or     %ecx,%r8d
    336e:	48 8b 4d c0          	mov    -0x40(%rbp),%rcx
    3372:	41 81 c8 00 00 00 25 	or     $0x25000000,%r8d
    3379:	8b 51 18             	mov    0x18(%rcx),%edx
    337c:	48 89 d0             	mov    %rdx,%rax
    337f:	49 89 d4             	mov    %rdx,%r12
    3382:	48 c1 e0 04          	shl    $0x4,%rax
    3386:	48 03 01             	add    (%rcx),%rax
    3389:	48 8d 0c 92          	lea    (%rdx,%rdx,4),%rcx
    338d:	48 8b 55 c0          	mov    -0x40(%rbp),%rdx
    3391:	48 8b 52 20          	mov    0x20(%rdx),%rdx
    3395:	44 88 68 05          	mov    %r13b,0x5(%rax)
    3399:	45 31 ed             	xor    %r13d,%r13d
    339c:	66 44 89 78 02       	mov    %r15w,0x2(%rax)
    33a1:	48 8d 14 ca          	lea    (%rdx,%rcx,8),%rdx
    33a5:	48 89 f9             	mov    %rdi,%rcx
    33a8:	48 83 c7 0a          	add    $0xa,%rdi
    33ac:	44 88 50 04          	mov    %r10b,0x4(%rax)
    33b0:	48 29 f1             	sub    %rsi,%rcx
    33b3:	48 29 f7             	sub    %rsi,%rdi
    33b6:	66 44 89 68 06       	mov    %r13w,0x6(%rax)
    33bb:	88 08                	mov    %cl,(%rax)
    33bd:	48 8b 4d c0          	mov    -0x40(%rbp),%rcx
    33c1:	40 88 78 01          	mov    %dil,0x1(%rax)
    33c5:	66 89 58 0e          	mov    %bx,0xe(%rax)
    33c9:	44 88 70 0d          	mov    %r14b,0xd(%rax)
    33cd:	44 89 40 08          	mov    %r8d,0x8(%rax)
    33d1:	48 8b 05 00 00 00 00 	mov    0x0(%rip),%rax        # 33d8 <e1000_xmit_frame+0xd08>
    33d8:	66 44 89 62 1a       	mov    %r12w,0x1a(%rdx)
    33dd:	41 83 c4 01          	add    $0x1,%r12d
    33e1:	48 89 42 10          	mov    %rax,0x10(%rdx)
    33e5:	b8 00 00 00 00       	mov    $0x0,%eax
    33ea:	44 3b 61 14          	cmp    0x14(%rcx),%r12d
    33ee:	44 0f 44 e0          	cmove  %eax,%r12d
    33f2:	48 8b 45 b8          	mov    -0x48(%rbp),%rax
    33f6:	44 89 61 18          	mov    %r12d,0x18(%rcx)
    33fa:	83 b8 20 0e 00 00 04 	cmpl   $0x4,0xe20(%rax)
    3401:	74 04                	je     3407 <e1000_xmit_frame+0xd37>
    3403:	c6 41 2c 01          	movb   $0x1,0x2c(%rcx)
    3407:	83 4d 88 04          	orl    $0x4,-0x78(%rbp)
    340b:	e9 d9 f6 ff ff       	jmpq   2ae9 <e1000_xmit_frame+0x419>
    3410:	48 8b 7d c0          	mov    -0x40(%rbp),%rdi
    3414:	48 8b 75 b8          	mov    -0x48(%rbp),%rsi
    3418:	0f b7 47 2a          	movzwl 0x2a(%rdi),%eax
    341c:	8b 57 18             	mov    0x18(%rdi),%edx
    341f:	48 03 86 08 0e 00 00 	add    0xe08(%rsi),%rax
    3426:	89 10                	mov    %edx,(%rax)
    3428:	e9 e4 fc ff ff       	jmpq   3111 <e1000_xmit_frame+0xa41>
    342d:	41 8b 93 bc 00 00 00 	mov    0xbc(%r11),%edx
    3434:	49 8b 8b c0 00 00 00 	mov    0xc0(%r11),%rcx
    343b:	41 83 c7 02          	add    $0x2,%r15d
    343f:	66 83 7c 11 04 00    	cmpw   $0x0,0x4(%rcx,%rdx,1)
    3445:	44 0f 45 f8          	cmovne %eax,%r15d
    3449:	e9 88 f3 ff ff       	jmpq   27d6 <e1000_xmit_frame+0x106>
    344e:	4d 85 ff             	test   %r15,%r15
    3451:	74 3f                	je     3492 <e1000_xmit_frame+0xdc2>
    3453:	b9 04 00 00 00       	mov    $0x4,%ecx
    3458:	48 8d 55 cc          	lea    -0x34(%rbp),%rdx
    345c:	44 89 e6             	mov    %r12d,%esi
    345f:	4c 89 ff             	mov    %r15,%rdi
    3462:	e8 00 00 00 00       	callq  3467 <e1000_xmit_frame+0xd97>
    3467:	85 c0                	test   %eax,%eax
    3469:	78 09                	js     3474 <e1000_xmit_frame+0xda4>
    346b:	48 8d 55 cc          	lea    -0x34(%rbp),%rdx
    346f:	e9 bd f3 ff ff       	jmpq   2831 <e1000_xmit_frame+0x161>
    3474:	41 8b 47 70          	mov    0x70(%r15),%eax
    3478:	4d 89 fb             	mov    %r15,%r11
    347b:	45 31 c9             	xor    %r9d,%r9d
    347e:	e9 a2 f2 ff ff       	jmpq   2725 <e1000_xmit_frame+0x55>
    3483:	31 f6                	xor    %esi,%esi
    3485:	4c 89 df             	mov    %r11,%rdi
    3488:	e8 00 00 00 00       	callq  348d <e1000_xmit_frame+0xdbd>
    348d:	e9 63 fb ff ff       	jmpq   2ff5 <e1000_xmit_frame+0x925>
    3492:	4d 89 fb             	mov    %r15,%r11
    3495:	eb e4                	jmp    347b <e1000_xmit_frame+0xdab>
    3497:	48 89 c7             	mov    %rax,%rdi
    349a:	8b 88 04 0c 00 00    	mov    0xc04(%rax),%ecx
    34a0:	8b 90 fc 0b 00 00    	mov    0xbfc(%rax),%edx
    34a6:	41 8b 43 70          	mov    0x70(%r11),%eax
    34aa:	83 c0 1f             	add    $0x1f,%eax
    34ad:	83 e0 f0             	and    $0xfffffff0,%eax
    34b0:	66 83 bf 9a 0b 00 00 	cmpw   $0x1,0xb9a(%rdi)
    34b7:	01 
    34b8:	0f 85 45 01 00 00    	jne    3603 <e1000_xmit_frame+0xf33>
    34be:	8b b7 0c 0c 00 00    	mov    0xc0c(%rdi),%esi
    34c4:	85 f6                	test   %esi,%esi
    34c6:	75 1a                	jne    34e2 <e1000_xmit_frame+0xe12>
    34c8:	8d b1 e0 03 00 00    	lea    0x3e0(%rcx),%esi
    34ce:	29 d6                	sub    %edx,%esi
    34d0:	39 f0                	cmp    %esi,%eax
    34d2:	0f 82 2b 01 00 00    	jb     3603 <e1000_xmit_frame+0xf33>
    34d8:	c7 87 0c 0c 00 00 01 	movl   $0x1,0xc0c(%rdi)
    34df:	00 00 00 
    34e2:	48 8b 7d b8          	mov    -0x48(%rbp),%rdi
    34e6:	48 8b 87 00 04 00 00 	mov    0x400(%rdi),%rax
    34ed:	f0 80 88 90 00 00 00 	lock orb $0x1,0x90(%rax)
    34f4:	01 
    34f5:	48 8b 87 f0 11 00 00 	mov    0x11f0(%rdi),%rax
    34fc:	a8 04                	test   $0x4,%al
    34fe:	75 21                	jne    3521 <e1000_xmit_frame+0xe51>
    3500:	48 8b 55 b8          	mov    -0x48(%rbp),%rdx
    3504:	b9 01 00 00 00       	mov    $0x1,%ecx
    3509:	bf 00 20 00 00       	mov    $0x2000,%edi
    350e:	48 8b 35 00 00 00 00 	mov    0x0(%rip),%rsi        # 3515 <e1000_xmit_frame+0xe45>
    3515:	48 81 c2 80 12 00 00 	add    $0x1280,%rdx
    351c:	e8 00 00 00 00       	callq  3521 <e1000_xmit_frame+0xe51>
    3521:	c7 85 74 ff ff ff 10 	movl   $0x10,-0x8c(%rbp)
    3528:	00 00 00 
    352b:	e9 e1 fb ff ff       	jmpq   3111 <e1000_xmit_frame+0xa41>
    3530:	48 8b 75 b8          	mov    -0x48(%rbp),%rsi
    3534:	83 be 20 0e 00 00 04 	cmpl   $0x4,0xe20(%rsi)
    353b:	0f 85 7c f2 ff ff    	jne    27bd <e1000_xmit_frame+0xed>
    3541:	41 8b 93 b8 00 00 00 	mov    0xb8(%r11),%edx
    3548:	48 8d 44 10 ff       	lea    -0x1(%rax,%rdx,1),%rax
    354d:	a8 04                	test   $0x4,%al
    354f:	0f 85 68 f2 ff ff    	jne    27bd <e1000_xmit_frame+0xed>
    3555:	8b 45 8c             	mov    -0x74(%rbp),%eax
    3558:	be 04 00 00 00       	mov    $0x4,%esi
    355d:	4c 89 df             	mov    %r11,%rdi
    3560:	44 89 4d a8          	mov    %r9d,-0x58(%rbp)
    3564:	4c 89 5d b0          	mov    %r11,-0x50(%rbp)
    3568:	83 f8 04             	cmp    $0x4,%eax
    356b:	0f 46 f0             	cmovbe %eax,%esi
    356e:	e8 00 00 00 00       	callq  3573 <e1000_xmit_frame+0xea3>
    3573:	4c 8b 5d b0          	mov    -0x50(%rbp),%r11
    3577:	44 8b 4d a8          	mov    -0x58(%rbp),%r9d
    357b:	48 85 c0             	test   %rax,%rax
    357e:	0f 84 fe 00 00 00    	je     3682 <e1000_xmit_frame+0xfb2>
    3584:	41 8b 53 74          	mov    0x74(%r11),%edx
    3588:	41 8b 5b 70          	mov    0x70(%r11),%ebx
    358c:	b8 01 00 00 00       	mov    $0x1,%eax
    3591:	44 89 f1             	mov    %r14d,%ecx
    3594:	d3 e0                	shl    %cl,%eax
    3596:	44 89 7d 8c          	mov    %r15d,-0x74(%rbp)
    359a:	41 bf 02 00 00 00    	mov    $0x2,%r15d
    35a0:	29 d3                	sub    %edx,%ebx
    35a2:	41 89 c4             	mov    %eax,%r12d
    35a5:	44 8d 6c 03 ff       	lea    -0x1(%rbx,%rax,1),%r13d
    35aa:	85 d2                	test   %edx,%edx
    35ac:	0f 85 24 f2 ff ff    	jne    27d6 <e1000_xmit_frame+0x106>
    35b2:	e9 d7 f7 ff ff       	jmpq   2d8e <e1000_xmit_frame+0x6be>
    35b7:	48 8d 04 11          	lea    (%rcx,%rdx,1),%rax
    35bb:	e9 62 f9 ff ff       	jmpq   2f22 <e1000_xmit_frame+0x852>
    35c0:	c7 45 a8 00 00 00 00 	movl   $0x0,-0x58(%rbp)
    35c7:	e9 07 f8 ff ff       	jmpq   2dd3 <e1000_xmit_frame+0x703>
    35cc:	45 31 ff             	xor    %r15d,%r15d
    35cf:	41 0f b6 83 80 00 00 	movzbl 0x80(%r11),%eax
    35d6:	00 
    35d7:	c7 45 a4 00 10 00 00 	movl   $0x1000,-0x5c(%rbp)
    35de:	44 8d ab ff 0f 00 00 	lea    0xfff(%rbx),%r13d
    35e5:	41 bc 00 10 00 00    	mov    $0x1000,%r12d
    35eb:	41 be 0c 00 00 00    	mov    $0xc,%r14d
    35f1:	83 e0 60             	and    $0x60,%eax
    35f4:	3c 60                	cmp    $0x60,%al
    35f6:	41 0f 94 c7          	sete   %r15b
    35fa:	41 8d 47 01          	lea    0x1(%r15),%eax
    35fe:	e9 96 f7 ff ff       	jmpq   2d99 <e1000_xmit_frame+0x6c9>
    3603:	01 d0                	add    %edx,%eax
    3605:	48 8b 75 b8          	mov    -0x48(%rbp),%rsi
    3609:	89 c2                	mov    %eax,%edx
    360b:	29 ca                	sub    %ecx,%edx
    360d:	39 c1                	cmp    %eax,%ecx
    360f:	0f 46 c2             	cmovbe %edx,%eax
    3612:	89 86 fc 0b 00 00    	mov    %eax,0xbfc(%rsi)
    3618:	e9 a2 f3 ff ff       	jmpq   29bf <e1000_xmit_frame+0x2ef>
    361d:	41 0f b7 83 b4 00 00 	movzwl 0xb4(%r11),%eax
    3624:	00 
    3625:	b9 00 00 00 20       	mov    $0x20000000,%ecx
    362a:	44 8b a5 70 ff ff ff 	mov    -0x90(%rbp),%r12d
    3631:	80 7c 07 09 06       	cmpb   $0x6,0x9(%rdi,%rax,1)
    3636:	b8 00 00 00 21       	mov    $0x21000000,%eax
    363b:	0f 44 c8             	cmove  %eax,%ecx
    363e:	e9 2b f4 ff ff       	jmpq   2a6e <e1000_xmit_frame+0x39e>
    3643:	31 d2                	xor    %edx,%edx
    3645:	31 f6                	xor    %esi,%esi
    3647:	4c 89 df             	mov    %r11,%rdi
    364a:	b9 20 0a 00 00       	mov    $0xa20,%ecx
    364f:	4c 89 5d b0          	mov    %r11,-0x50(%rbp)
    3653:	44 89 4d a8          	mov    %r9d,-0x58(%rbp)
    3657:	e8 00 00 00 00       	callq  365c <e1000_xmit_frame+0xf8c>
    365c:	4c 8b 5d b0          	mov    -0x50(%rbp),%r11
    3660:	85 c0                	test   %eax,%eax
    3662:	78 2f                	js     3693 <e1000_xmit_frame+0xfc3>
    3664:	49 8b bb c0 00 00 00 	mov    0xc0(%r11),%rdi
    366b:	41 8b 83 bc 00 00 00 	mov    0xbc(%r11),%eax
    3672:	44 8b 4d a8          	mov    -0x58(%rbp),%r9d
    3676:	48 01 f8             	add    %rdi,%rax
    3679:	0f b7 58 04          	movzwl 0x4(%rax),%ebx
    367d:	e9 8a fc ff ff       	jmpq   330c <e1000_xmit_frame+0xc3c>
    3682:	48 8b 45 b8          	mov    -0x48(%rbp),%rax
    3686:	f6 80 e8 11 00 00 01 	testb  $0x1,0x11e8(%rax)
    368d:	0f 85 00 00 00 00    	jne    3693 <e1000_xmit_frame+0xfc3>
    3693:	be 01 00 00 00       	mov    $0x1,%esi
    3698:	4c 89 df             	mov    %r11,%rdi
    369b:	e8 00 00 00 00       	callq  36a0 <e1000_xmit_frame+0xfd0>
    36a0:	e9 62 fa ff ff       	jmpq   3107 <e1000_xmit_frame+0xa37>
    36a5:	31 c0                	xor    %eax,%eax
    36a7:	41 b8 00 00 00 02    	mov    $0x2000000,%r8d
    36ad:	66 89 47 02          	mov    %ax,0x2(%rdi)
    36b1:	31 c0                	xor    %eax,%eax
    36b3:	66 89 47 0a          	mov    %ax,0xa(%rdi)
    36b7:	31 c0                	xor    %eax,%eax
    36b9:	49 8b 8b c0 00 00 00 	mov    0xc0(%r11),%rcx
    36c0:	03 47 10             	add    0x10(%rdi),%eax
    36c3:	13 47 0c             	adc    0xc(%rdi),%eax
    36c6:	15 00 06 00 00       	adc    $0x600,%eax
    36cb:	83 d0 00             	adc    $0x0,%eax
    36ce:	89 c2                	mov    %eax,%edx
    36d0:	66 31 c0             	xor    %ax,%ax
    36d3:	c1 e2 10             	shl    $0x10,%edx
    36d6:	01 d0                	add    %edx,%eax
    36d8:	15 ff ff 00 00       	adc    $0xffff,%eax
    36dd:	f7 d0                	not    %eax
    36df:	41 0f b7 93 b2 00 00 	movzwl 0xb2(%r11),%edx
    36e6:	00 
    36e7:	c1 e8 10             	shr    $0x10,%eax
    36ea:	f7 d0                	not    %eax
    36ec:	66 89 44 11 10       	mov    %ax,0x10(%rcx,%rdx,1)
    36f1:	49 8b bb c0 00 00 00 	mov    0xc0(%r11),%rdi
    36f8:	45 0f b7 ab b2 00 00 	movzwl 0xb2(%r11),%r13d
    36ff:	00 
    3700:	49 8b b3 c8 00 00 00 	mov    0xc8(%r11),%rsi
    3707:	41 0f b7 83 b4 00 00 	movzwl 0xb4(%r11),%eax
    370e:	00 
    370f:	49 01 fd             	add    %rdi,%r13
    3712:	4d 89 ea             	mov    %r13,%r10
    3715:	48 01 c7             	add    %rax,%rdi
    3718:	49 29 f2             	sub    %rsi,%r10
    371b:	45 8d 7a ff          	lea    -0x1(%r10),%r15d
    371f:	e9 36 fc ff ff       	jmpq   335a <e1000_xmit_frame+0xc8a>
    3724:	0f 0b                	ud2    
    3726:	45 31 c9             	xor    %r9d,%r9d
    3729:	89 d8                	mov    %ebx,%eax
    372b:	e9 f5 ef ff ff       	jmpq   2725 <e1000_xmit_frame+0x55>
    3730:	0f 0b                	ud2    
    3732:	31 c0                	xor    %eax,%eax
    3734:	48 8d 77 18          	lea    0x18(%rdi),%rsi
    3738:	45 31 c0             	xor    %r8d,%r8d
    373b:	48 83 c7 08          	add    $0x8,%rdi
    373f:	66 89 47 fc          	mov    %ax,-0x4(%rdi)
    3743:	b9 06 00 00 00       	mov    $0x6,%ecx
    3748:	31 d2                	xor    %edx,%edx
    374a:	4c 89 5d a8          	mov    %r11,-0x58(%rbp)
    374e:	44 89 4d b0          	mov    %r9d,-0x50(%rbp)
    3752:	e8 00 00 00 00       	callq  3757 <e1000_xmit_frame+0x1087>
    3757:	4c 8b 5d a8          	mov    -0x58(%rbp),%r11
    375b:	44 8b 4d b0          	mov    -0x50(%rbp),%r9d
    375f:	45 31 c0             	xor    %r8d,%r8d
    3762:	f7 d0                	not    %eax
    3764:	66 41 89 45 10       	mov    %ax,0x10(%r13)
    3769:	49 8b bb c0 00 00 00 	mov    0xc0(%r11),%rdi
    3770:	45 0f b7 ab b2 00 00 	movzwl 0xb2(%r11),%r13d
    3777:	00 
    3778:	49 8b b3 c8 00 00 00 	mov    0xc8(%r11),%rsi
    377f:	41 0f b7 83 b4 00 00 	movzwl 0xb4(%r11),%eax
    3786:	00 
    3787:	49 01 fd             	add    %rdi,%r13
    378a:	45 89 ea             	mov    %r13d,%r10d
    378d:	48 01 c7             	add    %rax,%rdi
    3790:	41 29 f2             	sub    %esi,%r10d
    3793:	e9 c2 fb ff ff       	jmpq   335a <e1000_xmit_frame+0xc8a>
    3798:	8b 45 88             	mov    -0x78(%rbp),%eax
    379b:	81 cf 00 00 00 40    	or     $0x40000000,%edi
    37a1:	66 31 c0             	xor    %ax,%ax
    37a4:	09 c6                	or     %eax,%esi
    37a6:	e9 87 f8 ff ff       	jmpq   3032 <e1000_xmit_frame+0x962>
    37ab:	bf 00 00 00 02       	mov    $0x2000000,%edi
    37b0:	31 f6                	xor    %esi,%esi
    37b2:	e9 5f f8 ff ff       	jmpq   3016 <e1000_xmit_frame+0x946>
    37b7:	f0 80 88 90 00 00 00 	lock orb $0x2,0x90(%rax)
    37be:	02 
    37bf:	f0 83 44 24 fc 00    	lock addl $0x0,-0x4(%rsp)
    37c5:	8b 88 c4 00 00 00    	mov    0xc4(%rax),%ecx
    37cb:	8b 90 c0 00 00 00    	mov    0xc0(%rax),%edx
    37d1:	39 d1                	cmp    %edx,%ecx
    37d3:	0f 88 f3 f7 ff ff    	js     2fcc <e1000_xmit_frame+0x8fc>
    37d9:	f0 80 a0 90 00 00 00 	lock andb $0xfd,0x90(%rax)
    37e0:	fd 
    37e1:	e9 e6 f7 ff ff       	jmpq   2fcc <e1000_xmit_frame+0x8fc>
    37e6:	0f 0b                	ud2    
    37e8:	41 0f b7 83 b4 00 00 	movzwl 0xb4(%r11),%eax
    37ef:	00 
    37f0:	b9 00 00 00 20       	mov    $0x20000000,%ecx
    37f5:	44 8b a5 70 ff ff ff 	mov    -0x90(%rbp),%r12d
    37fc:	80 7c 07 06 06       	cmpb   $0x6,0x6(%rdi,%rax,1)
    3801:	b8 00 00 00 21       	mov    $0x21000000,%eax
    3806:	0f 44 c8             	cmove  %eax,%ecx
    3809:	e9 60 f2 ff ff       	jmpq   2a6e <e1000_xmit_frame+0x39e>
    380e:	48 8b 35 00 00 00 00 	mov    0x0(%rip),%rsi        # 3815 <e1000_xmit_frame+0x1145>
    3815:	e9 43 f4 ff ff       	jmpq   2c5d <e1000_xmit_frame+0x58d>
    381a:	48 8b 45 b8          	mov    -0x48(%rbp),%rax
    381e:	f6 80 e8 11 00 00 01 	testb  $0x1,0x11e8(%rax)
    3825:	0f 85 00 00 00 00    	jne    382b <e1000_xmit_frame+0x115b>
    382b:	48 8b 45 c0          	mov    -0x40(%rbp),%rax
    382f:	49 8b bb c0 00 00 00 	mov    0xc0(%r11),%rdi
    3836:	b9 00 00 00 20       	mov    $0x20000000,%ecx
    383b:	44 8b 60 18          	mov    0x18(%rax),%r12d
    383f:	e9 2a f2 ff ff       	jmpq   2a6e <e1000_xmit_frame+0x39e>
    3844:	e8 00 00 00 00       	callq  3849 <e1000_xmit_frame+0x1179>
    3849:	4d 89 fb             	mov    %r15,%r11
    384c:	e9 6c f9 ff ff       	jmpq   31bd <e1000_xmit_frame+0xaed>
    3851:	4c 8b 9d 78 ff ff ff 	mov    -0x88(%rbp),%r11
    3858:	e9 60 f9 ff ff       	jmpq   31bd <e1000_xmit_frame+0xaed>
    385d:	0f 1f 00             	nopl   (%rax)

0000000000003860 <e1000_clean_rx_irq>:
    3860:	e8 00 00 00 00       	callq  3865 <e1000_clean_rx_irq+0x5>
    3865:	55                   	push   %rbp
    3866:	48 89 e5             	mov    %rsp,%rbp
    3869:	41 57                	push   %r15
    386b:	41 56                	push   %r14
    386d:	41 55                	push   %r13
    386f:	41 54                	push   %r12
    3871:	49 89 fc             	mov    %rdi,%r12
    3874:	53                   	push   %rbx
    3875:	48 83 ec 60          	sub    $0x60,%rsp
    3879:	44 8b 5e 1c          	mov    0x1c(%rsi),%r11d
    387d:	4c 8b 3e             	mov    (%rsi),%r15
    3880:	48 89 75 c8          	mov    %rsi,-0x38(%rbp)
    3884:	48 8b 87 78 04 00 00 	mov    0x478(%rdi),%rax
    388b:	48 89 55 b8          	mov    %rdx,-0x48(%rbp)
    388f:	44 89 5d d4          	mov    %r11d,-0x2c(%rbp)
    3893:	49 c1 e3 04          	shl    $0x4,%r11
    3897:	4d 01 df             	add    %r11,%r15
    389a:	48 89 45 88          	mov    %rax,-0x78(%rbp)
    389e:	4c 03 5e 20          	add    0x20(%rsi),%r11
    38a2:	89 4d 94             	mov    %ecx,-0x6c(%rbp)
    38a5:	48 8b 87 80 04 00 00 	mov    0x480(%rdi),%rax
    38ac:	41 f6 47 0c 01       	testb  $0x1,0xc(%r15)
    38b1:	0f 84 ba 04 00 00    	je     3d71 <e1000_clean_rx_irq+0x511>
    38b7:	48 05 d0 00 00 00    	add    $0xd0,%rax
    38bd:	45 31 f6             	xor    %r14d,%r14d
    38c0:	c7 45 90 00 00 00 00 	movl   $0x0,-0x70(%rbp)
    38c7:	48 89 45 80          	mov    %rax,-0x80(%rbp)
    38cb:	48 8d 87 b0 02 00 00 	lea    0x2b0(%rdi),%rax
    38d2:	45 89 f5             	mov    %r14d,%r13d
    38d5:	c7 45 c0 00 00 00 00 	movl   $0x0,-0x40(%rbp)
    38dc:	c7 45 c4 00 00 00 00 	movl   $0x0,-0x3c(%rbp)
    38e3:	48 89 45 a0          	mov    %rax,-0x60(%rbp)
    38e7:	e9 64 01 00 00       	jmpq   3a50 <e1000_clean_rx_irq+0x1f0>
    38ec:	48 c1 e0 04          	shl    $0x4,%rax
    38f0:	48 8b 4d c8          	mov    -0x38(%rbp),%rcx
    38f4:	48 8b 19             	mov    (%rcx),%rbx
    38f7:	48 01 c3             	add    %rax,%rbx
    38fa:	48 03 41 20          	add    0x20(%rcx),%rax
    38fe:	0f 18 0b             	prefetcht0 (%rbx)
    3901:	48 89 45 b0          	mov    %rax,-0x50(%rbp)
    3905:	0f b6 45 d3          	movzbl -0x2d(%rbp),%eax
    3909:	83 45 c4 01          	addl   $0x1,-0x3c(%rbp)
    390d:	83 e0 02             	and    $0x2,%eax
    3910:	0f 84 bd 03 00 00    	je     3cd3 <e1000_clean_rx_irq+0x473>
    3916:	45 0f b6 ac 24 84 08 	movzbl 0x884(%r12),%r13d
    391d:	00 00 
    391f:	41 80 fd 01          	cmp    $0x1,%r13b
    3923:	0f 87 00 00 00 00    	ja     3929 <e1000_clean_rx_irq+0xc9>
    3929:	41 83 e5 01          	and    $0x1,%r13d
    392d:	0f 85 fd 01 00 00    	jne    3b30 <e1000_clean_rx_irq+0x2d0>
    3933:	41 0f b6 57 0d       	movzbl 0xd(%r15),%edx
    3938:	f6 c2 97             	test   $0x97,%dl
    393b:	0f 85 a0 03 00 00    	jne    3ce1 <e1000_clean_rx_irq+0x481>
    3941:	48 8b 45 88          	mov    -0x78(%rbp),%rax
    3945:	44 0f b6 6d d3       	movzbl -0x2d(%rbp),%r13d
    394a:	48 8b 80 e0 00 00 00 	mov    0xe0(%rax),%rax
    3951:	8b 55 c0             	mov    -0x40(%rbp),%edx
    3954:	83 45 90 01          	addl   $0x1,-0x70(%rbp)
    3958:	48 bf 00 00 00 00 00 	movabs $0x80000000000,%rdi
    395f:	08 00 00 
    3962:	48 85 f8             	test   %rdi,%rax
    3965:	4c 89 f7             	mov    %r14,%rdi
    3968:	42 8d 4c 12 fc       	lea    -0x4(%rdx,%r10,1),%ecx
    396d:	41 8d 52 fc          	lea    -0x4(%r10),%edx
    3971:	44 0f 44 d2          	cmove  %edx,%r10d
    3975:	49 83 3b 00          	cmpq   $0x0,(%r11)
    3979:	89 4d c0             	mov    %ecx,-0x40(%rbp)
    397c:	44 89 d6             	mov    %r10d,%esi
    397f:	0f 84 8b 02 00 00    	je     3c10 <e1000_clean_rx_irq+0x3b0>
    3985:	e8 00 00 00 00       	callq  398a <e1000_clean_rx_irq+0x12a>
    398a:	41 0f b6 47 0d       	movzbl 0xd(%r15),%eax
    398f:	c1 e0 18             	shl    $0x18,%eax
    3992:	41 09 c5             	or     %eax,%r13d
    3995:	c1 e8 18             	shr    $0x18,%eax
    3998:	41 83 bc 24 a0 04 00 	cmpl   $0x2,0x4a0(%r12)
    399f:	00 02 
    39a1:	76 35                	jbe    39d8 <e1000_clean_rx_irq+0x178>
    39a3:	41 0f b7 d5          	movzwl %r13w,%edx
    39a7:	41 83 e5 04          	and    $0x4,%r13d
    39ab:	75 2b                	jne    39d8 <e1000_clean_rx_irq+0x178>
    39ad:	a8 20                	test   $0x20,%al
    39af:	0f 85 6b 03 00 00    	jne    3d20 <e1000_clean_rx_irq+0x4c0>
    39b5:	83 e2 20             	and    $0x20,%edx
    39b8:	74 1e                	je     39d8 <e1000_clean_rx_irq+0x178>
    39ba:	41 0f b6 86 80 00 00 	movzbl 0x80(%r14),%eax
    39c1:	00 
    39c2:	83 e0 9f             	and    $0xffffff9f,%eax
    39c5:	83 c8 20             	or     $0x20,%eax
    39c8:	41 88 86 80 00 00 00 	mov    %al,0x80(%r14)
    39cf:	49 83 84 24 50 04 00 	addq   $0x1,0x450(%r12)
    39d6:	00 01 
    39d8:	49 8b b4 24 78 04 00 	mov    0x478(%r12),%rsi
    39df:	00 
    39e0:	4c 89 f7             	mov    %r14,%rdi
    39e3:	45 0f b7 6f 0e       	movzwl 0xe(%r15),%r13d
    39e8:	e8 00 00 00 00       	callq  39ed <e1000_clean_rx_irq+0x18d>
    39ed:	66 41 89 86 b0 00 00 	mov    %ax,0xb0(%r14)
    39f4:	00 
    39f5:	f6 45 d3 08          	testb  $0x8,-0x2d(%rbp)
    39f9:	74 23                	je     3a1e <e1000_clean_rx_irq+0x1be>
    39fb:	b8 81 00 00 00       	mov    $0x81,%eax
    3a00:	66 41 81 e5 ff 0f    	and    $0xfff,%r13w
    3a06:	41 80 8e 82 00 00 00 	orb    $0x1,0x82(%r14)
    3a0d:	01 
    3a0e:	66 41 89 86 98 00 00 	mov    %ax,0x98(%r14)
    3a15:	00 
    3a16:	66 45 89 ae 9a 00 00 	mov    %r13w,0x9a(%r14)
    3a1d:	00 
    3a1e:	48 8b 7d a0          	mov    -0x60(%rbp),%rdi
    3a22:	4c 89 f6             	mov    %r14,%rsi
    3a25:	e8 00 00 00 00       	callq  3a2a <e1000_clean_rx_irq+0x1ca>
    3a2a:	83 7d c4 0f          	cmpl   $0xf,-0x3c(%rbp)
    3a2e:	41 c6 47 0c 00       	movb   $0x0,0xc(%r15)
    3a33:	0f 8f 2b 01 00 00    	jg     3b64 <e1000_clean_rx_irq+0x304>
    3a39:	41 bd 01 00 00 00    	mov    $0x1,%r13d
    3a3f:	f6 43 0c 01          	testb  $0x1,0xc(%rbx)
    3a43:	0f 84 49 01 00 00    	je     3b92 <e1000_clean_rx_irq+0x332>
    3a49:	4c 8b 5d b0          	mov    -0x50(%rbp),%r11
    3a4d:	49 89 df             	mov    %rbx,%r15
    3a50:	48 8b 45 b8          	mov    -0x48(%rbp),%rax
    3a54:	8b 00                	mov    (%rax),%eax
    3a56:	3b 45 94             	cmp    -0x6c(%rbp),%eax
    3a59:	0f 8d 33 01 00 00    	jge    3b92 <e1000_clean_rx_irq+0x332>
    3a5f:	48 8b 4d b8          	mov    -0x48(%rbp),%rcx
    3a63:	83 c0 01             	add    $0x1,%eax
    3a66:	89 01                	mov    %eax,(%rcx)
    3a68:	41 0f b6 47 0c       	movzbl 0xc(%r15),%eax
    3a6d:	45 0f b7 57 08       	movzwl 0x8(%r15),%r10d
    3a72:	44 3b 15 00 00 00 00 	cmp    0x0(%rip),%r10d        # 3a79 <e1000_clean_rx_irq+0x219>
    3a79:	88 45 d3             	mov    %al,-0x2d(%rbp)
    3a7c:	49 8b 03             	mov    (%r11),%rax
    3a7f:	44 89 d3             	mov    %r10d,%ebx
    3a82:	48 89 45 a8          	mov    %rax,-0x58(%rbp)
    3a86:	0f 18 08             	prefetcht0 (%rax)
    3a89:	0f 87 94 01 00 00    	ja     3c23 <e1000_clean_rx_irq+0x3c3>
    3a8f:	48 8b 7d a0          	mov    -0x60(%rbp),%rdi
    3a93:	44 89 d6             	mov    %r10d,%esi
    3a96:	ba 20 0a 00 00       	mov    $0xa20,%edx
    3a9b:	4c 89 5d 98          	mov    %r11,-0x68(%rbp)
    3a9f:	44 89 55 b0          	mov    %r10d,-0x50(%rbp)
    3aa3:	e8 00 00 00 00       	callq  3aa8 <e1000_clean_rx_irq+0x248>
    3aa8:	44 8b 55 b0          	mov    -0x50(%rbp),%r10d
    3aac:	4c 8b 5d 98          	mov    -0x68(%rbp),%r11
    3ab0:	48 85 c0             	test   %rax,%rax
    3ab3:	49 89 c6             	mov    %rax,%r14
    3ab6:	0f 84 5e 01 00 00    	je     3c1a <e1000_clean_rx_irq+0x3ba>
    3abc:	49 8b 84 24 80 04 00 	mov    0x480(%r12),%rax
    3ac3:	00 
    3ac4:	49 8b 73 08          	mov    0x8(%r11),%rsi
    3ac8:	44 0f b7 eb          	movzwl %bx,%r13d
    3acc:	b9 02 00 00 00       	mov    $0x2,%ecx
    3ad1:	4c 89 ea             	mov    %r13,%rdx
    3ad4:	4c 89 5d 98          	mov    %r11,-0x68(%rbp)
    3ad8:	48 8d b8 d0 00 00 00 	lea    0xd0(%rax),%rdi
    3adf:	44 89 55 b0          	mov    %r10d,-0x50(%rbp)
    3ae3:	e8 00 00 00 00       	callq  3ae8 <e1000_clean_rx_irq+0x288>
    3ae8:	44 8b 55 b0          	mov    -0x50(%rbp),%r10d
    3aec:	4c 89 f7             	mov    %r14,%rdi
    3aef:	44 89 d6             	mov    %r10d,%esi
    3af2:	e8 00 00 00 00       	callq  3af7 <e1000_clean_rx_irq+0x297>
    3af7:	48 8b 75 a8          	mov    -0x58(%rbp),%rsi
    3afb:	4c 89 ea             	mov    %r13,%rdx
    3afe:	48 89 c7             	mov    %rax,%rdi
    3b01:	e8 00 00 00 00       	callq  3b06 <e1000_clean_rx_irq+0x2a6>
    3b06:	44 8b 55 b0          	mov    -0x50(%rbp),%r10d
    3b0a:	4c 8b 5d 98          	mov    -0x68(%rbp),%r11
    3b0e:	48 8b 7d c8          	mov    -0x38(%rbp),%rdi
    3b12:	83 45 d4 01          	addl   $0x1,-0x2c(%rbp)
    3b16:	8b 45 d4             	mov    -0x2c(%rbp),%eax
    3b19:	39 47 14             	cmp    %eax,0x14(%rdi)
    3b1c:	0f 85 ca fd ff ff    	jne    38ec <e1000_clean_rx_irq+0x8c>
    3b22:	c7 45 d4 00 00 00 00 	movl   $0x0,-0x2c(%rbp)
    3b29:	31 c0                	xor    %eax,%eax
    3b2b:	e9 c0 fd ff ff       	jmpq   38f0 <e1000_clean_rx_irq+0x90>
    3b30:	0f 1f 44 00 00       	nopl   0x0(%rax,%rax,1)
    3b35:	4c 89 f7             	mov    %r14,%rdi
    3b38:	88 45 d3             	mov    %al,-0x2d(%rbp)
    3b3b:	e8 00 00 00 00       	callq  3b40 <e1000_clean_rx_irq+0x2e0>
    3b40:	0f b6 45 d3          	movzbl -0x2d(%rbp),%eax
    3b44:	84 c0                	test   %al,%al
    3b46:	0f 84 de fe ff ff    	je     3a2a <e1000_clean_rx_irq+0x1ca>
    3b4c:	41 c6 84 24 84 08 00 	movb   $0x0,0x884(%r12)
    3b53:	00 00 
    3b55:	83 7d c4 0f          	cmpl   $0xf,-0x3c(%rbp)
    3b59:	41 c6 47 0c 00       	movb   $0x0,0xc(%r15)
    3b5e:	0f 8e d5 fe ff ff    	jle    3a39 <e1000_clean_rx_irq+0x1d9>
    3b64:	8b 55 c4             	mov    -0x3c(%rbp),%edx
    3b67:	48 8b 75 c8          	mov    -0x38(%rbp),%rsi
    3b6b:	4c 89 e7             	mov    %r12,%rdi
    3b6e:	41 bd 01 00 00 00    	mov    $0x1,%r13d
    3b74:	49 8b 84 24 a0 02 00 	mov    0x2a0(%r12),%rax
    3b7b:	00 
    3b7c:	e8 00 00 00 00       	callq  3b81 <e1000_clean_rx_irq+0x321>
    3b81:	c7 45 c4 00 00 00 00 	movl   $0x0,-0x3c(%rbp)
    3b88:	f6 43 0c 01          	testb  $0x1,0xc(%rbx)
    3b8c:	0f 85 b7 fe ff ff    	jne    3a49 <e1000_clean_rx_irq+0x1e9>
    3b92:	45 89 ee             	mov    %r13d,%r14d
    3b95:	8b 5d 90             	mov    -0x70(%rbp),%ebx
    3b98:	44 8b 6d c0          	mov    -0x40(%rbp),%r13d
    3b9c:	48 8b 75 c8          	mov    -0x38(%rbp),%rsi
    3ba0:	8b 45 d4             	mov    -0x2c(%rbp),%eax
    3ba3:	89 46 1c             	mov    %eax,0x1c(%rsi)
    3ba6:	8b 56 1c             	mov    0x1c(%rsi),%edx
    3ba9:	8b 4e 18             	mov    0x18(%rsi),%ecx
    3bac:	31 c0                	xor    %eax,%eax
    3bae:	39 ca                	cmp    %ecx,%edx
    3bb0:	77 03                	ja     3bb5 <e1000_clean_rx_irq+0x355>
    3bb2:	8b 46 14             	mov    0x14(%rsi),%eax
    3bb5:	83 ea 01             	sub    $0x1,%edx
    3bb8:	29 ca                	sub    %ecx,%edx
    3bba:	01 c2                	add    %eax,%edx
    3bbc:	74 14                	je     3bd2 <e1000_clean_rx_irq+0x372>
    3bbe:	49 8b 84 24 a0 02 00 	mov    0x2a0(%r12),%rax
    3bc5:	00 
    3bc6:	48 8b 75 c8          	mov    -0x38(%rbp),%rsi
    3bca:	4c 89 e7             	mov    %r12,%rdi
    3bcd:	e8 00 00 00 00       	callq  3bd2 <e1000_clean_rx_irq+0x372>
    3bd2:	8b 45 90             	mov    -0x70(%rbp),%eax
    3bd5:	41 01 84 24 2c 02 00 	add    %eax,0x22c(%r12)
    3bdc:	00 
    3bdd:	8b 45 c0             	mov    -0x40(%rbp),%eax
    3be0:	41 01 84 24 28 02 00 	add    %eax,0x228(%r12)
    3be7:	00 
    3be8:	48 8b 45 88          	mov    -0x78(%rbp),%rax
    3bec:	4c 01 a8 38 01 00 00 	add    %r13,0x138(%rax)
    3bf3:	48 01 98 28 01 00 00 	add    %rbx,0x128(%rax)
    3bfa:	48 83 c4 60          	add    $0x60,%rsp
    3bfe:	44 89 f0             	mov    %r14d,%eax
    3c01:	5b                   	pop    %rbx
    3c02:	41 5c                	pop    %r12
    3c04:	41 5d                	pop    %r13
    3c06:	41 5e                	pop    %r14
    3c08:	41 5f                	pop    %r15
    3c0a:	5d                   	pop    %rbp
    3c0b:	e9 00 00 00 00       	jmpq   3c10 <e1000_clean_rx_irq+0x3b0>
    3c10:	e8 00 00 00 00       	callq  3c15 <e1000_clean_rx_irq+0x3b5>
    3c15:	e9 70 fd ff ff       	jmpq   398a <e1000_clean_rx_irq+0x12a>
    3c1a:	41 83 84 24 58 04 00 	addl   $0x1,0x458(%r12)
    3c21:	00 01 
    3c23:	41 8b 84 24 08 02 00 	mov    0x208(%r12),%eax
    3c2a:	00 
    3c2b:	4c 89 5d 98          	mov    %r11,-0x68(%rbp)
    3c2f:	44 89 55 b0          	mov    %r10d,-0x50(%rbp)
    3c33:	8d 70 7f             	lea    0x7f(%rax),%esi
    3c36:	48 8b 45 a8          	mov    -0x58(%rbp),%rax
    3c3a:	83 e6 c0             	and    $0xffffffc0,%esi
    3c3d:	81 c6 40 01 00 00    	add    $0x140,%esi
    3c43:	48 8d 78 c0          	lea    -0x40(%rax),%rdi
    3c47:	e8 00 00 00 00       	callq  3c4c <e1000_clean_rx_irq+0x3ec>
    3c4c:	44 8b 55 b0          	mov    -0x50(%rbp),%r10d
    3c50:	4c 8b 5d 98          	mov    -0x68(%rbp),%r11
    3c54:	48 85 c0             	test   %rax,%rax
    3c57:	49 89 c6             	mov    %rax,%r14
    3c5a:	0f 84 f9 00 00 00    	je     3d59 <e1000_clean_rx_irq+0x4f9>
    3c60:	48 8b 7d 80          	mov    -0x80(%rbp),%rdi
    3c64:	45 31 c0             	xor    %r8d,%r8d
    3c67:	b9 02 00 00 00       	mov    $0x2,%ecx
    3c6c:	44 89 55 98          	mov    %r10d,-0x68(%rbp)
    3c70:	48 83 80 c8 00 00 00 	addq   $0x40,0xc8(%rax)
    3c77:	40 
    3c78:	83 80 b8 00 00 00 40 	addl   $0x40,0xb8(%rax)
    3c7f:	49 8b 73 08          	mov    0x8(%r11),%rsi
    3c83:	41 8b 94 24 08 02 00 	mov    0x208(%r12),%edx
    3c8a:	00 
    3c8b:	4c 89 5d b0          	mov    %r11,-0x50(%rbp)
    3c8f:	e8 00 00 00 00       	callq  3c94 <e1000_clean_rx_irq+0x434>
    3c94:	4c 8b 5d b0          	mov    -0x50(%rbp),%r11
    3c98:	44 8b 55 98          	mov    -0x68(%rbp),%r10d
    3c9c:	49 c7 43 08 00 00 00 	movq   $0x0,0x8(%r11)
    3ca3:	00 
    3ca4:	49 c7 03 00 00 00 00 	movq   $0x0,(%r11)
    3cab:	e9 5e fe ff ff       	jmpq   3b0e <e1000_clean_rx_irq+0x2ae>
    3cb0:	48 8b 75 88          	mov    -0x78(%rbp),%rsi
    3cb4:	48 c7 c2 00 00 00 00 	mov    $0x0,%rdx
    3cbb:	48 c7 c7 00 00 00 00 	mov    $0x0,%rdi
    3cc2:	88 45 d3             	mov    %al,-0x2d(%rbp)
    3cc5:	e8 00 00 00 00       	callq  3cca <e1000_clean_rx_irq+0x46a>
    3cca:	0f b6 45 d3          	movzbl -0x2d(%rbp),%eax
    3cce:	e9 62 fe ff ff       	jmpq   3b35 <e1000_clean_rx_irq+0x2d5>
    3cd3:	41 c6 84 24 84 08 00 	movb   $0x1,0x884(%r12)
    3cda:	00 01 
    3cdc:	e9 35 fc ff ff       	jmpq   3916 <e1000_clean_rx_irq+0xb6>
    3ce1:	44 0f b6 6d d3       	movzbl -0x2d(%rbp),%r13d
    3ce6:	4c 8b 45 a8          	mov    -0x58(%rbp),%r8
    3cea:	44 89 d1             	mov    %r10d,%ecx
    3ced:	4c 89 e7             	mov    %r12,%rdi
    3cf0:	4c 89 5d 98          	mov    %r11,-0x68(%rbp)
    3cf4:	44 89 ee             	mov    %r13d,%esi
    3cf7:	44 89 55 a8          	mov    %r10d,-0x58(%rbp)
    3cfb:	e8 20 d8 ff ff       	callq  1520 <e1000_tbi_should_accept>
    3d00:	44 8b 55 a8          	mov    -0x58(%rbp),%r10d
    3d04:	4c 8b 5d 98          	mov    -0x68(%rbp),%r11
    3d08:	84 c0                	test   %al,%al
    3d0a:	74 22                	je     3d2e <e1000_clean_rx_irq+0x4ce>
    3d0c:	48 8b 45 88          	mov    -0x78(%rbp),%rax
    3d10:	41 83 ea 01          	sub    $0x1,%r10d
    3d14:	48 8b 80 e0 00 00 00 	mov    0xe0(%rax),%rax
    3d1b:	e9 31 fc ff ff       	jmpq   3951 <e1000_clean_rx_irq+0xf1>
    3d20:	49 83 84 24 48 04 00 	addq   $0x1,0x448(%r12)
    3d27:	00 01 
    3d29:	e9 aa fc ff ff       	jmpq   39d8 <e1000_clean_rx_irq+0x178>
    3d2e:	48 bf 00 00 00 00 00 	movabs $0x100000000000,%rdi
    3d35:	10 00 00 
    3d38:	48 8b 45 88          	mov    -0x78(%rbp),%rax
    3d3c:	48 8b 80 e0 00 00 00 	mov    0xe0(%rax),%rax
    3d43:	48 85 f8             	test   %rdi,%rax
    3d46:	0f 85 05 fc ff ff    	jne    3951 <e1000_clean_rx_irq+0xf1>
    3d4c:	4c 89 f7             	mov    %r14,%rdi
    3d4f:	e8 00 00 00 00       	callq  3d54 <e1000_clean_rx_irq+0x4f4>
    3d54:	e9 d1 fc ff ff       	jmpq   3a2a <e1000_clean_rx_irq+0x1ca>
    3d59:	41 83 84 24 58 04 00 	addl   $0x1,0x458(%r12)
    3d60:	00 01 
    3d62:	45 89 ee             	mov    %r13d,%r14d
    3d65:	8b 5d 90             	mov    -0x70(%rbp),%ebx
    3d68:	44 8b 6d c0          	mov    -0x40(%rbp),%r13d
    3d6c:	e9 2b fe ff ff       	jmpq   3b9c <e1000_clean_rx_irq+0x33c>
    3d71:	c7 45 90 00 00 00 00 	movl   $0x0,-0x70(%rbp)
    3d78:	31 db                	xor    %ebx,%ebx
    3d7a:	45 31 ed             	xor    %r13d,%r13d
    3d7d:	45 31 f6             	xor    %r14d,%r14d
    3d80:	c7 45 c0 00 00 00 00 	movl   $0x0,-0x40(%rbp)
    3d87:	e9 10 fe ff ff       	jmpq   3b9c <e1000_clean_rx_irq+0x33c>
    3d8c:	0f 1f 40 00          	nopl   0x0(%rax)

0000000000003d90 <e1000_alloc_rx_buffers>:
    3d90:	e8 00 00 00 00       	callq  3d95 <e1000_alloc_rx_buffers+0x5>
    3d95:	55                   	push   %rbp
    3d96:	48 89 e5             	mov    %rsp,%rbp
    3d99:	41 57                	push   %r15
    3d9b:	41 56                	push   %r14
    3d9d:	41 55                	push   %r13
    3d9f:	41 54                	push   %r12
    3da1:	53                   	push   %rbx
    3da2:	48 83 ec 28          	sub    $0x28,%rsp
    3da6:	48 8b 87 80 04 00 00 	mov    0x480(%rdi),%rax
    3dad:	8b 5e 18             	mov    0x18(%rsi),%ebx
    3db0:	48 89 45 b8          	mov    %rax,-0x48(%rbp)
    3db4:	8b 87 08 02 00 00    	mov    0x208(%rdi),%eax
    3dba:	49 89 dc             	mov    %rbx,%r12
    3dbd:	48 c1 e3 04          	shl    $0x4,%rbx
    3dc1:	48 03 5e 20          	add    0x20(%rsi),%rbx
    3dc5:	89 45 b4             	mov    %eax,-0x4c(%rbp)
    3dc8:	85 d2                	test   %edx,%edx
    3dca:	0f 84 30 02 00 00    	je     4000 <e1000_alloc_rx_buffers+0x270>
    3dd0:	49 89 fe             	mov    %rdi,%r14
    3dd3:	49 89 f7             	mov    %rsi,%r15
    3dd6:	41 89 d5             	mov    %edx,%r13d
    3dd9:	eb 34                	jmp    3e0f <e1000_alloc_rx_buffers+0x7f>
    3ddb:	48 8b 43 08          	mov    0x8(%rbx),%rax
    3ddf:	44 89 e2             	mov    %r12d,%edx
    3de2:	41 83 c4 01          	add    $0x1,%r12d
    3de6:	48 c1 e2 04          	shl    $0x4,%rdx
    3dea:	49 03 17             	add    (%r15),%rdx
    3ded:	48 89 02             	mov    %rax,(%rdx)
    3df0:	45 39 67 14          	cmp    %r12d,0x14(%r15)
    3df4:	0f 84 19 02 00 00    	je     4013 <e1000_alloc_rx_buffers+0x283>
    3dfa:	44 89 e3             	mov    %r12d,%ebx
    3dfd:	48 c1 e3 04          	shl    $0x4,%rbx
    3e01:	49 03 5f 20          	add    0x20(%r15),%rbx
    3e05:	41 83 ed 01          	sub    $0x1,%r13d
    3e09:	0f 84 cb 01 00 00    	je     3fda <e1000_alloc_rx_buffers+0x24a>
    3e0f:	48 83 3b 00          	cmpq   $0x0,(%rbx)
    3e13:	75 c6                	jne    3ddb <e1000_alloc_rx_buffers+0x4b>
    3e15:	4c 89 f7             	mov    %r14,%rdi
    3e18:	e8 33 c9 ff ff       	callq  750 <e1000_alloc_frag>
    3e1d:	49 89 c3             	mov    %rax,%r11
    3e20:	48 85 c0             	test   %rax,%rax
    3e23:	0f 84 b1 02 00 00    	je     40da <e1000_alloc_rx_buffers+0x34a>
    3e29:	41 8b 86 a0 04 00 00 	mov    0x4a0(%r14),%eax
    3e30:	8d 50 f8             	lea    -0x8(%rax),%edx
    3e33:	83 fa 01             	cmp    $0x1,%edx
    3e36:	0f 86 c1 00 00 00    	jbe    3efd <e1000_alloc_rx_buffers+0x16d>
    3e3c:	83 f8 06             	cmp    $0x6,%eax
    3e3f:	0f 84 b8 00 00 00    	je     3efd <e1000_alloc_rx_buffers+0x16d>
    3e45:	48 8b 45 b8          	mov    -0x48(%rbp),%rax
    3e49:	41 8b 8e 08 02 00 00 	mov    0x208(%r14),%ecx
    3e50:	4c 89 df             	mov    %r11,%rdi
    3e53:	4c 89 5d c8          	mov    %r11,-0x38(%rbp)
    3e57:	48 05 d0 00 00 00    	add    $0xd0,%rax
    3e5d:	48 89 4d c0          	mov    %rcx,-0x40(%rbp)
    3e61:	48 89 45 d0          	mov    %rax,-0x30(%rbp)
    3e65:	e8 00 00 00 00       	callq  3e6a <e1000_alloc_rx_buffers+0xda>
    3e6a:	4c 8b 5d c8          	mov    -0x38(%rbp),%r11
    3e6e:	84 c0                	test   %al,%al
    3e70:	0f 85 da 01 00 00    	jne    4050 <e1000_alloc_rx_buffers+0x2c0>
    3e76:	4c 89 da             	mov    %r11,%rdx
    3e79:	b8 00 00 00 80       	mov    $0x80000000,%eax
    3e7e:	48 8b 4d c0          	mov    -0x40(%rbp),%rcx
    3e82:	81 e2 ff 0f 00 00    	and    $0xfff,%edx
    3e88:	4c 01 d8             	add    %r11,%rax
    3e8b:	0f 82 62 02 00 00    	jb     40f3 <e1000_alloc_rx_buffers+0x363>
    3e91:	48 c7 c6 00 00 00 80 	mov    $0xffffffff80000000,%rsi
    3e98:	48 2b 35 00 00 00 00 	sub    0x0(%rip),%rsi        # 3e9f <e1000_alloc_rx_buffers+0x10f>
    3e9f:	48 01 c6             	add    %rax,%rsi
    3ea2:	48 8b 7d d0          	mov    -0x30(%rbp),%rdi
    3ea6:	45 31 c9             	xor    %r9d,%r9d
    3ea9:	41 b8 02 00 00 00    	mov    $0x2,%r8d
    3eaf:	48 c1 ee 0c          	shr    $0xc,%rsi
    3eb3:	4c 89 5d c8          	mov    %r11,-0x38(%rbp)
    3eb7:	48 c1 e6 06          	shl    $0x6,%rsi
    3ebb:	48 03 35 00 00 00 00 	add    0x0(%rip),%rsi        # 3ec2 <e1000_alloc_rx_buffers+0x132>
    3ec2:	e8 00 00 00 00       	callq  3ec7 <e1000_alloc_rx_buffers+0x137>
    3ec7:	4c 8b 5d c8          	mov    -0x38(%rbp),%r11
    3ecb:	48 83 f8 ff          	cmp    $0xffffffffffffffff,%rax
    3ecf:	48 89 43 08          	mov    %rax,0x8(%rbx)
    3ed3:	0f 84 97 01 00 00    	je     4070 <e1000_alloc_rx_buffers+0x2e0>
    3ed9:	41 8b 96 a0 04 00 00 	mov    0x4a0(%r14),%edx
    3ee0:	8d 4a f8             	lea    -0x8(%rdx),%ecx
    3ee3:	83 f9 01             	cmp    $0x1,%ecx
    3ee6:	0f 86 8c 00 00 00    	jbe    3f78 <e1000_alloc_rx_buffers+0x1e8>
    3eec:	83 fa 06             	cmp    $0x6,%edx
    3eef:	0f 84 83 00 00 00    	je     3f78 <e1000_alloc_rx_buffers+0x1e8>
    3ef5:	4c 89 1b             	mov    %r11,(%rbx)
    3ef8:	e9 e2 fe ff ff       	jmpq   3ddf <e1000_alloc_rx_buffers+0x4f>
    3efd:	8b 45 b4             	mov    -0x4c(%rbp),%eax
    3f00:	4c 8d 40 ff          	lea    -0x1(%rax),%r8
    3f04:	4b 8d 04 18          	lea    (%r8,%r11,1),%rax
    3f08:	4c 31 d8             	xor    %r11,%rax
    3f0b:	48 c1 e8 10          	shr    $0x10,%rax
    3f0f:	0f 84 30 ff ff ff    	je     3e45 <e1000_alloc_rx_buffers+0xb5>
    3f15:	41 f6 86 68 08 00 00 	testb  $0x40,0x868(%r14)
    3f1c:	40 
    3f1d:	0f 85 00 00 00 00    	jne    3f23 <e1000_alloc_rx_buffers+0x193>
    3f23:	4c 89 f7             	mov    %r14,%rdi
    3f26:	4c 89 5d c8          	mov    %r11,-0x38(%rbp)
    3f2a:	4c 89 45 d0          	mov    %r8,-0x30(%rbp)
    3f2e:	e8 1d c8 ff ff       	callq  750 <e1000_alloc_frag>
    3f33:	4c 8b 45 d0          	mov    -0x30(%rbp),%r8
    3f37:	4c 8b 5d c8          	mov    -0x38(%rbp),%r11
    3f3b:	48 85 c0             	test   %rax,%rax
    3f3e:	0f 84 8e 01 00 00    	je     40d2 <e1000_alloc_rx_buffers+0x342>
    3f44:	41 8b 96 a0 04 00 00 	mov    0x4a0(%r14),%edx
    3f4b:	8d 4a f8             	lea    -0x8(%rdx),%ecx
    3f4e:	83 f9 01             	cmp    $0x1,%ecx
    3f51:	0f 86 c6 00 00 00    	jbe    401d <e1000_alloc_rx_buffers+0x28d>
    3f57:	83 fa 06             	cmp    $0x6,%edx
    3f5a:	0f 84 bd 00 00 00    	je     401d <e1000_alloc_rx_buffers+0x28d>
    3f60:	4c 89 df             	mov    %r11,%rdi
    3f63:	48 89 45 d0          	mov    %rax,-0x30(%rbp)
    3f67:	e8 00 00 00 00       	callq  3f6c <e1000_alloc_rx_buffers+0x1dc>
    3f6c:	48 8b 45 d0          	mov    -0x30(%rbp),%rax
    3f70:	49 89 c3             	mov    %rax,%r11
    3f73:	e9 cd fe ff ff       	jmpq   3e45 <e1000_alloc_rx_buffers+0xb5>
    3f78:	41 8b 96 08 02 00 00 	mov    0x208(%r14),%edx
    3f7f:	48 8d 4c 02 ff       	lea    -0x1(%rdx,%rax,1),%rcx
    3f84:	48 31 c1             	xor    %rax,%rcx
    3f87:	48 c1 e9 10          	shr    $0x10,%rcx
    3f8b:	0f 84 64 ff ff ff    	je     3ef5 <e1000_alloc_rx_buffers+0x165>
    3f91:	48 89 c6             	mov    %rax,%rsi
    3f94:	41 f6 86 68 08 00 00 	testb  $0x40,0x868(%r14)
    3f9b:	40 
    3f9c:	0f 85 00 00 00 00    	jne    3fa2 <e1000_alloc_rx_buffers+0x212>
    3fa2:	48 8b 7d d0          	mov    -0x30(%rbp),%rdi
    3fa6:	45 31 c0             	xor    %r8d,%r8d
    3fa9:	b9 02 00 00 00       	mov    $0x2,%ecx
    3fae:	4c 89 5d c8          	mov    %r11,-0x38(%rbp)
    3fb2:	e8 00 00 00 00       	callq  3fb7 <e1000_alloc_rx_buffers+0x227>
    3fb7:	4c 8b 5d c8          	mov    -0x38(%rbp),%r11
    3fbb:	4c 89 df             	mov    %r11,%rdi
    3fbe:	e8 00 00 00 00       	callq  3fc3 <e1000_alloc_rx_buffers+0x233>
    3fc3:	48 c7 03 00 00 00 00 	movq   $0x0,(%rbx)
    3fca:	48 c7 43 08 00 00 00 	movq   $0x0,0x8(%rbx)
    3fd1:	00 
    3fd2:	41 83 86 58 04 00 00 	addl   $0x1,0x458(%r14)
    3fd9:	01 
    3fda:	45 3b 67 18          	cmp    0x18(%r15),%r12d
    3fde:	74 20                	je     4000 <e1000_alloc_rx_buffers+0x270>
    3fe0:	45 89 67 18          	mov    %r12d,0x18(%r15)
    3fe4:	41 8d 54 24 ff       	lea    -0x1(%r12),%edx
    3fe9:	45 85 e4             	test   %r12d,%r12d
    3fec:	0f 84 f5 00 00 00    	je     40e7 <e1000_alloc_rx_buffers+0x357>
    3ff2:	41 0f b7 47 36       	movzwl 0x36(%r15),%eax
    3ff7:	49 03 86 88 04 00 00 	add    0x488(%r14),%rax
    3ffe:	89 10                	mov    %edx,(%rax)
    4000:	48 83 c4 28          	add    $0x28,%rsp
    4004:	5b                   	pop    %rbx
    4005:	41 5c                	pop    %r12
    4007:	41 5d                	pop    %r13
    4009:	41 5e                	pop    %r14
    400b:	41 5f                	pop    %r15
    400d:	5d                   	pop    %rbp
    400e:	e9 00 00 00 00       	jmpq   4013 <e1000_alloc_rx_buffers+0x283>
    4013:	31 db                	xor    %ebx,%ebx
    4015:	45 31 e4             	xor    %r12d,%r12d
    4018:	e9 e4 fd ff ff       	jmpq   3e01 <e1000_alloc_rx_buffers+0x71>
    401d:	49 8d 14 00          	lea    (%r8,%rax,1),%rdx
    4021:	48 31 c2             	xor    %rax,%rdx
    4024:	48 c1 ea 10          	shr    $0x10,%rdx
    4028:	0f 84 32 ff ff ff    	je     3f60 <e1000_alloc_rx_buffers+0x1d0>
    402e:	48 89 c7             	mov    %rax,%rdi
    4031:	4c 89 5d d0          	mov    %r11,-0x30(%rbp)
    4035:	e8 00 00 00 00       	callq  403a <e1000_alloc_rx_buffers+0x2aa>
    403a:	4c 8b 5d d0          	mov    -0x30(%rbp),%r11
    403e:	4c 89 df             	mov    %r11,%rdi
    4041:	e8 00 00 00 00       	callq  4046 <e1000_alloc_rx_buffers+0x2b6>
    4046:	41 83 86 58 04 00 00 	addl   $0x1,0x458(%r14)
    404d:	01 
    404e:	eb 8a                	jmp    3fda <e1000_alloc_rx_buffers+0x24a>
    4050:	44 0f b6 2d 00 00 00 	movzbl 0x0(%rip),%r13d        # 4058 <e1000_alloc_rx_buffers+0x2c8>
    4057:	00 
    4058:	41 80 fd 01          	cmp    $0x1,%r13b
    405c:	0f 87 00 00 00 00    	ja     4062 <e1000_alloc_rx_buffers+0x2d2>
    4062:	41 83 e5 01          	and    $0x1,%r13d
    4066:	74 25                	je     408d <e1000_alloc_rx_buffers+0x2fd>
    4068:	48 c7 43 08 ff ff ff 	movq   $0xffffffffffffffff,0x8(%rbx)
    406f:	ff 
    4070:	4c 89 df             	mov    %r11,%rdi
    4073:	e8 00 00 00 00       	callq  4078 <e1000_alloc_rx_buffers+0x2e8>
    4078:	48 c7 43 08 00 00 00 	movq   $0x0,0x8(%rbx)
    407f:	00 
    4080:	41 83 86 58 04 00 00 	addl   $0x1,0x458(%r14)
    4087:	01 
    4088:	e9 4d ff ff ff       	jmpq   3fda <e1000_alloc_rx_buffers+0x24a>
    408d:	48 8b 45 b8          	mov    -0x48(%rbp),%rax
    4091:	c6 05 00 00 00 00 01 	movb   $0x1,0x0(%rip)        # 4098 <e1000_alloc_rx_buffers+0x308>
    4098:	4c 8b a8 20 01 00 00 	mov    0x120(%rax),%r13
    409f:	4d 85 ed             	test   %r13,%r13
    40a2:	75 07                	jne    40ab <e1000_alloc_rx_buffers+0x31b>
    40a4:	4c 8b a8 d0 00 00 00 	mov    0xd0(%rax),%r13
    40ab:	48 8b 7d d0          	mov    -0x30(%rbp),%rdi
    40af:	4c 89 5d c8          	mov    %r11,-0x38(%rbp)
    40b3:	e8 00 00 00 00       	callq  40b8 <e1000_alloc_rx_buffers+0x328>
    40b8:	4c 89 ea             	mov    %r13,%rdx
    40bb:	48 c7 c7 00 00 00 00 	mov    $0x0,%rdi
    40c2:	48 89 c6             	mov    %rax,%rsi
    40c5:	e8 00 00 00 00       	callq  40ca <e1000_alloc_rx_buffers+0x33a>
    40ca:	0f 0b                	ud2    
    40cc:	4c 8b 5d c8          	mov    -0x38(%rbp),%r11
    40d0:	eb 96                	jmp    4068 <e1000_alloc_rx_buffers+0x2d8>
    40d2:	4c 89 df             	mov    %r11,%rdi
    40d5:	e8 00 00 00 00       	callq  40da <e1000_alloc_rx_buffers+0x34a>
    40da:	41 83 86 58 04 00 00 	addl   $0x1,0x458(%r14)
    40e1:	01 
    40e2:	e9 f3 fe ff ff       	jmpq   3fda <e1000_alloc_rx_buffers+0x24a>
    40e7:	41 8b 47 14          	mov    0x14(%r15),%eax
    40eb:	8d 50 ff             	lea    -0x1(%rax),%edx
    40ee:	e9 ff fe ff ff       	jmpq   3ff2 <e1000_alloc_rx_buffers+0x262>
    40f3:	48 8b 35 00 00 00 00 	mov    0x0(%rip),%rsi        # 40fa <e1000_alloc_rx_buffers+0x36a>
    40fa:	e9 a0 fd ff ff       	jmpq   3e9f <e1000_alloc_rx_buffers+0x10f>
    40ff:	90                   	nop

0000000000004100 <e1000_clean_rx_ring>:
    4100:	e8 00 00 00 00       	callq  4105 <e1000_clean_rx_ring+0x5>
    4105:	55                   	push   %rbp
    4106:	48 89 e5             	mov    %rsp,%rbp
    4109:	41 57                	push   %r15
    410b:	49 89 ff             	mov    %rdi,%r15
    410e:	41 56                	push   %r14
    4110:	49 89 f6             	mov    %rsi,%r14
    4113:	41 55                	push   %r13
    4115:	41 54                	push   %r12
    4117:	45 31 e4             	xor    %r12d,%r12d
    411a:	53                   	push   %rbx
    411b:	48 8b 87 80 04 00 00 	mov    0x480(%rdi),%rax
    4122:	8b 56 14             	mov    0x14(%rsi),%edx
    4125:	4c 8d a8 d0 00 00 00 	lea    0xd0(%rax),%r13
    412c:	85 d2                	test   %edx,%edx
    412e:	75 1f                	jne    414f <e1000_clean_rx_ring+0x4f>
    4130:	e9 95 00 00 00       	jmpq   41ca <e1000_clean_rx_ring+0xca>
    4135:	48 3d 00 00 00 00    	cmp    $0x0,%rax
    413b:	74 4f                	je     418c <e1000_clean_rx_ring+0x8c>
    413d:	48 c7 43 08 00 00 00 	movq   $0x0,0x8(%rbx)
    4144:	00 
    4145:	41 83 c4 01          	add    $0x1,%r12d
    4149:	45 39 66 14          	cmp    %r12d,0x14(%r14)
    414d:	76 7b                	jbe    41ca <e1000_clean_rx_ring+0xca>
    414f:	49 8b 87 98 02 00 00 	mov    0x298(%r15),%rax
    4156:	44 89 e3             	mov    %r12d,%ebx
    4159:	48 c1 e3 04          	shl    $0x4,%rbx
    415d:	49 03 5e 20          	add    0x20(%r14),%rbx
    4161:	48 3d 00 00 00 00    	cmp    $0x0,%rax
    4167:	75 cc                	jne    4135 <e1000_clean_rx_ring+0x35>
    4169:	48 8b 73 08          	mov    0x8(%rbx),%rsi
    416d:	48 85 f6             	test   %rsi,%rsi
    4170:	0f 85 cb 00 00 00    	jne    4241 <e1000_clean_rx_ring+0x141>
    4176:	48 8b 3b             	mov    (%rbx),%rdi
    4179:	48 85 ff             	test   %rdi,%rdi
    417c:	74 bf                	je     413d <e1000_clean_rx_ring+0x3d>
    417e:	e8 00 00 00 00       	callq  4183 <e1000_clean_rx_ring+0x83>
    4183:	48 c7 03 00 00 00 00 	movq   $0x0,(%rbx)
    418a:	eb b1                	jmp    413d <e1000_clean_rx_ring+0x3d>
    418c:	48 8b 73 08          	mov    0x8(%rbx),%rsi
    4190:	48 85 f6             	test   %rsi,%rsi
    4193:	0f 85 c4 00 00 00    	jne    425d <e1000_clean_rx_ring+0x15d>
    4199:	48 8b 3b             	mov    (%rbx),%rdi
    419c:	48 85 ff             	test   %rdi,%rdi
    419f:	74 9c                	je     413d <e1000_clean_rx_ring+0x3d>
    41a1:	48 8b 47 08          	mov    0x8(%rdi),%rax
    41a5:	48 8d 50 ff          	lea    -0x1(%rax),%rdx
    41a9:	a8 01                	test   $0x1,%al
    41ab:	48 0f 45 fa          	cmovne %rdx,%rdi
    41af:	0f 1f 44 00 00       	nopl   0x0(%rax,%rax,1)
    41b4:	f0 ff 4f 34          	lock decl 0x34(%rdi)
    41b8:	0f 84 eb 00 00 00    	je     42a9 <e1000_clean_rx_ring+0x1a9>
    41be:	48 c7 03 00 00 00 00 	movq   $0x0,(%rbx)
    41c5:	e9 73 ff ff ff       	jmpq   413d <e1000_clean_rx_ring+0x3d>
    41ca:	49 8b bf b0 03 00 00 	mov    0x3b0(%r15),%rdi
    41d1:	31 f6                	xor    %esi,%esi
    41d3:	e8 00 00 00 00       	callq  41d8 <e1000_clean_rx_ring+0xd8>
    41d8:	31 f6                	xor    %esi,%esi
    41da:	49 c7 87 b0 03 00 00 	movq   $0x0,0x3b0(%r15)
    41e1:	00 00 00 00 
    41e5:	41 8b 56 14          	mov    0x14(%r14),%edx
    41e9:	49 c7 46 28 00 00 00 	movq   $0x0,0x28(%r14)
    41f0:	00 
    41f1:	49 8b 7e 20          	mov    0x20(%r14),%rdi
    41f5:	48 c1 e2 04          	shl    $0x4,%rdx
    41f9:	e8 00 00 00 00       	callq  41fe <e1000_clean_rx_ring+0xfe>
    41fe:	41 8b 56 10          	mov    0x10(%r14),%edx
    4202:	49 8b 3e             	mov    (%r14),%rdi
    4205:	31 f6                	xor    %esi,%esi
    4207:	e8 00 00 00 00       	callq  420c <e1000_clean_rx_ring+0x10c>
    420c:	49 c7 46 18 00 00 00 	movq   $0x0,0x18(%r14)
    4213:	00 
    4214:	41 0f b7 46 34       	movzwl 0x34(%r14),%eax
    4219:	31 d2                	xor    %edx,%edx
    421b:	49 03 87 88 04 00 00 	add    0x488(%r15),%rax
    4222:	89 10                	mov    %edx,(%rax)
    4224:	41 0f b7 46 36       	movzwl 0x36(%r14),%eax
    4229:	49 03 87 88 04 00 00 	add    0x488(%r15),%rax
    4230:	89 10                	mov    %edx,(%rax)
    4232:	5b                   	pop    %rbx
    4233:	41 5c                	pop    %r12
    4235:	41 5d                	pop    %r13
    4237:	41 5e                	pop    %r14
    4239:	41 5f                	pop    %r15
    423b:	5d                   	pop    %rbp
    423c:	e9 00 00 00 00       	jmpq   4241 <e1000_clean_rx_ring+0x141>
    4241:	41 8b 97 08 02 00 00 	mov    0x208(%r15),%edx
    4248:	45 31 c0             	xor    %r8d,%r8d
    424b:	b9 02 00 00 00       	mov    $0x2,%ecx
    4250:	4c 89 ef             	mov    %r13,%rdi
    4253:	e8 00 00 00 00       	callq  4258 <e1000_clean_rx_ring+0x158>
    4258:	e9 19 ff ff ff       	jmpq   4176 <e1000_clean_rx_ring+0x76>
    425d:	41 8b 97 08 02 00 00 	mov    0x208(%r15),%edx
    4264:	45 31 c0             	xor    %r8d,%r8d
    4267:	b9 02 00 00 00       	mov    $0x2,%ecx
    426c:	4c 89 ef             	mov    %r13,%rdi
    426f:	e8 00 00 00 00       	callq  4274 <e1000_clean_rx_ring+0x174>
    4274:	e9 20 ff ff ff       	jmpq   4199 <e1000_clean_rx_ring+0x99>
    4279:	48 8b 07             	mov    (%rdi),%rax
    427c:	48 c1 e8 33          	shr    $0x33,%rax
    4280:	83 e0 07             	and    $0x7,%eax
    4283:	83 f8 04             	cmp    $0x4,%eax
    4286:	0f 85 28 ff ff ff    	jne    41b4 <e1000_clean_rx_ring+0xb4>
    428c:	48 8b 47 08          	mov    0x8(%rdi),%rax
    4290:	8b 40 60             	mov    0x60(%rax),%eax
    4293:	83 e8 01             	sub    $0x1,%eax
    4296:	83 f8 01             	cmp    $0x1,%eax
    4299:	0f 87 15 ff ff ff    	ja     41b4 <e1000_clean_rx_ring+0xb4>
    429f:	e8 00 00 00 00       	callq  42a4 <e1000_clean_rx_ring+0x1a4>
    42a4:	e9 15 ff ff ff       	jmpq   41be <e1000_clean_rx_ring+0xbe>
    42a9:	e8 00 00 00 00       	callq  42ae <e1000_clean_rx_ring+0x1ae>
    42ae:	e9 0b ff ff ff       	jmpq   41be <e1000_clean_rx_ring+0xbe>
    42b3:	66 66 2e 0f 1f 84 00 	data16 nopw %cs:0x0(%rax,%rax,1)
    42ba:	00 00 00 00 
    42be:	66 90                	xchg   %ax,%ax

00000000000042c0 <e1000_free_rx_resources>:
    42c0:	e8 00 00 00 00       	callq  42c5 <e1000_free_rx_resources+0x5>
    42c5:	55                   	push   %rbp
    42c6:	48 89 e5             	mov    %rsp,%rbp
    42c9:	41 54                	push   %r12
    42cb:	53                   	push   %rbx
    42cc:	48 89 f3             	mov    %rsi,%rbx
    42cf:	4c 8b a7 80 04 00 00 	mov    0x480(%rdi),%r12
    42d6:	e8 25 fe ff ff       	callq  4100 <e1000_clean_rx_ring>
    42db:	48 8b 7b 20          	mov    0x20(%rbx),%rdi
    42df:	e8 00 00 00 00       	callq  42e4 <e1000_free_rx_resources+0x24>
    42e4:	48 8b 4b 08          	mov    0x8(%rbx),%rcx
    42e8:	8b 73 10             	mov    0x10(%rbx),%esi
    42eb:	45 31 c0             	xor    %r8d,%r8d
    42ee:	48 c7 43 20 00 00 00 	movq   $0x0,0x20(%rbx)
    42f5:	00 
    42f6:	48 8b 13             	mov    (%rbx),%rdx
    42f9:	49 8d bc 24 d0 00 00 	lea    0xd0(%r12),%rdi
    4300:	00 
    4301:	e8 00 00 00 00       	callq  4306 <e1000_free_rx_resources+0x46>
    4306:	48 c7 03 00 00 00 00 	movq   $0x0,(%rbx)
    430d:	5b                   	pop    %rbx
    430e:	41 5c                	pop    %r12
    4310:	5d                   	pop    %rbp
    4311:	e9 00 00 00 00       	jmpq   4316 <e1000_free_rx_resources+0x56>
    4316:	66 2e 0f 1f 84 00 00 	nopw   %cs:0x0(%rax,%rax,1)
    431d:	00 00 00 

0000000000004320 <e1000_enter_82542_rst>:
    4320:	e8 00 00 00 00       	callq  4325 <e1000_enter_82542_rst+0x5>
    4325:	55                   	push   %rbp
    4326:	48 89 e5             	mov    %rsp,%rbp
    4329:	41 54                	push   %r12
    432b:	53                   	push   %rbx
    432c:	48 8b 87 b0 04 00 00 	mov    0x4b0(%rdi),%rax
    4333:	48 89 fb             	mov    %rdi,%rbx
    4336:	4c 8b a7 78 04 00 00 	mov    0x478(%rdi),%r12
    433d:	48 8b b8 80 04 00 00 	mov    0x480(%rax),%rdi
    4344:	e8 00 00 00 00       	callq  4349 <e1000_enter_82542_rst+0x29>
    4349:	48 8b 83 88 04 00 00 	mov    0x488(%rbx),%rax
    4350:	8b 80 00 01 00 00    	mov    0x100(%rax),%eax
    4356:	48 8b 93 88 04 00 00 	mov    0x488(%rbx),%rdx
    435d:	83 c8 01             	or     $0x1,%eax
    4360:	89 82 00 01 00 00    	mov    %eax,0x100(%rdx)
    4366:	48 8b 83 88 04 00 00 	mov    0x488(%rbx),%rax
    436d:	8b 40 08             	mov    0x8(%rax),%eax
    4370:	bf b8 ae 47 01       	mov    $0x147aeb8,%edi
    4375:	e8 00 00 00 00       	callq  437a <e1000_enter_82542_rst+0x5a>
    437a:	49 8b 44 24 38       	mov    0x38(%r12),%rax
    437f:	a8 01                	test   $0x1,%al
    4381:	74 3b                	je     43be <e1000_enter_82542_rst+0x9e>
    4383:	8b 83 44 04 00 00    	mov    0x444(%rbx),%eax
    4389:	85 c0                	test   %eax,%eax
    438b:	7e 31                	jle    43be <e1000_enter_82542_rst+0x9e>
    438d:	45 31 e4             	xor    %r12d,%r12d
    4390:	49 63 d4             	movslq %r12d,%rdx
    4393:	48 89 df             	mov    %rbx,%rdi
    4396:	41 83 c4 01          	add    $0x1,%r12d
    439a:	48 8d 04 d5 00 00 00 	lea    0x0(,%rdx,8),%rax
    43a1:	00 
    43a2:	48 29 d0             	sub    %rdx,%rax
    43a5:	48 8b 93 a8 02 00 00 	mov    0x2a8(%rbx),%rdx
    43ac:	48 8d 34 c2          	lea    (%rdx,%rax,8),%rsi
    43b0:	e8 4b fd ff ff       	callq  4100 <e1000_clean_rx_ring>
    43b5:	44 3b a3 44 04 00 00 	cmp    0x444(%rbx),%r12d
    43bc:	7c d2                	jl     4390 <e1000_enter_82542_rst+0x70>
    43be:	5b                   	pop    %rbx
    43bf:	41 5c                	pop    %r12
    43c1:	5d                   	pop    %rbp
    43c2:	e9 00 00 00 00       	jmpq   43c7 <e1000_enter_82542_rst+0xa7>
    43c7:	66 0f 1f 84 00 00 00 	nopw   0x0(%rax,%rax,1)
    43ce:	00 00 

00000000000043d0 <e1000_get_hw_dev>:
    43d0:	e8 00 00 00 00       	callq  43d5 <e1000_get_hw_dev+0x5>
    43d5:	55                   	push   %rbp
    43d6:	48 8b 47 28          	mov    0x28(%rdi),%rax
    43da:	48 8b 80 78 04 00 00 	mov    0x478(%rax),%rax
    43e1:	48 89 e5             	mov    %rsp,%rbp
    43e4:	5d                   	pop    %rbp
    43e5:	e9 00 00 00 00       	jmpq   43ea <e1000_get_hw_dev+0x1a>
    43ea:	66 0f 1f 44 00 00    	nopw   0x0(%rax,%rax,1)

00000000000043f0 <e1000_power_up_phy>:
    43f0:	e8 00 00 00 00       	callq  43f5 <e1000_power_up_phy+0x5>
    43f5:	55                   	push   %rbp
    43f6:	48 89 e5             	mov    %rsp,%rbp
    43f9:	41 54                	push   %r12
    43fb:	48 83 ec 10          	sub    $0x10,%rsp
    43ff:	8b 97 ac 04 00 00    	mov    0x4ac(%rdi),%edx
    4405:	65 48 8b 04 25 28 00 	mov    %gs:0x28,%rax
    440c:	00 00 
    440e:	48 89 45 f0          	mov    %rax,-0x10(%rbp)
    4412:	31 c0                	xor    %eax,%eax
    4414:	31 c0                	xor    %eax,%eax
    4416:	66 89 45 ee          	mov    %ax,-0x12(%rbp)
    441a:	85 d2                	test   %edx,%edx
    441c:	74 1b                	je     4439 <e1000_power_up_phy+0x49>
    441e:	48 8b 45 f0          	mov    -0x10(%rbp),%rax
    4422:	65 48 33 04 25 28 00 	xor    %gs:0x28,%rax
    4429:	00 00 
    442b:	75 3b                	jne    4468 <e1000_power_up_phy+0x78>
    442d:	48 83 c4 10          	add    $0x10,%rsp
    4431:	41 5c                	pop    %r12
    4433:	5d                   	pop    %rbp
    4434:	e9 00 00 00 00       	jmpq   4439 <e1000_power_up_phy+0x49>
    4439:	4c 8d a7 88 04 00 00 	lea    0x488(%rdi),%r12
    4440:	48 8d 55 ee          	lea    -0x12(%rbp),%rdx
    4444:	31 f6                	xor    %esi,%esi
    4446:	4c 89 e7             	mov    %r12,%rdi
    4449:	e8 00 00 00 00       	callq  444e <e1000_power_up_phy+0x5e>
    444e:	0f b7 55 ee          	movzwl -0x12(%rbp),%edx
    4452:	31 f6                	xor    %esi,%esi
    4454:	4c 89 e7             	mov    %r12,%rdi
    4457:	80 e6 f7             	and    $0xf7,%dh
    445a:	66 89 55 ee          	mov    %dx,-0x12(%rbp)
    445e:	0f b7 d2             	movzwl %dx,%edx
    4461:	e8 00 00 00 00       	callq  4466 <e1000_power_up_phy+0x76>
    4466:	eb b6                	jmp    441e <e1000_power_up_phy+0x2e>
    4468:	e8 00 00 00 00       	callq  446d <e1000_power_up_phy+0x7d>
    446d:	0f 1f 00             	nopl   (%rax)

0000000000004470 <e1000_reset>:
    4470:	e8 00 00 00 00       	callq  4475 <e1000_reset+0x5>
    4475:	55                   	push   %rbp
    4476:	48 89 e5             	mov    %rsp,%rbp
    4479:	41 55                	push   %r13
    447b:	4c 8d af 88 04 00 00 	lea    0x488(%rdi),%r13
    4482:	41 54                	push   %r12
    4484:	8b 87 a0 04 00 00    	mov    0x4a0(%rdi),%eax
    448a:	49 89 fc             	mov    %rdi,%r12
    448d:	83 f8 0c             	cmp    $0xc,%eax
    4490:	0f 87 b1 01 00 00    	ja     4647 <e1000_reset+0x1d7>
    4496:	83 f8 0a             	cmp    $0xa,%eax
    4499:	0f 87 38 01 00 00    	ja     45d7 <e1000_reset+0x167>
    449f:	83 f8 05             	cmp    $0x5,%eax
    44a2:	0f 86 27 01 00 00    	jbe    45cf <e1000_reset+0x15f>
    44a8:	b8 30 00 00 00       	mov    $0x30,%eax
    44ad:	49 8b 8c 24 88 04 00 	mov    0x488(%r12),%rcx
    44b4:	00 
    44b5:	41 81 bc 24 20 05 00 	cmpl   $0x5ee,0x520(%r12)
    44bc:	00 ee 05 00 00 
    44c1:	48 8d 91 00 10 00 00 	lea    0x1000(%rcx),%rdx
    44c8:	0f 87 98 01 00 00    	ja     4666 <e1000_reset+0x1f6>
    44ce:	89 02                	mov    %eax,(%rdx)
    44d0:	89 c2                	mov    %eax,%edx
    44d2:	8d 04 c0             	lea    (%rax,%rax,8),%eax
    44d5:	b9 cd cc cc cc       	mov    $0xcccccccd,%ecx
    44da:	4c 89 ef             	mov    %r13,%rdi
    44dd:	41 c6 84 24 9b 05 00 	movb   $0x1,0x59b(%r12)
    44e4:	00 01 
    44e6:	c1 e0 0a             	shl    $0xa,%eax
    44e9:	c1 e2 0a             	shl    $0xa,%edx
    44ec:	41 2b 94 24 20 05 00 	sub    0x520(%r12),%edx
    44f3:	00 
    44f4:	48 0f af c1          	imul   %rcx,%rax
    44f8:	48 c1 e8 23          	shr    $0x23,%rax
    44fc:	39 c2                	cmp    %eax,%edx
    44fe:	0f 46 c2             	cmovbe %edx,%eax
    4501:	ba ff ff ff ff       	mov    $0xffffffff,%edx
    4506:	66 41 89 94 24 62 05 	mov    %dx,0x562(%r12)
    450d:	00 00 
    450f:	83 e0 f8             	and    $0xfffffff8,%eax
    4512:	66 41 89 84 24 5e 05 	mov    %ax,0x55e(%r12)
    4519:	00 00 
    451b:	83 e8 08             	sub    $0x8,%eax
    451e:	66 41 89 84 24 60 05 	mov    %ax,0x560(%r12)
    4525:	00 00 
    4527:	41 8b 84 24 14 05 00 	mov    0x514(%r12),%eax
    452e:	00 
    452f:	41 89 84 24 c8 04 00 	mov    %eax,0x4c8(%r12)
    4536:	00 
    4537:	e8 00 00 00 00       	callq  453c <e1000_reset+0xcc>
    453c:	41 83 bc 24 a0 04 00 	cmpl   $0x3,0x4a0(%r12)
    4543:	00 03 
    4545:	76 10                	jbe    4557 <e1000_reset+0xe7>
    4547:	49 8b 94 24 88 04 00 	mov    0x488(%r12),%rdx
    454e:	00 
    454f:	31 c0                	xor    %eax,%eax
    4551:	89 82 00 58 00 00    	mov    %eax,0x5800(%rdx)
    4557:	4c 89 ef             	mov    %r13,%rdi
    455a:	e8 00 00 00 00       	callq  455f <e1000_reset+0xef>
    455f:	85 c0                	test   %eax,%eax
    4561:	0f 85 00 00 00 00    	jne    4567 <e1000_reset+0xf7>
    4567:	4c 89 e7             	mov    %r12,%rdi
    456a:	e8 b1 cb ff ff       	callq  1120 <e1000_update_mng_vlan>
    456f:	49 8b 84 24 88 04 00 	mov    0x488(%r12),%rax
    4576:	00 
    4577:	41 83 bc 24 a0 04 00 	cmpl   $0x3,0x4a0(%r12)
    457e:	00 03 
    4580:	76 0f                	jbe    4591 <e1000_reset+0x121>
    4582:	41 80 bc 24 77 05 00 	cmpb   $0x1,0x577(%r12)
    4589:	00 01 
    458b:	0f 84 7a 01 00 00    	je     470b <e1000_reset+0x29b>
    4591:	ba 00 81 00 00       	mov    $0x8100,%edx
    4596:	89 50 38             	mov    %edx,0x38(%rax)
    4599:	4c 89 ef             	mov    %r13,%rdi
    459c:	e8 00 00 00 00       	callq  45a1 <e1000_reset+0x131>
    45a1:	49 8d b4 24 d0 07 00 	lea    0x7d0(%r12),%rsi
    45a8:	00 
    45a9:	4c 89 ef             	mov    %r13,%rdi
    45ac:	e8 00 00 00 00       	callq  45b1 <e1000_reset+0x141>
    45b1:	41 8b 84 24 14 02 00 	mov    0x214(%r12),%eax
    45b8:	00 
    45b9:	85 c0                	test   %eax,%eax
    45bb:	74 08                	je     45c5 <e1000_reset+0x155>
    45bd:	4c 89 e7             	mov    %r12,%rdi
    45c0:	e8 2b ce ff ff       	callq  13f0 <e1000_release_manageability.part.0>
    45c5:	41 5c                	pop    %r12
    45c7:	41 5d                	pop    %r13
    45c9:	5d                   	pop    %rbp
    45ca:	e9 00 00 00 00       	jmpq   45cf <e1000_reset+0x15f>
    45cf:	85 c0                	test   %eax,%eax
    45d1:	0f 84 d6 fe ff ff    	je     44ad <e1000_reset+0x3d>
    45d7:	41 81 bc 24 20 05 00 	cmpl   $0x2000,0x520(%r12)
    45de:	00 00 20 00 00 
    45e3:	0f 86 09 01 00 00    	jbe    46f2 <e1000_reset+0x282>
    45e9:	b9 30 00 00 00       	mov    $0x30,%ecx
    45ee:	83 e9 08             	sub    $0x8,%ecx
    45f1:	49 8b b4 24 88 04 00 	mov    0x488(%r12),%rsi
    45f8:	00 
    45f9:	48 8d 96 00 10 00 00 	lea    0x1000(%rsi),%rdx
    4600:	83 f8 0d             	cmp    $0xd,%eax
    4603:	0f 85 44 01 00 00    	jne    474d <e1000_reset+0x2dd>
    4609:	41 c7 84 24 7c 02 00 	movl   $0x0,0x27c(%r12)
    4610:	00 00 00 00 00 
    4615:	89 c8                	mov    %ecx,%eax
    4617:	41 c7 84 24 8c 02 00 	movl   $0x0,0x28c(%r12)
    461e:	00 00 00 00 00 
    4623:	c1 e0 07             	shl    $0x7,%eax
    4626:	41 89 84 24 80 02 00 	mov    %eax,0x280(%r12)
    462d:	00 
    462e:	b8 28 00 00 00       	mov    $0x28,%eax
    4633:	29 c8                	sub    %ecx,%eax
    4635:	c1 e0 0a             	shl    $0xa,%eax
    4638:	41 89 84 24 84 02 00 	mov    %eax,0x284(%r12)
    463f:	00 
    4640:	89 c8                	mov    %ecx,%eax
    4642:	e9 87 fe ff ff       	jmpq   44ce <e1000_reset+0x5e>
    4647:	8d 50 f3             	lea    -0xd(%rax),%edx
    464a:	83 fa 01             	cmp    $0x1,%edx
    464d:	0f 87 98 00 00 00    	ja     46eb <e1000_reset+0x27b>
    4653:	81 bf 20 05 00 00 00 	cmpl   $0x2000,0x520(%rdi)
    465a:	20 00 00 
    465d:	b9 1e 00 00 00       	mov    $0x1e,%ecx
    4662:	77 8a                	ja     45ee <e1000_reset+0x17e>
    4664:	eb 8b                	jmp    45f1 <e1000_reset+0x181>
    4666:	89 81 00 10 00 00    	mov    %eax,0x1000(%rcx)
    466c:	49 8b 84 24 88 04 00 	mov    0x488(%r12),%rax
    4673:	00 
    4674:	8b 80 00 10 00 00    	mov    0x1000(%rax),%eax
    467a:	41 8b bc 24 20 05 00 	mov    0x520(%r12),%edi
    4681:	00 
    4682:	89 c6                	mov    %eax,%esi
    4684:	0f b7 c0             	movzwl %ax,%eax
    4687:	c1 ee 10             	shr    $0x10,%esi
    468a:	8d 8c 3f 17 04 00 00 	lea    0x417(%rdi,%rdi,1),%ecx
    4691:	c1 e9 0a             	shr    $0xa,%ecx
    4694:	39 f1                	cmp    %esi,%ecx
    4696:	0f 86 9d 00 00 00    	jbe    4739 <e1000_reset+0x2c9>
    469c:	49 8b 94 24 88 04 00 	mov    0x488(%r12),%rdx
    46a3:	00 
    46a4:	41 89 c8             	mov    %ecx,%r8d
    46a7:	41 29 f0             	sub    %esi,%r8d
    46aa:	48 81 c2 00 10 00 00 	add    $0x1000,%rdx
    46b1:	41 39 c0             	cmp    %eax,%r8d
    46b4:	0f 83 14 fe ff ff    	jae    44ce <e1000_reset+0x5e>
    46ba:	01 f0                	add    %esi,%eax
    46bc:	29 c8                	sub    %ecx,%eax
    46be:	89 c6                	mov    %eax,%esi
    46c0:	41 8b 84 24 a0 04 00 	mov    0x4a0(%r12),%eax
    46c7:	00 
    46c8:	89 f1                	mov    %esi,%ecx
    46ca:	83 e8 06             	sub    $0x6,%eax
    46cd:	83 e1 f8             	and    $0xfffffff8,%ecx
    46d0:	83 f8 05             	cmp    $0x5,%eax
    46d3:	0f 42 f1             	cmovb  %ecx,%esi
    46d6:	81 c7 ff 03 00 00    	add    $0x3ff,%edi
    46dc:	c1 ef 0a             	shr    $0xa,%edi
    46df:	39 f7                	cmp    %esi,%edi
    46e1:	89 f0                	mov    %esi,%eax
    46e3:	0f 43 c7             	cmovae %edi,%eax
    46e6:	e9 e3 fd ff ff       	jmpq   44ce <e1000_reset+0x5e>
    46eb:	31 c0                	xor    %eax,%eax
    46ed:	e9 bb fd ff ff       	jmpq   44ad <e1000_reset+0x3d>
    46f2:	49 8b 84 24 88 04 00 	mov    0x488(%r12),%rax
    46f9:	00 
    46fa:	48 8d 90 00 10 00 00 	lea    0x1000(%rax),%rdx
    4701:	b8 30 00 00 00       	mov    $0x30,%eax
    4706:	e9 c3 fd ff ff       	jmpq   44ce <e1000_reset+0x5e>
    470b:	66 41 83 bc 24 5a 05 	cmpw   $0x20,0x55a(%r12)
    4712:	00 00 20 
    4715:	0f 85 76 fe ff ff    	jne    4591 <e1000_reset+0x121>
    471b:	8b 00                	mov    (%rax),%eax
    471d:	49 8b 94 24 88 04 00 	mov    0x488(%r12),%rdx
    4724:	00 
    4725:	25 ff ff df ff       	and    $0xffdfffff,%eax
    472a:	89 02                	mov    %eax,(%rdx)
    472c:	49 8b 84 24 88 04 00 	mov    0x488(%r12),%rax
    4733:	00 
    4734:	e9 58 fe ff ff       	jmpq   4591 <e1000_reset+0x121>
    4739:	49 8b b4 24 88 04 00 	mov    0x488(%r12),%rsi
    4740:	00 
    4741:	48 8d 96 00 10 00 00 	lea    0x1000(%rsi),%rdx
    4748:	e9 81 fd ff ff       	jmpq   44ce <e1000_reset+0x5e>
    474d:	89 c8                	mov    %ecx,%eax
    474f:	e9 7a fd ff ff       	jmpq   44ce <e1000_reset+0x5e>
    4754:	66 66 2e 0f 1f 84 00 	data16 nopw %cs:0x0(%rax,%rax,1)
    475b:	00 00 00 00 
    475f:	90                   	nop

0000000000004760 <e1000_io_slot_reset>:
    4760:	e8 00 00 00 00       	callq  4765 <e1000_io_slot_reset+0x5>
    4765:	55                   	push   %rbp
    4766:	48 89 e5             	mov    %rsp,%rbp
    4769:	41 55                	push   %r13
    476b:	41 54                	push   %r12
    476d:	49 89 fc             	mov    %rdi,%r12
    4770:	53                   	push   %rbx
    4771:	48 8b 9f 48 01 00 00 	mov    0x148(%rdi),%rbx
    4778:	8b 83 00 12 00 00    	mov    0x1200(%rbx),%eax
    477e:	4c 8d ab 80 09 00 00 	lea    0x980(%rbx),%r13
    4785:	85 c0                	test   %eax,%eax
    4787:	74 65                	je     47ee <e1000_io_slot_reset+0x8e>
    4789:	e8 00 00 00 00       	callq  478e <e1000_io_slot_reset+0x2e>
    478e:	85 c0                	test   %eax,%eax
    4790:	0f 85 00 00 00 00    	jne    4796 <e1000_io_slot_reset+0x36>
    4796:	f0 80 a3 f0 11 00 00 	lock andb $0xf7,0x11f0(%rbx)
    479d:	f7 
    479e:	4c 89 e7             	mov    %r12,%rdi
    47a1:	e8 00 00 00 00       	callq  47a6 <e1000_io_slot_reset+0x46>
    47a6:	31 d2                	xor    %edx,%edx
    47a8:	4c 89 e7             	mov    %r12,%rdi
    47ab:	be 03 00 00 00       	mov    $0x3,%esi
    47b0:	e8 00 00 00 00       	callq  47b5 <e1000_io_slot_reset+0x55>
    47b5:	31 d2                	xor    %edx,%edx
    47b7:	be 04 00 00 00       	mov    $0x4,%esi
    47bc:	4c 89 e7             	mov    %r12,%rdi
    47bf:	e8 00 00 00 00       	callq  47c4 <e1000_io_slot_reset+0x64>
    47c4:	4c 89 ef             	mov    %r13,%rdi
    47c7:	e8 00 00 00 00       	callq  47cc <e1000_io_slot_reset+0x6c>
    47cc:	48 8b 93 08 0e 00 00 	mov    0xe08(%rbx),%rdx
    47d3:	b8 ff ff ff ff       	mov    $0xffffffff,%eax
    47d8:	89 82 10 58 00 00    	mov    %eax,0x5810(%rdx)
    47de:	b8 05 00 00 00       	mov    $0x5,%eax
    47e3:	5b                   	pop    %rbx
    47e4:	41 5c                	pop    %r12
    47e6:	41 5d                	pop    %r13
    47e8:	5d                   	pop    %rbp
    47e9:	e9 00 00 00 00       	jmpq   47ee <e1000_io_slot_reset+0x8e>
    47ee:	e8 00 00 00 00       	callq  47f3 <e1000_io_slot_reset+0x93>
    47f3:	eb 99                	jmp    478e <e1000_io_slot_reset+0x2e>
    47f5:	66 66 2e 0f 1f 84 00 	data16 nopw %cs:0x0(%rax,%rax,1)
    47fc:	00 00 00 00 

0000000000004800 <e1000_probe>:
    4800:	e8 00 00 00 00       	callq  4805 <e1000_probe+0x5>
    4805:	55                   	push   %rbp
    4806:	45 31 c0             	xor    %r8d,%r8d
    4809:	45 31 c9             	xor    %r9d,%r9d
    480c:	48 89 e5             	mov    %rsp,%rbp
    480f:	41 57                	push   %r15
    4811:	41 56                	push   %r14
    4813:	41 55                	push   %r13
    4815:	41 54                	push   %r12
    4817:	49 89 fc             	mov    %rdi,%r12
    481a:	53                   	push   %rbx
    481b:	48 83 ec 50          	sub    $0x50,%rsp
    481f:	0f b7 4f 3e          	movzwl 0x3e(%rdi),%ecx
    4823:	65 48 8b 04 25 28 00 	mov    %gs:0x28,%rax
    482a:	00 00 
    482c:	48 89 45 d0          	mov    %rax,-0x30(%rbp)
    4830:	31 c0                	xor    %eax,%eax
    4832:	66 44 89 45 bc       	mov    %r8w,-0x44(%rbp)
    4837:	66 44 89 4d be       	mov    %r9w,-0x42(%rbp)
    483c:	66 81 f9 1e 10       	cmp    $0x101e,%cx
    4841:	77 57                	ja     489a <e1000_probe+0x9a>
    4843:	66 81 f9 07 10       	cmp    $0x1007,%cx
    4848:	0f 87 b0 00 00 00    	ja     48fe <e1000_probe+0xfe>
    484e:	be 00 02 00 00       	mov    $0x200,%esi
    4853:	4c 89 e7             	mov    %r12,%rdi
    4856:	45 31 ff             	xor    %r15d,%r15d
    4859:	e8 00 00 00 00       	callq  485e <e1000_probe+0x5e>
    485e:	4c 89 e7             	mov    %r12,%rdi
    4861:	41 89 c5             	mov    %eax,%r13d
    4864:	e8 00 00 00 00       	callq  4869 <e1000_probe+0x69>
    4869:	41 89 c6             	mov    %eax,%r14d
    486c:	45 85 f6             	test   %r14d,%r14d
    486f:	74 5d                	je     48ce <e1000_probe+0xce>
    4871:	48 8b 45 d0          	mov    -0x30(%rbp),%rax
    4875:	65 48 33 04 25 28 00 	xor    %gs:0x28,%rax
    487c:	00 00 
    487e:	0f 85 30 0b 00 00    	jne    53b4 <e1000_probe+0xbb4>
    4884:	48 8d 65 d8          	lea    -0x28(%rbp),%rsp
    4888:	44 89 f0             	mov    %r14d,%eax
    488b:	5b                   	pop    %rbx
    488c:	41 5c                	pop    %r12
    488e:	41 5d                	pop    %r13
    4890:	41 5e                	pop    %r14
    4892:	41 5f                	pop    %r15
    4894:	5d                   	pop    %rbp
    4895:	e9 00 00 00 00       	jmpq   489a <e1000_probe+0x9a>
    489a:	66 81 f9 78 10       	cmp    $0x1078,%cx
    489f:	77 50                	ja     48f1 <e1000_probe+0xf1>
    48a1:	66 81 f9 75 10       	cmp    $0x1075,%cx
    48a6:	76 a6                	jbe    484e <e1000_probe+0x4e>
    48a8:	be 00 03 00 00       	mov    $0x300,%esi
    48ad:	4c 89 e7             	mov    %r12,%rdi
    48b0:	41 bf 01 00 00 00    	mov    $0x1,%r15d
    48b6:	e8 00 00 00 00       	callq  48bb <e1000_probe+0xbb>
    48bb:	4c 89 e7             	mov    %r12,%rdi
    48be:	41 89 c5             	mov    %eax,%r13d
    48c1:	e8 00 00 00 00       	callq  48c6 <e1000_probe+0xc6>
    48c6:	41 89 c6             	mov    %eax,%r14d
    48c9:	45 85 f6             	test   %r14d,%r14d
    48cc:	75 a3                	jne    4871 <e1000_probe+0x71>
    48ce:	48 c7 c2 00 00 00 00 	mov    $0x0,%rdx
    48d5:	44 89 ee             	mov    %r13d,%esi
    48d8:	4c 89 e7             	mov    %r12,%rdi
    48db:	e8 00 00 00 00       	callq  48e0 <e1000_probe+0xe0>
    48e0:	41 89 c6             	mov    %eax,%r14d
    48e3:	85 c0                	test   %eax,%eax
    48e5:	74 30                	je     4917 <e1000_probe+0x117>
    48e7:	4c 89 e7             	mov    %r12,%rdi
    48ea:	e8 00 00 00 00       	callq  48ef <e1000_probe+0xef>
    48ef:	eb 80                	jmp    4871 <e1000_probe+0x71>
    48f1:	66 81 f9 7c 10       	cmp    $0x107c,%cx
    48f6:	0f 85 52 ff ff ff    	jne    484e <e1000_probe+0x4e>
    48fc:	eb aa                	jmp    48a8 <e1000_probe+0xa8>
    48fe:	66 81 e9 08 10       	sub    $0x1008,%cx
    4903:	b8 01 00 00 00       	mov    $0x1,%eax
    4908:	48 d3 e0             	shl    %cl,%rax
    490b:	a9 f3 ff 61 00       	test   $0x61fff3,%eax
    4910:	75 96                	jne    48a8 <e1000_probe+0xa8>
    4912:	e9 37 ff ff ff       	jmpq   484e <e1000_probe+0x4e>
    4917:	4c 89 e7             	mov    %r12,%rdi
    491a:	e8 00 00 00 00       	callq  491f <e1000_probe+0x11f>
    491f:	4c 89 e7             	mov    %r12,%rdi
    4922:	e8 00 00 00 00       	callq  4927 <e1000_probe+0x127>
    4927:	41 89 c6             	mov    %eax,%r14d
    492a:	85 c0                	test   %eax,%eax
    492c:	74 0d                	je     493b <e1000_probe+0x13b>
    492e:	44 89 ee             	mov    %r13d,%esi
    4931:	4c 89 e7             	mov    %r12,%rdi
    4934:	e8 00 00 00 00       	callq  4939 <e1000_probe+0x139>
    4939:	eb ac                	jmp    48e7 <e1000_probe+0xe7>
    493b:	ba 01 00 00 00       	mov    $0x1,%edx
    4940:	be 01 00 00 00       	mov    $0x1,%esi
    4945:	bf b0 09 00 00       	mov    $0x9b0,%edi
    494a:	e8 00 00 00 00       	callq  494f <e1000_probe+0x14f>
    494f:	48 89 c3             	mov    %rax,%rbx
    4952:	48 85 c0             	test   %rax,%rax
    4955:	0f 84 cd 04 00 00    	je     4e28 <e1000_probe+0x628>
    495b:	49 8d 84 24 d0 00 00 	lea    0xd0(%r12),%rax
    4962:	00 
    4963:	8b 0d 00 00 00 00    	mov    0x0(%rip),%ecx        # 4969 <e1000_probe+0x169>
    4969:	48 89 83 a0 05 00 00 	mov    %rax,0x5a0(%rbx)
    4970:	48 89 45 a8          	mov    %rax,-0x58(%rbp)
    4974:	48 8d 83 80 09 00 00 	lea    0x980(%rbx),%rax
    497b:	49 89 9c 24 48 01 00 	mov    %rbx,0x148(%r12)
    4982:	00 
    4983:	48 89 45 b0          	mov    %rax,-0x50(%rbp)
    4987:	48 89 9b f8 0d 00 00 	mov    %rbx,0xdf8(%rbx)
    498e:	4c 89 a3 00 0e 00 00 	mov    %r12,0xe00(%rbx)
    4995:	83 f9 1f             	cmp    $0x1f,%ecx
    4998:	0f 87 80 04 00 00    	ja     4e1e <e1000_probe+0x61e>
    499e:	85 c9                	test   %ecx,%ecx
    49a0:	74 0a                	je     49ac <e1000_probe+0x1ac>
    49a2:	b8 01 00 00 00       	mov    $0x1,%eax
    49a7:	d3 e0                	shl    %cl,%eax
    49a9:	8d 48 ff             	lea    -0x1(%rax),%ecx
    49ac:	48 8d 83 80 09 00 00 	lea    0x980(%rbx),%rax
    49b3:	44 89 bb 00 12 00 00 	mov    %r15d,0x1200(%rbx)
    49ba:	31 f6                	xor    %esi,%esi
    49bc:	4c 89 e7             	mov    %r12,%rdi
    49bf:	89 8b e8 11 00 00    	mov    %ecx,0x11e8(%rbx)
    49c5:	4c 8d bb 08 0e 00 00 	lea    0xe08(%rbx),%r15
    49cc:	44 89 ab fc 11 00 00 	mov    %r13d,0x11fc(%rbx)
    49d3:	48 89 83 30 0e 00 00 	mov    %rax,0xe30(%rbx)
    49da:	e8 00 00 00 00       	callq  49df <e1000_probe+0x1df>
    49df:	48 89 83 08 0e 00 00 	mov    %rax,0xe08(%rbx)
    49e6:	48 85 c0             	test   %rax,%rax
    49e9:	0f 84 44 04 00 00    	je     4e33 <e1000_probe+0x633>
    49ef:	8b bb 00 12 00 00    	mov    0x1200(%rbx),%edi
    49f5:	85 ff                	test   %edi,%edi
    49f7:	74 59                	je     4a52 <e1000_probe+0x252>
    49f9:	49 8d 84 24 00 04 00 	lea    0x400(%r12),%rax
    4a00:	00 
    4a01:	ba 01 00 00 00       	mov    $0x1,%edx
    4a06:	48 63 f2             	movslq %edx,%rsi
    4a09:	48 83 fe 10          	cmp    $0x10,%rsi
    4a0d:	0f 87 3b 0a 00 00    	ja     544e <e1000_probe+0xc4e>
    4a13:	48 8b 48 08          	mov    0x8(%rax),%rcx
    4a17:	48 85 c9             	test   %rcx,%rcx
    4a1a:	74 2a                	je     4a46 <e1000_probe+0x246>
    4a1c:	48 83 fe 10          	cmp    $0x10,%rsi
    4a20:	0f 87 d4 09 00 00    	ja     53fa <e1000_probe+0xbfa>
    4a26:	4c 8b 30             	mov    (%rax),%r14
    4a29:	4c 29 f1             	sub    %r14,%rcx
    4a2c:	48 83 f9 ff          	cmp    $0xffffffffffffffff,%rcx
    4a30:	74 14                	je     4a46 <e1000_probe+0x246>
    4a32:	48 83 fe 10          	cmp    $0x10,%rsi
    4a36:	0f 87 39 0a 00 00    	ja     5475 <e1000_probe+0xc75>
    4a3c:	f6 40 19 01          	testb  $0x1,0x19(%rax)
    4a40:	0f 85 58 08 00 00    	jne    529e <e1000_probe+0xa9e>
    4a46:	83 c2 01             	add    $0x1,%edx
    4a49:	48 83 c0 40          	add    $0x40,%rax
    4a4d:	83 fa 06             	cmp    $0x6,%edx
    4a50:	75 b4                	jne    4a06 <e1000_probe+0x206>
    4a52:	48 8b bb 00 0e 00 00 	mov    0xe00(%rbx),%rdi
