
test.so:     file format elf64-x86-64


Disassembly of section .init:

0000000000001000 <_init>:
    1000:	f3 0f 1e fa          	endbr64 
    1004:	48 83 ec 08          	sub    $0x8,%rsp
    1008:	48 8b 05 c1 2f 00 00 	mov    0x2fc1(%rip),%rax        # 3fd0 <__gmon_start__@Base>
    100f:	48 85 c0             	test   %rax,%rax
    1012:	74 02                	je     1016 <_init+0x16>
    1014:	ff d0                	call   *%rax
    1016:	48 83 c4 08          	add    $0x8,%rsp
    101a:	c3                   	ret    

Disassembly of section .plt:

0000000000001020 <.plt>:
    1020:	ff 35 e2 2f 00 00    	push   0x2fe2(%rip)        # 4008 <_GLOBAL_OFFSET_TABLE_+0x8>
    1026:	f2 ff 25 e3 2f 00 00 	bnd jmp *0x2fe3(%rip)        # 4010 <_GLOBAL_OFFSET_TABLE_+0x10>
    102d:	0f 1f 00             	nopl   (%rax)
    1030:	f3 0f 1e fa          	endbr64 
    1034:	68 00 00 00 00       	push   $0x0
    1039:	f2 e9 e1 ff ff ff    	bnd jmp 1020 <_init+0x20>
    103f:	90                   	nop
    1040:	f3 0f 1e fa          	endbr64 
    1044:	68 01 00 00 00       	push   $0x1
    1049:	f2 e9 d1 ff ff ff    	bnd jmp 1020 <_init+0x20>
    104f:	90                   	nop
    1050:	f3 0f 1e fa          	endbr64 
    1054:	68 02 00 00 00       	push   $0x2
    1059:	f2 e9 c1 ff ff ff    	bnd jmp 1020 <_init+0x20>
    105f:	90                   	nop
    1060:	f3 0f 1e fa          	endbr64 
    1064:	68 03 00 00 00       	push   $0x3
    1069:	f2 e9 b1 ff ff ff    	bnd jmp 1020 <_init+0x20>
    106f:	90                   	nop

Disassembly of section .plt.got:

0000000000001070 <test_returns@plt>:
    1070:	f3 0f 1e fa          	endbr64 
    1074:	f2 ff 25 5d 2f 00 00 	bnd jmp *0x2f5d(%rip)        # 3fd8 <test_returns@@Base+0x2e3f>
    107b:	0f 1f 44 00 00       	nopl   0x0(%rax,%rax,1)

0000000000001080 <test_indirect_jump@plt>:
    1080:	f3 0f 1e fa          	endbr64 
    1084:	f2 ff 25 55 2f 00 00 	bnd jmp *0x2f55(%rip)        # 3fe0 <test_indirect_jump@@Base+0x2e07>
    108b:	0f 1f 44 00 00       	nopl   0x0(%rax,%rax,1)

0000000000001090 <__cxa_finalize@plt>:
    1090:	f3 0f 1e fa          	endbr64 
    1094:	f2 ff 25 5d 2f 00 00 	bnd jmp *0x2f5d(%rip)        # 3ff8 <__cxa_finalize@GLIBC_2.2.5>
    109b:	0f 1f 44 00 00       	nopl   0x0(%rax,%rax,1)

Disassembly of section .plt.sec:

00000000000010a0 <puts@plt>:
    10a0:	f3 0f 1e fa          	endbr64 
    10a4:	f2 ff 25 6d 2f 00 00 	bnd jmp *0x2f6d(%rip)        # 4018 <puts@GLIBC_2.2.5>
    10ab:	0f 1f 44 00 00       	nopl   0x0(%rax,%rax,1)

00000000000010b0 <printf@plt>:
    10b0:	f3 0f 1e fa          	endbr64 
    10b4:	f2 ff 25 65 2f 00 00 	bnd jmp *0x2f65(%rip)        # 4020 <printf@GLIBC_2.2.5>
    10bb:	0f 1f 44 00 00       	nopl   0x0(%rax,%rax,1)

00000000000010c0 <test_ff_instructions@plt>:
    10c0:	f3 0f 1e fa          	endbr64 
    10c4:	f2 ff 25 5d 2f 00 00 	bnd jmp *0x2f5d(%rip)        # 4028 <test_ff_instructions@@Base+0x2e08>
    10cb:	0f 1f 44 00 00       	nopl   0x0(%rax,%rax,1)

00000000000010d0 <test_indirect_call@plt>:
    10d0:	f3 0f 1e fa          	endbr64 
    10d4:	f2 ff 25 55 2f 00 00 	bnd jmp *0x2f55(%rip)        # 4030 <test_indirect_call@@Base+0x2e7d>
    10db:	0f 1f 44 00 00       	nopl   0x0(%rax,%rax,1)

Disassembly of section .text:

00000000000010e0 <deregister_tm_clones>:
    10e0:	48 8d 3d 61 2f 00 00 	lea    0x2f61(%rip),%rdi        # 4048 <completed.0>
    10e7:	48 8d 05 5a 2f 00 00 	lea    0x2f5a(%rip),%rax        # 4048 <completed.0>
    10ee:	48 39 f8             	cmp    %rdi,%rax
    10f1:	74 15                	je     1108 <deregister_tm_clones+0x28>
    10f3:	48 8b 05 ce 2e 00 00 	mov    0x2ece(%rip),%rax        # 3fc8 <_ITM_deregisterTMCloneTable@Base>
    10fa:	48 85 c0             	test   %rax,%rax
    10fd:	74 09                	je     1108 <deregister_tm_clones+0x28>
    10ff:	ff e0                	jmp    *%rax
    1101:	0f 1f 80 00 00 00 00 	nopl   0x0(%rax)
    1108:	c3                   	ret    
    1109:	0f 1f 80 00 00 00 00 	nopl   0x0(%rax)

0000000000001110 <register_tm_clones>:
    1110:	48 8d 3d 31 2f 00 00 	lea    0x2f31(%rip),%rdi        # 4048 <completed.0>
    1117:	48 8d 35 2a 2f 00 00 	lea    0x2f2a(%rip),%rsi        # 4048 <completed.0>
    111e:	48 29 fe             	sub    %rdi,%rsi
    1121:	48 89 f0             	mov    %rsi,%rax
    1124:	48 c1 ee 3f          	shr    $0x3f,%rsi
    1128:	48 c1 f8 03          	sar    $0x3,%rax
    112c:	48 01 c6             	add    %rax,%rsi
    112f:	48 d1 fe             	sar    %rsi
    1132:	74 14                	je     1148 <register_tm_clones+0x38>
    1134:	48 8b 05 ad 2e 00 00 	mov    0x2ead(%rip),%rax        # 3fe8 <_ITM_registerTMCloneTable@Base>
    113b:	48 85 c0             	test   %rax,%rax
    113e:	74 08                	je     1148 <register_tm_clones+0x38>
    1140:	ff e0                	jmp    *%rax
    1142:	66 0f 1f 44 00 00    	nopw   0x0(%rax,%rax,1)
    1148:	c3                   	ret    
    1149:	0f 1f 80 00 00 00 00 	nopl   0x0(%rax)

0000000000001150 <__do_global_dtors_aux>:
    1150:	f3 0f 1e fa          	endbr64 
    1154:	80 3d ed 2e 00 00 00 	cmpb   $0x0,0x2eed(%rip)        # 4048 <completed.0>
    115b:	75 2b                	jne    1188 <__do_global_dtors_aux+0x38>
    115d:	55                   	push   %rbp
    115e:	48 83 3d 92 2e 00 00 	cmpq   $0x0,0x2e92(%rip)        # 3ff8 <__cxa_finalize@GLIBC_2.2.5>
    1165:	00 
    1166:	48 89 e5             	mov    %rsp,%rbp
    1169:	74 0c                	je     1177 <__do_global_dtors_aux+0x27>
    116b:	48 8b 3d c6 2e 00 00 	mov    0x2ec6(%rip),%rdi        # 4038 <__dso_handle>
    1172:	e8 19 ff ff ff       	call   1090 <__cxa_finalize@plt>
    1177:	e8 64 ff ff ff       	call   10e0 <deregister_tm_clones>
    117c:	c6 05 c5 2e 00 00 01 	movb   $0x1,0x2ec5(%rip)        # 4048 <completed.0>
    1183:	5d                   	pop    %rbp
    1184:	c3                   	ret    
    1185:	0f 1f 00             	nopl   (%rax)
    1188:	c3                   	ret    
    1189:	0f 1f 80 00 00 00 00 	nopl   0x0(%rax)

0000000000001190 <frame_dummy>:
    1190:	f3 0f 1e fa          	endbr64 
    1194:	e9 77 ff ff ff       	jmp    1110 <register_tm_clones>

0000000000001199 <test_returns>:
    1199:	f3 0f 1e fa          	endbr64 
    119d:	55                   	push   %rbp
    119e:	48 89 e5             	mov    %rsp,%rbp
    11a1:	48 8d 05 58 0e 00 00 	lea    0xe58(%rip),%rax        # 2000 <_fini+0xd74>
    11a8:	48 89 c7             	mov    %rax,%rdi
    11ab:	e8 f0 fe ff ff       	call   10a0 <puts@plt>
    11b0:	90                   	nop
    11b1:	5d                   	pop    %rbp
    11b2:	c3                   	ret    

00000000000011b3 <test_indirect_call>:
    11b3:	f3 0f 1e fa          	endbr64 
    11b7:	55                   	push   %rbp
    11b8:	48 89 e5             	mov    %rsp,%rbp
    11bb:	48 8d 05 5e 0e 00 00 	lea    0xe5e(%rip),%rax        # 2020 <_fini+0xd94>
    11c2:	48 89 c7             	mov    %rax,%rdi
    11c5:	e8 d6 fe ff ff       	call   10a0 <puts@plt>
    11ca:	48 8b 05 1f 2e 00 00 	mov    0x2e1f(%rip),%rax        # 3ff0 <indirect_call_ptr@@Base-0x50>
    11d1:	48 8b 00             	mov    (%rax),%rax
    11d4:	ff d0                	call   *%rax
    11d6:	90                   	nop
    11d7:	5d                   	pop    %rbp
    11d8:	c3                   	ret    

00000000000011d9 <test_indirect_jump>:
    11d9:	f3 0f 1e fa          	endbr64 
    11dd:	55                   	push   %rbp
    11de:	48 89 e5             	mov    %rsp,%rbp
    11e1:	48 83 ec 20          	sub    $0x20,%rsp
    11e5:	89 7d ec             	mov    %edi,-0x14(%rbp)
    11e8:	8b 45 ec             	mov    -0x14(%rbp),%eax
    11eb:	89 c6                	mov    %eax,%esi
    11ed:	48 8d 05 50 0e 00 00 	lea    0xe50(%rip),%rax        # 2044 <_fini+0xdb8>
    11f4:	48 89 c7             	mov    %rax,%rdi
    11f7:	b8 00 00 00 00       	mov    $0x0,%eax
    11fc:	e8 af fe ff ff       	call   10b0 <printf@plt>
    1201:	48 8b 05 d8 2d 00 00 	mov    0x2dd8(%rip),%rax        # 3fe0 <test_indirect_jump@@Base+0x2e07>
    1208:	48 89 45 f8          	mov    %rax,-0x8(%rbp)
    120c:	83 7d ec 00          	cmpl   $0x0,-0x14(%rbp)
    1210:	75 0b                	jne    121d <test_indirect_jump+0x44>
    1212:	48 8b 45 f8          	mov    -0x8(%rbp),%rax
    1216:	bf 01 00 00 00       	mov    $0x1,%edi
    121b:	ff d0                	call   *%rax
    121d:	90                   	nop
    121e:	c9                   	leave  
    121f:	c3                   	ret    

0000000000001220 <test_ff_instructions>:
    1220:	f3 0f 1e fa          	endbr64 
    1224:	55                   	push   %rbp
    1225:	48 89 e5             	mov    %rsp,%rbp
    1228:	48 83 ec 10          	sub    $0x10,%rsp
    122c:	48 8d 05 28 0e 00 00 	lea    0xe28(%rip),%rax        # 205b <_fini+0xdcf>
    1233:	48 89 c7             	mov    %rax,%rdi
    1236:	e8 65 fe ff ff       	call   10a0 <puts@plt>
    123b:	48 8b 05 96 2d 00 00 	mov    0x2d96(%rip),%rax        # 3fd8 <test_returns@@Base+0x2e3f>
    1242:	48 89 45 f0          	mov    %rax,-0x10(%rbp)
    1246:	48 8b 45 f0          	mov    -0x10(%rbp),%rax
    124a:	ff d0                	call   *%rax
    124c:	48 8b 05 8d 2d 00 00 	mov    0x2d8d(%rip),%rax        # 3fe0 <test_indirect_jump@@Base+0x2e07>
    1253:	48 89 45 f8          	mov    %rax,-0x8(%rbp)
    1257:	48 8b 45 f8          	mov    -0x8(%rbp),%rax
    125b:	bf e7 03 00 00       	mov    $0x3e7,%edi
    1260:	ff d0                	call   *%rax
    1262:	90                   	nop
    1263:	c9                   	leave  
    1264:	c3                   	ret    

0000000000001265 <test_all>:
    1265:	f3 0f 1e fa          	endbr64 
    1269:	55                   	push   %rbp
    126a:	48 89 e5             	mov    %rsp,%rbp
    126d:	e8 fe fd ff ff       	call   1070 <test_returns@plt>
    1272:	e8 59 fe ff ff       	call   10d0 <test_indirect_call@plt>
    1277:	bf 00 00 00 00       	mov    $0x0,%edi
    127c:	e8 ff fd ff ff       	call   1080 <test_indirect_jump@plt>
    1281:	e8 3a fe ff ff       	call   10c0 <test_ff_instructions@plt>
    1286:	90                   	nop
    1287:	5d                   	pop    %rbp
    1288:	c3                   	ret    

Disassembly of section .fini:

000000000000128c <_fini>:
    128c:	f3 0f 1e fa          	endbr64 
    1290:	48 83 ec 08          	sub    $0x8,%rsp
    1294:	48 83 c4 08          	add    $0x8,%rsp
    1298:	c3                   	ret    
