
data/ko/e1000.ko:     file format elf64-x86-64


Disassembly of section .text:

0000000000000000 <__pfx_e1000_alloc_dummy_rx_buffers>:
       0:	90                   	nop
       1:	90                   	nop
       2:	90                   	nop
       3:	90                   	nop
       4:	90                   	nop
       5:	90                   	nop
       6:	90                   	nop
       7:	90                   	nop
       8:	90                   	nop
       9:	90                   	nop
       a:	90                   	nop
       b:	90                   	nop
       c:	90                   	nop
       d:	90                   	nop
       e:	90                   	nop
       f:	90                   	nop

0000000000000010 <e1000_alloc_dummy_rx_buffers>:
      10:	e8 00 00 00 00       	call   15 <e1000_alloc_dummy_rx_buffers+0x5>
      15:	55                   	push   %rbp
      16:	48 89 e5             	mov    %rsp,%rbp
      19:	5d                   	pop    %rbp
      1a:	e9 00 00 00 00       	jmp    1f <e1000_alloc_dummy_rx_buffers+0xf>
      1f:	90                   	nop

0000000000000020 <__pfx_e1000_fix_features>:
      20:	90                   	nop
      21:	90                   	nop
      22:	90                   	nop
      23:	90                   	nop
      24:	90                   	nop
      25:	90                   	nop
      26:	90                   	nop
      27:	90                   	nop
      28:	90                   	nop
      29:	90                   	nop
      2a:	90                   	nop
      2b:	90                   	nop
      2c:	90                   	nop
      2d:	90                   	nop
      2e:	90                   	nop
      2f:	90                   	nop

0000000000000030 <e1000_fix_features>:
      30:	e8 00 00 00 00       	call   35 <e1000_fix_features+0x5>
      35:	55                   	push   %rbp
      36:	48 89 f2             	mov    %rsi,%rdx
      39:	48 89 f0             	mov    %rsi,%rax
      3c:	80 ca 80             	or     $0x80,%dl
      3f:	24 7f                	and    $0x7f,%al
      41:	f7 c6 00 01 00 00    	test   $0x100,%esi
      47:	48 0f 45 c2          	cmovne %rdx,%rax
      4b:	48 89 e5             	mov    %rsp,%rbp
      4e:	5d                   	pop    %rbp
      4f:	31 d2                	xor    %edx,%edx
      51:	31 f6                	xor    %esi,%esi
      53:	e9 00 00 00 00       	jmp    58 <e1000_fix_features+0x28>
      58:	0f 1f 84 00 00 00 00 	nopl   0x0(%rax,%rax,1)
      5f:	00 

0000000000000060 <__pfx_e1000_regdump>:
      60:	90                   	nop
      61:	90                   	nop
      62:	90                   	nop
      63:	90                   	nop
      64:	90                   	nop
      65:	90                   	nop
      66:	90                   	nop
      67:	90                   	nop
      68:	90                   	nop
      69:	90                   	nop
      6a:	90                   	nop
      6b:	90                   	nop
      6c:	90                   	nop
      6d:	90                   	nop
      6e:	90                   	nop
      6f:	90                   	nop

0000000000000070 <e1000_regdump>:
      70:	e8 00 00 00 00       	call   75 <e1000_regdump+0x5>
      75:	55                   	push   %rbp
      76:	48 89 fa             	mov    %rdi,%rdx
      79:	b9 13 00 00 00       	mov    $0x13,%ecx
      7e:	48 89 e5             	mov    %rsp,%rbp
      81:	41 54                	push   %r12
      83:	53                   	push   %rbx
      84:	4c 8d a5 50 ff ff ff 	lea    -0xb0(%rbp),%r12
      8b:	4c 89 e7             	mov    %r12,%rdi
      8e:	48 81 ec a8 00 00 00 	sub    $0xa8,%rsp
      95:	65 48 8b 04 25 28 00 	mov    %gs:0x28,%rax
      9c:	00 00 
      9e:	48 89 45 e8          	mov    %rax,-0x18(%rbp)
      a2:	31 c0                	xor    %eax,%eax
      a4:	f3 48 ab             	rep stos %rax,%es:(%rdi)
      a7:	48 8b 82 88 04 00 00 	mov    0x488(%rdx),%rax
      ae:	8b 00                	mov    (%rax),%eax
      b0:	89 85 50 ff ff ff    	mov    %eax,-0xb0(%rbp)
      b6:	48 8b 82 88 04 00 00 	mov    0x488(%rdx),%rax
      bd:	48 83 c0 08          	add    $0x8,%rax
      c1:	8b 00                	mov    (%rax),%eax
      c3:	89 85 54 ff ff ff    	mov    %eax,-0xac(%rbp)
      c9:	48 8b 82 88 04 00 00 	mov    0x488(%rdx),%rax
      d0:	48 05 00 01 00 00    	add    $0x100,%rax
      d6:	8b 00                	mov    (%rax),%eax
      d8:	83 ba a0 04 00 00 03 	cmpl   $0x3,0x4a0(%rdx)
      df:	89 85 58 ff ff ff    	mov    %eax,-0xa8(%rbp)
      e5:	48 19 c0             	sbb    %rax,%rax
      e8:	48 25 10 d9 ff ff    	and    $0xffffffffffffd910,%rax
      ee:	48 05 08 28 00 00    	add    $0x2808,%rax
      f4:	48 03 82 88 04 00 00 	add    0x488(%rdx),%rax
      fb:	8b 00                	mov    (%rax),%eax
      fd:	83 ba a0 04 00 00 03 	cmpl   $0x3,0x4a0(%rdx)
     104:	89 85 5c ff ff ff    	mov    %eax,-0xa4(%rbp)
     10a:	48 19 c0             	sbb    %rax,%rax
     10d:	48 25 10 d9 ff ff    	and    $0xffffffffffffd910,%rax
     113:	48 05 10 28 00 00    	add    $0x2810,%rax
     119:	48 03 82 88 04 00 00 	add    0x488(%rdx),%rax
     120:	8b 00                	mov    (%rax),%eax
     122:	83 ba a0 04 00 00 03 	cmpl   $0x3,0x4a0(%rdx)
     129:	89 85 60 ff ff ff    	mov    %eax,-0xa0(%rbp)
     12f:	48 19 c0             	sbb    %rax,%rax
     132:	48 25 10 d9 ff ff    	and    $0xffffffffffffd910,%rax
     138:	48 05 18 28 00 00    	add    $0x2818,%rax
     13e:	48 03 82 88 04 00 00 	add    0x488(%rdx),%rax
     145:	8b 00                	mov    (%rax),%eax
     147:	83 ba a0 04 00 00 03 	cmpl   $0x3,0x4a0(%rdx)
     14e:	89 85 64 ff ff ff    	mov    %eax,-0x9c(%rbp)
     154:	48 19 c0             	sbb    %rax,%rax
     157:	48 25 e8 d8 ff ff    	and    $0xffffffffffffd8e8,%rax
     15d:	48 05 20 28 00 00    	add    $0x2820,%rax
     163:	48 03 82 88 04 00 00 	add    0x488(%rdx),%rax
     16a:	8b 00                	mov    (%rax),%eax
     16c:	89 85 68 ff ff ff    	mov    %eax,-0x98(%rbp)
     172:	48 8b 82 88 04 00 00 	mov    0x488(%rdx),%rax
     179:	48 05 00 04 00 00    	add    $0x400,%rax
     17f:	8b 00                	mov    (%rax),%eax
     181:	83 ba a0 04 00 00 03 	cmpl   $0x3,0x4a0(%rdx)
     188:	89 85 6c ff ff ff    	mov    %eax,-0x94(%rbp)
     18e:	48 19 c0             	sbb    %rax,%rax
     191:	48 25 20 cc ff ff    	and    $0xffffffffffffcc20,%rax
     197:	48 05 00 38 00 00    	add    $0x3800,%rax
     19d:	48 03 82 88 04 00 00 	add    0x488(%rdx),%rax
     1a4:	8b 00                	mov    (%rax),%eax
     1a6:	83 ba a0 04 00 00 03 	cmpl   $0x3,0x4a0(%rdx)
     1ad:	89 85 70 ff ff ff    	mov    %eax,-0x90(%rbp)
     1b3:	48 19 c0             	sbb    %rax,%rax
     1b6:	48 25 20 cc ff ff    	and    $0xffffffffffffcc20,%rax
     1bc:	48 05 04 38 00 00    	add    $0x3804,%rax
     1c2:	48 03 82 88 04 00 00 	add    0x488(%rdx),%rax
     1c9:	8b 00                	mov    (%rax),%eax
     1cb:	83 ba a0 04 00 00 03 	cmpl   $0x3,0x4a0(%rdx)
     1d2:	89 85 74 ff ff ff    	mov    %eax,-0x8c(%rbp)
     1d8:	48 19 c0             	sbb    %rax,%rax
     1db:	48 25 20 cc ff ff    	and    $0xffffffffffffcc20,%rax
     1e1:	48 05 08 38 00 00    	add    $0x3808,%rax
     1e7:	48 03 82 88 04 00 00 	add    0x488(%rdx),%rax
     1ee:	8b 00                	mov    (%rax),%eax
     1f0:	83 ba a0 04 00 00 03 	cmpl   $0x3,0x4a0(%rdx)
     1f7:	89 85 78 ff ff ff    	mov    %eax,-0x88(%rbp)
     1fd:	48 19 c0             	sbb    %rax,%rax
     200:	48 25 20 cc ff ff    	and    $0xffffffffffffcc20,%rax
     206:	48 05 10 38 00 00    	add    $0x3810,%rax
     20c:	48 03 82 88 04 00 00 	add    0x488(%rdx),%rax
     213:	8b 00                	mov    (%rax),%eax
     215:	83 ba a0 04 00 00 03 	cmpl   $0x3,0x4a0(%rdx)
     21c:	89 85 7c ff ff ff    	mov    %eax,-0x84(%rbp)
     222:	48 19 c0             	sbb    %rax,%rax
     225:	48 25 20 cc ff ff    	and    $0xffffffffffffcc20,%rax
     22b:	48 05 18 38 00 00    	add    $0x3818,%rax
     231:	48 03 82 88 04 00 00 	add    0x488(%rdx),%rax
     238:	8b 00                	mov    (%rax),%eax
     23a:	83 ba a0 04 00 00 03 	cmpl   $0x3,0x4a0(%rdx)
     241:	89 45 80             	mov    %eax,-0x80(%rbp)
     244:	48 19 c0             	sbb    %rax,%rax
     247:	48 25 20 cc ff ff    	and    $0xffffffffffffcc20,%rax
     24d:	48 05 20 38 00 00    	add    $0x3820,%rax
     253:	48 03 82 88 04 00 00 	add    0x488(%rdx),%rax
     25a:	8b 00                	mov    (%rax),%eax
     25c:	89 45 84             	mov    %eax,-0x7c(%rbp)
     25f:	48 8b 82 88 04 00 00 	mov    0x488(%rdx),%rax
     266:	48 05 28 38 00 00    	add    $0x3828,%rax
     26c:	8b 00                	mov    (%rax),%eax
     26e:	89 45 88             	mov    %eax,-0x78(%rbp)
     271:	48 8b 82 88 04 00 00 	mov    0x488(%rdx),%rax
     278:	48 05 2c 38 00 00    	add    $0x382c,%rax
     27e:	8b 00                	mov    (%rax),%eax
     280:	89 45 8c             	mov    %eax,-0x74(%rbp)
     283:	48 8b 82 88 04 00 00 	mov    0x488(%rdx),%rax
     28a:	48 05 40 38 00 00    	add    $0x3840,%rax
     290:	8b 00                	mov    (%rax),%eax
     292:	89 45 90             	mov    %eax,-0x70(%rbp)
     295:	48 8b 82 88 04 00 00 	mov    0x488(%rdx),%rax
     29c:	48 05 00 39 00 00    	add    $0x3900,%rax
     2a2:	8b 00                	mov    (%rax),%eax
     2a4:	89 45 94             	mov    %eax,-0x6c(%rbp)
     2a7:	48 8b 82 88 04 00 00 	mov    0x488(%rdx),%rax
     2ae:	48 05 04 39 00 00    	add    $0x3904,%rax
     2b4:	8b 00                	mov    (%rax),%eax
     2b6:	89 45 98             	mov    %eax,-0x68(%rbp)
     2b9:	48 8b 82 88 04 00 00 	mov    0x488(%rdx),%rax
     2c0:	48 05 08 39 00 00    	add    $0x3908,%rax
     2c6:	8b 00                	mov    (%rax),%eax
     2c8:	89 45 9c             	mov    %eax,-0x64(%rbp)
     2cb:	48 8b 82 88 04 00 00 	mov    0x488(%rdx),%rax
     2d2:	48 05 10 39 00 00    	add    $0x3910,%rax
     2d8:	8b 00                	mov    (%rax),%eax
     2da:	89 45 a0             	mov    %eax,-0x60(%rbp)
     2dd:	48 8b 82 88 04 00 00 	mov    0x488(%rdx),%rax
     2e4:	48 05 18 39 00 00    	add    $0x3918,%rax
     2ea:	8b 00                	mov    (%rax),%eax
     2ec:	89 45 a4             	mov    %eax,-0x5c(%rbp)
     2ef:	48 8b 82 88 04 00 00 	mov    0x488(%rdx),%rax
     2f6:	48 05 28 39 00 00    	add    $0x3928,%rax
     2fc:	8b 00                	mov    (%rax),%eax
     2fe:	89 45 a8             	mov    %eax,-0x58(%rbp)
     301:	48 8b 82 88 04 00 00 	mov    0x488(%rdx),%rax
     308:	48 05 40 39 00 00    	add    $0x3940,%rax
     30e:	8b 00                	mov    (%rax),%eax
     310:	89 45 ac             	mov    %eax,-0x54(%rbp)
     313:	48 8b 82 88 04 00 00 	mov    0x488(%rdx),%rax
     31a:	48 83 c0 18          	add    $0x18,%rax
     31e:	8b 00                	mov    (%rax),%eax
     320:	89 45 b0             	mov    %eax,-0x50(%rbp)
     323:	48 8b 82 88 04 00 00 	mov    0x488(%rdx),%rax
     32a:	48 05 08 20 00 00    	add    $0x2008,%rax
     330:	8b 00                	mov    (%rax),%eax
     332:	83 ba a0 04 00 00 03 	cmpl   $0x3,0x4a0(%rdx)
     339:	89 45 b4             	mov    %eax,-0x4c(%rbp)
     33c:	48 19 c0             	sbb    %rax,%rax
     33f:	48 25 10 d9 ff ff    	and    $0xffffffffffffd910,%rax
     345:	48 05 00 28 00 00    	add    $0x2800,%rax
     34b:	48 03 82 88 04 00 00 	add    0x488(%rdx),%rax
     352:	8b 00                	mov    (%rax),%eax
     354:	83 ba a0 04 00 00 03 	cmpl   $0x3,0x4a0(%rdx)
     35b:	89 45 b8             	mov    %eax,-0x48(%rbp)
     35e:	48 19 c0             	sbb    %rax,%rax
     361:	48 25 10 d9 ff ff    	and    $0xffffffffffffd910,%rax
     367:	48 05 04 28 00 00    	add    $0x2804,%rax
     36d:	48 03 82 88 04 00 00 	add    0x488(%rdx),%rax
     374:	8b 00                	mov    (%rax),%eax
     376:	83 ba a0 04 00 00 03 	cmpl   $0x3,0x4a0(%rdx)
     37d:	89 45 bc             	mov    %eax,-0x44(%rbp)
     380:	48 19 c0             	sbb    %rax,%rax
     383:	25 00 4c 00 00       	and    $0x4c00,%eax
     388:	48 05 10 34 00 00    	add    $0x3410,%rax
     38e:	48 03 82 88 04 00 00 	add    0x488(%rdx),%rax
     395:	8b 00                	mov    (%rax),%eax
     397:	83 ba a0 04 00 00 03 	cmpl   $0x3,0x4a0(%rdx)
     39e:	89 45 c0             	mov    %eax,-0x40(%rbp)
     3a1:	48 19 c0             	sbb    %rax,%rax
     3a4:	25 00 4c 00 00       	and    $0x4c00,%eax
     3a9:	48 05 18 34 00 00    	add    $0x3418,%rax
     3af:	48 03 82 88 04 00 00 	add    0x488(%rdx),%rax
     3b6:	8b 00                	mov    (%rax),%eax
     3b8:	89 45 c4             	mov    %eax,-0x3c(%rbp)
     3bb:	48 8b 82 88 04 00 00 	mov    0x488(%rdx),%rax
     3c2:	48 05 20 34 00 00    	add    $0x3420,%rax
     3c8:	8b 00                	mov    (%rax),%eax
     3ca:	89 45 c8             	mov    %eax,-0x38(%rbp)
     3cd:	48 8b 82 88 04 00 00 	mov    0x488(%rdx),%rax
     3d4:	48 05 28 34 00 00    	add    $0x3428,%rax
     3da:	8b 00                	mov    (%rax),%eax
     3dc:	89 45 cc             	mov    %eax,-0x34(%rbp)
     3df:	48 8b 82 88 04 00 00 	mov    0x488(%rdx),%rax
     3e6:	48 05 30 34 00 00    	add    $0x3430,%rax
     3ec:	8b 00                	mov    (%rax),%eax
     3ee:	89 45 d0             	mov    %eax,-0x30(%rbp)
     3f1:	48 8b 82 88 04 00 00 	mov    0x488(%rdx),%rax
     3f8:	48 05 10 24 00 00    	add    $0x2410,%rax
     3fe:	8b 00                	mov    (%rax),%eax
     400:	89 45 d4             	mov    %eax,-0x2c(%rbp)
     403:	48 8b 82 88 04 00 00 	mov    0x488(%rdx),%rax
     40a:	48 05 18 24 00 00    	add    $0x2418,%rax
     410:	8b 00                	mov    (%rax),%eax
     412:	89 45 d8             	mov    %eax,-0x28(%rbp)
     415:	48 8b 82 88 04 00 00 	mov    0x488(%rdx),%rax
     41c:	48 05 20 24 00 00    	add    $0x2420,%rax
     422:	8b 00                	mov    (%rax),%eax
     424:	89 45 dc             	mov    %eax,-0x24(%rbp)
     427:	48 8b 82 88 04 00 00 	mov    0x488(%rdx),%rax
     42e:	48 05 28 24 00 00    	add    $0x2428,%rax
     434:	8b 00                	mov    (%rax),%eax
     436:	89 45 e0             	mov    %eax,-0x20(%rbp)
     439:	48 8b 82 88 04 00 00 	mov    0x488(%rdx),%rax
     440:	8b 80 30 24 00 00    	mov    0x2430(%rax),%eax
     446:	48 c7 c7 00 00 00 00 	mov    $0x0,%rdi
     44d:	89 45 e4             	mov    %eax,-0x1c(%rbp)
     450:	31 db                	xor    %ebx,%ebx
     452:	e8 00 00 00 00       	call   457 <e1000_regdump+0x3e7>
     457:	48 63 f3             	movslq %ebx,%rsi
     45a:	41 8b 14 9c          	mov    (%r12,%rbx,4),%edx
     45e:	48 83 fe 25          	cmp    $0x25,%rsi
     462:	77 47                	ja     4ab <e1000_regdump+0x43b>
     464:	48 8b 34 dd 00 00 00 	mov    0x0(,%rbx,8),%rsi
     46b:	00 
     46c:	48 c7 c7 00 00 00 00 	mov    $0x0,%rdi
     473:	48 83 c3 01          	add    $0x1,%rbx
     477:	e8 00 00 00 00       	call   47c <e1000_regdump+0x40c>
     47c:	48 83 fb 26          	cmp    $0x26,%rbx
     480:	75 d5                	jne    457 <e1000_regdump+0x3e7>
     482:	48 8b 45 e8          	mov    -0x18(%rbp),%rax
     486:	65 48 2b 04 25 28 00 	sub    %gs:0x28,%rax
     48d:	00 00 
     48f:	75 34                	jne    4c5 <e1000_regdump+0x455>
     491:	48 81 c4 a8 00 00 00 	add    $0xa8,%rsp
     498:	5b                   	pop    %rbx
     499:	41 5c                	pop    %r12
     49b:	5d                   	pop    %rbp
     49c:	31 c0                	xor    %eax,%eax
     49e:	31 d2                	xor    %edx,%edx
     4a0:	31 c9                	xor    %ecx,%ecx
     4a2:	31 f6                	xor    %esi,%esi
     4a4:	31 ff                	xor    %edi,%edi
     4a6:	e9 00 00 00 00       	jmp    4ab <e1000_regdump+0x43b>
     4ab:	48 c7 c7 00 00 00 00 	mov    $0x0,%rdi
     4b2:	89 95 4c ff ff ff    	mov    %edx,-0xb4(%rbp)
     4b8:	e8 00 00 00 00       	call   4bd <e1000_regdump+0x44d>
     4bd:	8b 95 4c ff ff ff    	mov    -0xb4(%rbp),%edx
     4c3:	eb 9f                	jmp    464 <e1000_regdump+0x3f4>
     4c5:	e8 00 00 00 00       	call   4ca <e1000_regdump+0x45a>
     4ca:	66 0f 1f 44 00 00    	nopw   0x0(%rax,%rax,1)

00000000000004d0 <__pfx_e1000_dump>:
     4d0:	90                   	nop
     4d1:	90                   	nop
     4d2:	90                   	nop
     4d3:	90                   	nop
     4d4:	90                   	nop
     4d5:	90                   	nop
     4d6:	90                   	nop
     4d7:	90                   	nop
     4d8:	90                   	nop
     4d9:	90                   	nop
     4da:	90                   	nop
     4db:	90                   	nop
     4dc:	90                   	nop
     4dd:	90                   	nop
     4de:	90                   	nop
     4df:	90                   	nop

00000000000004e0 <e1000_dump>:
     4e0:	e8 00 00 00 00       	call   4e5 <e1000_dump+0x5>
     4e5:	f6 87 69 08 00 00 20 	testb  $0x20,0x869(%rdi)
     4ec:	75 1b                	jne    509 <e1000_dump+0x29>
     4ee:	31 c0                	xor    %eax,%eax
     4f0:	31 d2                	xor    %edx,%edx
     4f2:	31 c9                	xor    %ecx,%ecx
     4f4:	31 f6                	xor    %esi,%esi
     4f6:	31 ff                	xor    %edi,%edi
     4f8:	45 31 c0             	xor    %r8d,%r8d
     4fb:	45 31 c9             	xor    %r9d,%r9d
     4fe:	45 31 d2             	xor    %r10d,%r10d
     501:	45 31 db             	xor    %r11d,%r11d
     504:	e9 00 00 00 00       	jmp    509 <e1000_dump+0x29>
     509:	55                   	push   %rbp
     50a:	48 89 e5             	mov    %rsp,%rbp
     50d:	41 57                	push   %r15
     50f:	41 56                	push   %r14
     511:	41 55                	push   %r13
     513:	41 54                	push   %r12
     515:	53                   	push   %rbx
     516:	48 89 fb             	mov    %rdi,%rbx
     519:	4c 8b bf 40 02 00 00 	mov    0x240(%rdi),%r15
     520:	4c 8b af a8 02 00 00 	mov    0x2a8(%rdi),%r13
     527:	e8 44 fb ff ff       	call   70 <e1000_regdump>
     52c:	48 c7 c7 00 00 00 00 	mov    $0x0,%rdi
     533:	e8 00 00 00 00       	call   538 <e1000_dump+0x58>
     538:	48 c7 c7 00 00 00 00 	mov    $0x0,%rdi
     53f:	e8 00 00 00 00       	call   544 <e1000_dump+0x64>
     544:	48 c7 c7 00 00 00 00 	mov    $0x0,%rdi
     54b:	e8 00 00 00 00       	call   550 <e1000_dump+0x70>
     550:	f6 83 69 08 00 00 04 	testb  $0x4,0x869(%rbx)
     557:	0f 84 bd 00 00 00    	je     61a <e1000_dump+0x13a>
     55d:	49 8b 07             	mov    (%r15),%rax
     560:	45 31 e4             	xor    %r12d,%r12d
     563:	49 c7 c6 00 00 00 00 	mov    $0x0,%r14
     56a:	48 85 c0             	test   %rax,%rax
     56d:	75 64                	jne    5d3 <e1000_dump+0xf3>
     56f:	e9 a6 00 00 00       	jmp    61a <e1000_dump+0x13a>
     574:	41 39 c4             	cmp    %eax,%r12d
     577:	48 c7 c2 00 00 00 00 	mov    $0x0,%rdx
     57e:	49 0f 45 d6          	cmovne %r14,%rdx
     582:	0f b7 7e 18          	movzwl 0x18(%rsi),%edi
     586:	4c 8b 41 08          	mov    0x8(%rcx),%r8
     58a:	48 8b 06             	mov    (%rsi),%rax
     58d:	4c 8b 5e 10          	mov    0x10(%rsi),%r11
     591:	44 0f b7 56 1a       	movzwl 0x1a(%rsi),%r10d
     596:	4c 8b 4e 08          	mov    0x8(%rsi),%r9
     59a:	31 f6                	xor    %esi,%esi
     59c:	41 f7 c0 00 00 10 00 	test   $0x100000,%r8d
     5a3:	48 8b 09             	mov    (%rcx),%rcx
     5a6:	52                   	push   %rdx
     5a7:	40 0f 95 c6          	setne  %sil
     5ab:	44 89 e2             	mov    %r12d,%edx
     5ae:	50                   	push   %rax
     5af:	83 c6 63             	add    $0x63,%esi
     5b2:	41 83 c4 01          	add    $0x1,%r12d
     5b6:	41 53                	push   %r11
     5b8:	41 52                	push   %r10
     5ba:	57                   	push   %rdi
     5bb:	48 c7 c7 00 00 00 00 	mov    $0x0,%rdi
     5c2:	e8 00 00 00 00       	call   5c7 <e1000_dump+0xe7>
     5c7:	49 8b 07             	mov    (%r15),%rax
     5ca:	48 83 c4 28          	add    $0x28,%rsp
     5ce:	48 85 c0             	test   %rax,%rax
     5d1:	74 47                	je     61a <e1000_dump+0x13a>
     5d3:	45 3b 67 14          	cmp    0x14(%r15),%r12d
     5d7:	73 41                	jae    61a <e1000_dump+0x13a>
     5d9:	49 63 d4             	movslq %r12d,%rdx
     5dc:	48 89 d1             	mov    %rdx,%rcx
     5df:	48 8d 14 92          	lea    (%rdx,%rdx,4),%rdx
     5e3:	48 c1 e1 04          	shl    $0x4,%rcx
     5e7:	48 01 c1             	add    %rax,%rcx
     5ea:	49 8b 47 20          	mov    0x20(%r15),%rax
     5ee:	48 8d 34 d0          	lea    (%rax,%rdx,8),%rsi
     5f2:	41 8b 47 1c          	mov    0x1c(%r15),%eax
     5f6:	45 39 67 18          	cmp    %r12d,0x18(%r15)
     5fa:	0f 85 74 ff ff ff    	jne    574 <e1000_dump+0x94>
     600:	41 39 c4             	cmp    %eax,%r12d
     603:	48 c7 c2 00 00 00 00 	mov    $0x0,%rdx
     60a:	48 c7 c0 00 00 00 00 	mov    $0x0,%rax
     611:	48 0f 44 d0          	cmove  %rax,%rdx
     615:	e9 68 ff ff ff       	jmp    582 <e1000_dump+0xa2>
     61a:	48 c7 c7 00 00 00 00 	mov    $0x0,%rdi
     621:	e8 00 00 00 00       	call   626 <e1000_dump+0x146>
     626:	48 c7 c7 00 00 00 00 	mov    $0x0,%rdi
     62d:	e8 00 00 00 00       	call   632 <e1000_dump+0x152>
     632:	f6 83 69 08 00 00 08 	testb  $0x8,0x869(%rbx)
     639:	0f 84 40 01 00 00    	je     77f <e1000_dump+0x29f>
     63f:	49 8b 55 00          	mov    0x0(%r13),%rdx
     643:	45 31 e4             	xor    %r12d,%r12d
     646:	48 85 d2             	test   %rdx,%rdx
     649:	75 62                	jne    6ad <e1000_dump+0x1cd>
     64b:	eb 66                	jmp    6b3 <e1000_dump+0x1d3>
     64d:	49 63 c4             	movslq %r12d,%rax
     650:	48 c7 c1 00 00 00 00 	mov    $0x0,%rcx
     657:	48 c1 e0 04          	shl    $0x4,%rax
     65b:	48 01 c2             	add    %rax,%rdx
     65e:	49 03 45 20          	add    0x20(%r13),%rax
     662:	45 39 65 18          	cmp    %r12d,0x18(%r13)
     666:	74 16                	je     67e <e1000_dump+0x19e>
     668:	45 39 65 1c          	cmp    %r12d,0x1c(%r13)
     66c:	48 c7 c1 00 00 00 00 	mov    $0x0,%rcx
     673:	48 c7 c6 00 00 00 00 	mov    $0x0,%rsi
     67a:	48 0f 44 ce          	cmove  %rsi,%rcx
     67e:	4c 8b 08             	mov    (%rax),%r9
     681:	4c 8b 40 08          	mov    0x8(%rax),%r8
     685:	44 89 e6             	mov    %r12d,%esi
     688:	48 c7 c7 00 00 00 00 	mov    $0x0,%rdi
     68f:	48 8b 42 08          	mov    0x8(%rdx),%rax
     693:	48 8b 12             	mov    (%rdx),%rdx
     696:	51                   	push   %rcx
     697:	41 83 c4 01          	add    $0x1,%r12d
     69b:	48 89 c1             	mov    %rax,%rcx
     69e:	e8 00 00 00 00       	call   6a3 <e1000_dump+0x1c3>
     6a3:	49 8b 55 00          	mov    0x0(%r13),%rdx
     6a7:	58                   	pop    %rax
     6a8:	48 85 d2             	test   %rdx,%rdx
     6ab:	74 06                	je     6b3 <e1000_dump+0x1d3>
     6ad:	45 3b 65 14          	cmp    0x14(%r13),%r12d
     6b1:	72 9a                	jb     64d <e1000_dump+0x16d>
     6b3:	48 c7 c7 00 00 00 00 	mov    $0x0,%rdi
     6ba:	41 bc 00 60 00 00    	mov    $0x6000,%r12d
     6c0:	e8 00 00 00 00       	call   6c5 <e1000_dump+0x1e5>
     6c5:	48 8b 83 88 04 00 00 	mov    0x488(%rbx),%rax
     6cc:	4a 8d 44 20 08       	lea    0x8(%rax,%r12,1),%rax
     6d1:	44 8b 08             	mov    (%rax),%r9d
     6d4:	48 8b 83 88 04 00 00 	mov    0x488(%rbx),%rax
     6db:	4a 8d 44 20 0c       	lea    0xc(%rax,%r12,1),%rax
     6e0:	44 8b 00             	mov    (%rax),%r8d
     6e3:	48 8b 83 88 04 00 00 	mov    0x488(%rbx),%rax
     6ea:	4c 01 e0             	add    %r12,%rax
     6ed:	8b 08                	mov    (%rax),%ecx
     6ef:	48 8b 83 88 04 00 00 	mov    0x488(%rbx),%rax
     6f6:	4a 8d 44 20 04       	lea    0x4(%rax,%r12,1),%rax
     6fb:	8b 10                	mov    (%rax),%edx
     6fd:	48 c7 c7 00 00 00 00 	mov    $0x0,%rdi
     704:	44 89 e6             	mov    %r12d,%esi
     707:	49 83 c4 10          	add    $0x10,%r12
     70b:	e8 00 00 00 00       	call   710 <e1000_dump+0x230>
     710:	49 81 fc 00 64 00 00 	cmp    $0x6400,%r12
     717:	75 ac                	jne    6c5 <e1000_dump+0x1e5>
     719:	48 c7 c7 00 00 00 00 	mov    $0x0,%rdi
     720:	41 bc 00 70 00 00    	mov    $0x7000,%r12d
     726:	e8 00 00 00 00       	call   72b <e1000_dump+0x24b>
     72b:	48 8b 83 88 04 00 00 	mov    0x488(%rbx),%rax
     732:	4a 8d 44 20 08       	lea    0x8(%rax,%r12,1),%rax
     737:	44 8b 08             	mov    (%rax),%r9d
     73a:	48 8b 83 88 04 00 00 	mov    0x488(%rbx),%rax
     741:	4a 8d 44 20 0c       	lea    0xc(%rax,%r12,1),%rax
     746:	44 8b 00             	mov    (%rax),%r8d
     749:	48 8b 83 88 04 00 00 	mov    0x488(%rbx),%rax
     750:	4c 01 e0             	add    %r12,%rax
     753:	8b 08                	mov    (%rax),%ecx
     755:	48 8b 83 88 04 00 00 	mov    0x488(%rbx),%rax
     75c:	4a 8d 44 20 04       	lea    0x4(%rax,%r12,1),%rax
     761:	8b 10                	mov    (%rax),%edx
     763:	48 c7 c7 00 00 00 00 	mov    $0x0,%rdi
     76a:	44 89 e6             	mov    %r12d,%esi
     76d:	49 83 c4 10          	add    $0x10,%r12
     771:	e8 00 00 00 00       	call   776 <e1000_dump+0x296>
     776:	49 81 fc 00 74 00 00 	cmp    $0x7400,%r12
     77d:	75 ac                	jne    72b <e1000_dump+0x24b>
     77f:	48 8d 65 d8          	lea    -0x28(%rbp),%rsp
     783:	5b                   	pop    %rbx
     784:	41 5c                	pop    %r12
     786:	41 5d                	pop    %r13
     788:	41 5e                	pop    %r14
     78a:	41 5f                	pop    %r15
     78c:	5d                   	pop    %rbp
     78d:	31 c0                	xor    %eax,%eax
     78f:	31 d2                	xor    %edx,%edx
     791:	31 c9                	xor    %ecx,%ecx
     793:	31 f6                	xor    %esi,%esi
     795:	31 ff                	xor    %edi,%edi
     797:	45 31 c0             	xor    %r8d,%r8d
     79a:	45 31 c9             	xor    %r9d,%r9d
     79d:	45 31 d2             	xor    %r10d,%r10d
     7a0:	45 31 db             	xor    %r11d,%r11d
     7a3:	e9 00 00 00 00       	jmp    7a8 <e1000_dump+0x2c8>
     7a8:	0f 1f 84 00 00 00 00 	nopl   0x0(%rax,%rax,1)
     7af:	00 

00000000000007b0 <__pfx_e1000_update_itr>:
     7b0:	90                   	nop
     7b1:	90                   	nop
     7b2:	90                   	nop
     7b3:	90                   	nop
     7b4:	90                   	nop
     7b5:	90                   	nop
     7b6:	90                   	nop
     7b7:	90                   	nop
     7b8:	90                   	nop
     7b9:	90                   	nop
     7ba:	90                   	nop
     7bb:	90                   	nop
     7bc:	90                   	nop
     7bd:	90                   	nop
     7be:	90                   	nop
     7bf:	90                   	nop

00000000000007c0 <e1000_update_itr>:
     7c0:	e8 00 00 00 00       	call   7c5 <e1000_update_itr+0x5>
     7c5:	55                   	push   %rbp
     7c6:	83 bf a0 04 00 00 04 	cmpl   $0x4,0x4a0(%rdi)
     7cd:	0f b7 c6             	movzwl %si,%eax
     7d0:	48 89 e5             	mov    %rsp,%rbp
     7d3:	76 17                	jbe    7ec <e1000_update_itr+0x2c>
     7d5:	89 d7                	mov    %edx,%edi
     7d7:	85 d2                	test   %edx,%edx
     7d9:	74 11                	je     7ec <e1000_update_itr+0x2c>
     7db:	66 83 fe 01          	cmp    $0x1,%si
     7df:	74 7c                	je     85d <e1000_update_itr+0x9d>
     7e1:	66 83 fe 02          	cmp    $0x2,%si
     7e5:	74 4e                	je     835 <e1000_update_itr+0x75>
     7e7:	66 85 f6             	test   %si,%si
     7ea:	74 11                	je     7fd <e1000_update_itr+0x3d>
     7ec:	5d                   	pop    %rbp
     7ed:	31 d2                	xor    %edx,%edx
     7ef:	31 c9                	xor    %ecx,%ecx
     7f1:	31 f6                	xor    %esi,%esi
     7f3:	31 ff                	xor    %edi,%edi
     7f5:	45 31 c0             	xor    %r8d,%r8d
     7f8:	e9 00 00 00 00       	jmp    7fd <e1000_update_itr+0x3d>
     7fd:	89 c8                	mov    %ecx,%eax
     7ff:	99                   	cltd   
     800:	f7 ff                	idiv   %edi
     802:	89 c6                	mov    %eax,%esi
     804:	b8 02 00 00 00       	mov    $0x2,%eax
     809:	81 fe 40 1f 00 00    	cmp    $0x1f40,%esi
     80f:	7f db                	jg     7ec <e1000_update_itr+0x2c>
     811:	83 ff 04             	cmp    $0x4,%edi
     814:	5d                   	pop    %rbp
     815:	0f 9e c2             	setle  %dl
     818:	31 c0                	xor    %eax,%eax
     81a:	81 f9 00 02 00 00    	cmp    $0x200,%ecx
     820:	0f 9f c0             	setg   %al
     823:	21 d0                	and    %edx,%eax
     825:	31 d2                	xor    %edx,%edx
     827:	31 c9                	xor    %ecx,%ecx
     829:	31 f6                	xor    %esi,%esi
     82b:	31 ff                	xor    %edi,%edi
     82d:	45 31 c0             	xor    %r8d,%r8d
     830:	e9 00 00 00 00       	jmp    835 <e1000_update_itr+0x75>
     835:	81 f9 a8 61 00 00    	cmp    $0x61a8,%ecx
     83b:	0f 8e 9f 00 00 00    	jle    8e0 <e1000_update_itr+0x120>
     841:	31 c0                	xor    %eax,%eax
     843:	83 fa 24             	cmp    $0x24,%edx
     846:	5d                   	pop    %rbp
     847:	0f 9c c0             	setl   %al
     84a:	83 c0 01             	add    $0x1,%eax
     84d:	31 d2                	xor    %edx,%edx
     84f:	31 c9                	xor    %ecx,%ecx
     851:	31 f6                	xor    %esi,%esi
     853:	31 ff                	xor    %edi,%edi
     855:	45 31 c0             	xor    %r8d,%r8d
     858:	e9 00 00 00 00       	jmp    85d <e1000_update_itr+0x9d>
     85d:	89 c8                	mov    %ecx,%eax
     85f:	99                   	cltd   
     860:	f7 ff                	idiv   %edi
     862:	89 c6                	mov    %eax,%esi
     864:	81 f9 10 27 00 00    	cmp    $0x2710,%ecx
     86a:	7e 3b                	jle    8a7 <e1000_update_itr+0xe7>
     86c:	83 ff 09             	cmp    $0x9,%edi
     86f:	7e 20                	jle    891 <e1000_update_itr+0xd1>
     871:	3d b0 04 00 00       	cmp    $0x4b0,%eax
     876:	7f 19                	jg     891 <e1000_update_itr+0xd1>
     878:	31 c0                	xor    %eax,%eax
     87a:	83 ff 23             	cmp    $0x23,%edi
     87d:	5d                   	pop    %rbp
     87e:	0f 9e c0             	setle  %al
     881:	31 d2                	xor    %edx,%edx
     883:	31 c9                	xor    %ecx,%ecx
     885:	31 f6                	xor    %esi,%esi
     887:	31 ff                	xor    %edi,%edi
     889:	45 31 c0             	xor    %r8d,%r8d
     88c:	e9 00 00 00 00       	jmp    891 <e1000_update_itr+0xd1>
     891:	b8 02 00 00 00       	mov    $0x2,%eax
     896:	5d                   	pop    %rbp
     897:	31 d2                	xor    %edx,%edx
     899:	31 c9                	xor    %ecx,%ecx
     89b:	31 f6                	xor    %esi,%esi
     89d:	31 ff                	xor    %edi,%edi
     89f:	45 31 c0             	xor    %r8d,%r8d
     8a2:	e9 00 00 00 00       	jmp    8a7 <e1000_update_itr+0xe7>
     8a7:	b8 02 00 00 00       	mov    $0x2,%eax
     8ac:	81 fe d0 07 00 00    	cmp    $0x7d0,%esi
     8b2:	0f 8f 34 ff ff ff    	jg     7ec <e1000_update_itr+0x2c>
     8b8:	83 ff 02             	cmp    $0x2,%edi
     8bb:	5d                   	pop    %rbp
     8bc:	0f 9e c0             	setle  %al
     8bf:	81 f9 ff 01 00 00    	cmp    $0x1ff,%ecx
     8c5:	0f 9e c2             	setle  %dl
     8c8:	21 d0                	and    %edx,%eax
     8ca:	83 f0 01             	xor    $0x1,%eax
     8cd:	0f b6 c0             	movzbl %al,%eax
     8d0:	31 d2                	xor    %edx,%edx
     8d2:	31 c9                	xor    %ecx,%ecx
     8d4:	31 f6                	xor    %esi,%esi
     8d6:	31 ff                	xor    %edi,%edi
     8d8:	45 31 c0             	xor    %r8d,%r8d
     8db:	e9 00 00 00 00       	jmp    8e0 <e1000_update_itr+0x120>
     8e0:	31 c0                	xor    %eax,%eax
     8e2:	81 f9 6f 17 00 00    	cmp    $0x176f,%ecx
     8e8:	5d                   	pop    %rbp
     8e9:	0f 9f c0             	setg   %al
     8ec:	83 c0 01             	add    $0x1,%eax
     8ef:	31 d2                	xor    %edx,%edx
     8f1:	31 c9                	xor    %ecx,%ecx
     8f3:	31 f6                	xor    %esi,%esi
     8f5:	31 ff                	xor    %edi,%edi
     8f7:	45 31 c0             	xor    %r8d,%r8d
     8fa:	e9 00 00 00 00       	jmp    8ff <e1000_update_itr+0x13f>
     8ff:	90                   	nop

0000000000000900 <__pfx_e1000_request_irq>:
     900:	90                   	nop
     901:	90                   	nop
     902:	90                   	nop
     903:	90                   	nop
     904:	90                   	nop
     905:	90                   	nop
     906:	90                   	nop
     907:	90                   	nop
     908:	90                   	nop
     909:	90                   	nop
     90a:	90                   	nop
     90b:	90                   	nop
     90c:	90                   	nop
     90d:	90                   	nop
     90e:	90                   	nop
     90f:	90                   	nop

0000000000000910 <e1000_request_irq>:
     910:	e8 00 00 00 00       	call   915 <e1000_request_irq+0x5>
     915:	55                   	push   %rbp
     916:	31 d2                	xor    %edx,%edx
     918:	b9 80 00 20 00       	mov    $0x200080,%ecx
     91d:	48 c7 c6 00 00 00 00 	mov    $0x0,%rsi
     924:	48 89 e5             	mov    %rsp,%rbp
     927:	53                   	push   %rbx
     928:	48 89 fb             	mov    %rdi,%rbx
     92b:	48 83 ec 08          	sub    $0x8,%rsp
     92f:	48 8b 87 80 04 00 00 	mov    0x480(%rdi),%rax
     936:	4c 8b 8f 78 04 00 00 	mov    0x478(%rdi),%r9
     93d:	8b b8 cc 03 00 00    	mov    0x3cc(%rax),%edi
     943:	4d 8d 81 30 01 00 00 	lea    0x130(%r9),%r8
     94a:	e8 00 00 00 00       	call   94f <e1000_request_irq+0x3f>
     94f:	85 c0                	test   %eax,%eax
     951:	74 09                	je     95c <e1000_request_irq+0x4c>
     953:	f6 83 68 08 00 00 02 	testb  $0x2,0x868(%rbx)
     95a:	75 18                	jne    974 <e1000_request_irq+0x64>
     95c:	48 8b 5d f8          	mov    -0x8(%rbp),%rbx
     960:	c9                   	leave  
     961:	31 d2                	xor    %edx,%edx
     963:	31 c9                	xor    %ecx,%ecx
     965:	31 f6                	xor    %esi,%esi
     967:	31 ff                	xor    %edi,%edi
     969:	45 31 c0             	xor    %r8d,%r8d
     96c:	45 31 c9             	xor    %r9d,%r9d
     96f:	e9 00 00 00 00       	jmp    974 <e1000_request_irq+0x64>
     974:	48 8b bb 78 04 00 00 	mov    0x478(%rbx),%rdi
     97b:	89 c2                	mov    %eax,%edx
     97d:	48 c7 c6 00 00 00 00 	mov    $0x0,%rsi
     984:	89 45 f4             	mov    %eax,-0xc(%rbp)
     987:	e8 00 00 00 00       	call   98c <e1000_request_irq+0x7c>
     98c:	8b 45 f4             	mov    -0xc(%rbp),%eax
     98f:	48 8b 5d f8          	mov    -0x8(%rbp),%rbx
     993:	c9                   	leave  
     994:	31 d2                	xor    %edx,%edx
     996:	31 c9                	xor    %ecx,%ecx
     998:	31 f6                	xor    %esi,%esi
     99a:	31 ff                	xor    %edi,%edi
     99c:	45 31 c0             	xor    %r8d,%r8d
     99f:	45 31 c9             	xor    %r9d,%r9d
     9a2:	e9 00 00 00 00       	jmp    9a7 <e1000_request_irq+0x97>
     9a7:	66 0f 1f 84 00 00 00 	nopw   0x0(%rax,%rax,1)
     9ae:	00 00 

00000000000009b0 <__pfx_e1000_down_and_stop>:
     9b0:	90                   	nop
     9b1:	90                   	nop
     9b2:	90                   	nop
     9b3:	90                   	nop
     9b4:	90                   	nop
     9b5:	90                   	nop
     9b6:	90                   	nop
     9b7:	90                   	nop
     9b8:	90                   	nop
     9b9:	90                   	nop
     9ba:	90                   	nop
     9bb:	90                   	nop
     9bc:	90                   	nop
     9bd:	90                   	nop
     9be:	90                   	nop
     9bf:	90                   	nop

00000000000009c0 <e1000_down_and_stop>:
     9c0:	e8 00 00 00 00       	call   9c5 <e1000_down_and_stop+0x5>
     9c5:	55                   	push   %rbp
     9c6:	48 89 e5             	mov    %rsp,%rbp
     9c9:	53                   	push   %rbx
     9ca:	48 89 fb             	mov    %rdi,%rbx
     9cd:	f0 80 8f 70 08 00 00 	lock orb $0x4,0x870(%rdi)
     9d4:	04 
     9d5:	48 81 c7 a8 08 00 00 	add    $0x8a8,%rdi
     9dc:	e8 00 00 00 00       	call   9e1 <e1000_down_and_stop+0x21>
     9e1:	48 8d bb 58 09 00 00 	lea    0x958(%rbx),%rdi
     9e8:	e8 00 00 00 00       	call   9ed <e1000_down_and_stop+0x2d>
     9ed:	48 8d bb 00 09 00 00 	lea    0x900(%rbx),%rdi
     9f4:	e8 00 00 00 00       	call   9f9 <e1000_down_and_stop+0x39>
     9f9:	48 8b 83 70 08 00 00 	mov    0x870(%rbx),%rax
     a00:	a8 02                	test   $0x2,%al
     a02:	74 0e                	je     a12 <e1000_down_and_stop+0x52>
     a04:	48 8b 5d f8          	mov    -0x8(%rbp),%rbx
     a08:	c9                   	leave  
     a09:	31 c0                	xor    %eax,%eax
     a0b:	31 ff                	xor    %edi,%edi
     a0d:	e9 00 00 00 00       	jmp    a12 <e1000_down_and_stop+0x52>
     a12:	48 8d bb 88 08 00 00 	lea    0x888(%rbx),%rdi
     a19:	e8 00 00 00 00       	call   a1e <e1000_down_and_stop+0x5e>
     a1e:	48 8b 5d f8          	mov    -0x8(%rbp),%rbx
     a22:	c9                   	leave  
     a23:	31 c0                	xor    %eax,%eax
     a25:	31 ff                	xor    %edi,%edi
     a27:	e9 00 00 00 00       	jmp    a2c <e1000_down_and_stop+0x6c>
     a2c:	0f 1f 40 00          	nopl   0x0(%rax)

0000000000000a30 <__pfx_e1000_update_phy_info_task>:
     a30:	90                   	nop
     a31:	90                   	nop
     a32:	90                   	nop
     a33:	90                   	nop
     a34:	90                   	nop
     a35:	90                   	nop
     a36:	90                   	nop
     a37:	90                   	nop
     a38:	90                   	nop
     a39:	90                   	nop
     a3a:	90                   	nop
     a3b:	90                   	nop
     a3c:	90                   	nop
     a3d:	90                   	nop
     a3e:	90                   	nop
     a3f:	90                   	nop

0000000000000a40 <e1000_update_phy_info_task>:
     a40:	e8 00 00 00 00       	call   a45 <e1000_update_phy_info_task+0x5>
     a45:	55                   	push   %rbp
     a46:	48 8d b7 78 fe ff ff 	lea    -0x188(%rdi),%rsi
     a4d:	48 81 ef d0 04 00 00 	sub    $0x4d0,%rdi
     a54:	48 89 e5             	mov    %rsp,%rbp
     a57:	e8 00 00 00 00       	call   a5c <e1000_update_phy_info_task+0x1c>
     a5c:	5d                   	pop    %rbp
     a5d:	31 c0                	xor    %eax,%eax
     a5f:	31 f6                	xor    %esi,%esi
     a61:	31 ff                	xor    %edi,%edi
     a63:	e9 00 00 00 00       	jmp    a68 <e1000_update_phy_info_task+0x28>
     a68:	0f 1f 84 00 00 00 00 	nopl   0x0(%rax,%rax,1)
     a6f:	00 

0000000000000a70 <__pfx_e1000_smartspeed>:
     a70:	90                   	nop
     a71:	90                   	nop
     a72:	90                   	nop
     a73:	90                   	nop
     a74:	90                   	nop
     a75:	90                   	nop
     a76:	90                   	nop
     a77:	90                   	nop
     a78:	90                   	nop
     a79:	90                   	nop
     a7a:	90                   	nop
     a7b:	90                   	nop
     a7c:	90                   	nop
     a7d:	90                   	nop
     a7e:	90                   	nop
     a7f:	90                   	nop

0000000000000a80 <e1000_smartspeed>:
     a80:	e8 00 00 00 00       	call   a85 <e1000_smartspeed+0x5>
     a85:	55                   	push   %rbp
     a86:	31 d2                	xor    %edx,%edx
     a88:	48 89 e5             	mov    %rsp,%rbp
     a8b:	41 54                	push   %r12
     a8d:	53                   	push   %rbx
     a8e:	48 83 ec 10          	sub    $0x10,%rsp
     a92:	65 48 8b 04 25 28 00 	mov    %gs:0x28,%rax
     a99:	00 00 
     a9b:	48 89 45 e8          	mov    %rax,-0x18(%rbp)
     a9f:	31 c0                	xor    %eax,%eax
     aa1:	31 c0                	xor    %eax,%eax
     aa3:	83 bf a4 04 00 00 01 	cmpl   $0x1,0x4a4(%rdi)
     aaa:	66 89 55 e6          	mov    %dx,-0x1a(%rbp)
     aae:	66 89 45 e4          	mov    %ax,-0x1c(%rbp)
     ab2:	75 43                	jne    af7 <e1000_smartspeed+0x77>
     ab4:	80 bf 77 05 00 00 00 	cmpb   $0x0,0x577(%rdi)
     abb:	48 89 fb             	mov    %rdi,%rbx
     abe:	74 37                	je     af7 <e1000_smartspeed+0x77>
     ac0:	f6 87 5a 05 00 00 20 	testb  $0x20,0x55a(%rdi)
     ac7:	74 2e                	je     af7 <e1000_smartspeed+0x77>
     ac9:	8b 87 10 02 00 00    	mov    0x210(%rdi),%eax
     acf:	4c 8d a7 88 04 00 00 	lea    0x488(%rdi),%r12
     ad6:	85 c0                	test   %eax,%eax
     ad8:	74 45                	je     b1f <e1000_smartspeed+0x9f>
     ada:	83 f8 03             	cmp    $0x3,%eax
     add:	0f 84 e7 00 00 00    	je     bca <e1000_smartspeed+0x14a>
     ae3:	8d 50 01             	lea    0x1(%rax),%edx
     ae6:	83 f8 0f             	cmp    $0xf,%eax
     ae9:	b8 00 00 00 00       	mov    $0x0,%eax
     aee:	0f 45 c2             	cmovne %edx,%eax
     af1:	89 83 10 02 00 00    	mov    %eax,0x210(%rbx)
     af7:	48 8b 45 e8          	mov    -0x18(%rbp),%rax
     afb:	65 48 2b 04 25 28 00 	sub    %gs:0x28,%rax
     b02:	00 00 
     b04:	0f 85 2f 01 00 00    	jne    c39 <e1000_smartspeed+0x1b9>
     b0a:	48 83 c4 10          	add    $0x10,%rsp
     b0e:	5b                   	pop    %rbx
     b0f:	41 5c                	pop    %r12
     b11:	5d                   	pop    %rbp
     b12:	31 c0                	xor    %eax,%eax
     b14:	31 d2                	xor    %edx,%edx
     b16:	31 f6                	xor    %esi,%esi
     b18:	31 ff                	xor    %edi,%edi
     b1a:	e9 00 00 00 00       	jmp    b1f <e1000_smartspeed+0x9f>
     b1f:	48 8d 55 e4          	lea    -0x1c(%rbp),%rdx
     b23:	be 0a 00 00 00       	mov    $0xa,%esi
     b28:	4c 89 e7             	mov    %r12,%rdi
     b2b:	e8 00 00 00 00       	call   b30 <e1000_smartspeed+0xb0>
     b30:	66 83 7d e4 00       	cmpw   $0x0,-0x1c(%rbp)
     b35:	79 c0                	jns    af7 <e1000_smartspeed+0x77>
     b37:	48 8d 55 e4          	lea    -0x1c(%rbp),%rdx
     b3b:	be 0a 00 00 00       	mov    $0xa,%esi
     b40:	4c 89 e7             	mov    %r12,%rdi
     b43:	e8 00 00 00 00       	call   b48 <e1000_smartspeed+0xc8>
     b48:	66 83 7d e4 00       	cmpw   $0x0,-0x1c(%rbp)
     b4d:	79 a8                	jns    af7 <e1000_smartspeed+0x77>
     b4f:	48 8d 55 e6          	lea    -0x1a(%rbp),%rdx
     b53:	be 09 00 00 00       	mov    $0x9,%esi
     b58:	4c 89 e7             	mov    %r12,%rdi
     b5b:	e8 00 00 00 00       	call   b60 <e1000_smartspeed+0xe0>
     b60:	0f b7 45 e6          	movzwl -0x1a(%rbp),%eax
     b64:	f6 c4 10             	test   $0x10,%ah
     b67:	74 8e                	je     af7 <e1000_smartspeed+0x77>
     b69:	80 e4 ef             	and    $0xef,%ah
     b6c:	4c 89 e7             	mov    %r12,%rdi
     b6f:	be 09 00 00 00       	mov    $0x9,%esi
     b74:	0f b7 d0             	movzwl %ax,%edx
     b77:	66 89 45 e6          	mov    %ax,-0x1a(%rbp)
     b7b:	e8 00 00 00 00       	call   b80 <e1000_smartspeed+0x100>
     b80:	83 83 10 02 00 00 01 	addl   $0x1,0x210(%rbx)
     b87:	4c 89 e7             	mov    %r12,%rdi
     b8a:	e8 00 00 00 00       	call   b8f <e1000_smartspeed+0x10f>
     b8f:	85 c0                	test   %eax,%eax
     b91:	0f 85 60 ff ff ff    	jne    af7 <e1000_smartspeed+0x77>
     b97:	31 f6                	xor    %esi,%esi
     b99:	48 8d 55 e6          	lea    -0x1a(%rbp),%rdx
     b9d:	4c 89 e7             	mov    %r12,%rdi
     ba0:	e8 00 00 00 00       	call   ba5 <e1000_smartspeed+0x125>
     ba5:	85 c0                	test   %eax,%eax
     ba7:	0f 85 4a ff ff ff    	jne    af7 <e1000_smartspeed+0x77>
     bad:	0f b7 45 e6          	movzwl -0x1a(%rbp),%eax
     bb1:	31 f6                	xor    %esi,%esi
     bb3:	4c 89 e7             	mov    %r12,%rdi
     bb6:	80 cc 12             	or     $0x12,%ah
     bb9:	0f b7 d0             	movzwl %ax,%edx
     bbc:	66 89 45 e6          	mov    %ax,-0x1a(%rbp)
     bc0:	e8 00 00 00 00       	call   bc5 <e1000_smartspeed+0x145>
     bc5:	e9 2d ff ff ff       	jmp    af7 <e1000_smartspeed+0x77>
     bca:	48 8d 55 e6          	lea    -0x1a(%rbp),%rdx
     bce:	be 09 00 00 00       	mov    $0x9,%esi
     bd3:	4c 89 e7             	mov    %r12,%rdi
     bd6:	e8 00 00 00 00       	call   bdb <e1000_smartspeed+0x15b>
     bdb:	0f b7 55 e6          	movzwl -0x1a(%rbp),%edx
     bdf:	4c 89 e7             	mov    %r12,%rdi
     be2:	be 09 00 00 00       	mov    $0x9,%esi
     be7:	80 ce 10             	or     $0x10,%dh
     bea:	66 89 55 e6          	mov    %dx,-0x1a(%rbp)
     bee:	0f b7 d2             	movzwl %dx,%edx
     bf1:	e8 00 00 00 00       	call   bf6 <e1000_smartspeed+0x176>
     bf6:	4c 89 e7             	mov    %r12,%rdi
     bf9:	e8 00 00 00 00       	call   bfe <e1000_smartspeed+0x17e>
     bfe:	85 c0                	test   %eax,%eax
     c00:	74 0b                	je     c0d <e1000_smartspeed+0x18d>
     c02:	8b 83 10 02 00 00    	mov    0x210(%rbx),%eax
     c08:	e9 d6 fe ff ff       	jmp    ae3 <e1000_smartspeed+0x63>
     c0d:	31 f6                	xor    %esi,%esi
     c0f:	48 8d 55 e6          	lea    -0x1a(%rbp),%rdx
     c13:	4c 89 e7             	mov    %r12,%rdi
     c16:	e8 00 00 00 00       	call   c1b <e1000_smartspeed+0x19b>
     c1b:	85 c0                	test   %eax,%eax
     c1d:	75 e3                	jne    c02 <e1000_smartspeed+0x182>
     c1f:	0f b7 45 e6          	movzwl -0x1a(%rbp),%eax
     c23:	31 f6                	xor    %esi,%esi
     c25:	4c 89 e7             	mov    %r12,%rdi
     c28:	80 cc 12             	or     $0x12,%ah
     c2b:	0f b7 d0             	movzwl %ax,%edx
     c2e:	66 89 45 e6          	mov    %ax,-0x1a(%rbp)
     c32:	e8 00 00 00 00       	call   c37 <e1000_smartspeed+0x1b7>
     c37:	eb c9                	jmp    c02 <e1000_smartspeed+0x182>
     c39:	e8 00 00 00 00       	call   c3e <e1000_smartspeed+0x1be>
     c3e:	66 90                	xchg   %ax,%ax

0000000000000c40 <__pfx_e1000_power_down_phy>:
     c40:	90                   	nop
     c41:	90                   	nop
     c42:	90                   	nop
     c43:	90                   	nop
     c44:	90                   	nop
     c45:	90                   	nop
     c46:	90                   	nop
     c47:	90                   	nop
     c48:	90                   	nop
     c49:	90                   	nop
     c4a:	90                   	nop
     c4b:	90                   	nop
     c4c:	90                   	nop
     c4d:	90                   	nop
     c4e:	90                   	nop
     c4f:	90                   	nop

0000000000000c50 <e1000_power_down_phy>:
     c50:	e8 00 00 00 00       	call   c55 <e1000_power_down_phy+0x5>
     c55:	55                   	push   %rbp
     c56:	48 89 e5             	mov    %rsp,%rbp
     c59:	53                   	push   %rbx
     c5a:	48 83 ec 10          	sub    $0x10,%rsp
     c5e:	8b b7 0c 02 00 00    	mov    0x20c(%rdi),%esi
     c64:	65 48 8b 04 25 28 00 	mov    %gs:0x28,%rax
     c6b:	00 00 
     c6d:	48 89 45 f0          	mov    %rax,-0x10(%rbp)
     c71:	31 c0                	xor    %eax,%eax
     c73:	85 f6                	test   %esi,%esi
     c75:	75 0b                	jne    c82 <e1000_power_down_phy+0x32>
     c77:	8b 87 a0 04 00 00    	mov    0x4a0(%rdi),%eax
     c7d:	83 f8 04             	cmp    $0x4,%eax
     c80:	77 23                	ja     ca5 <e1000_power_down_phy+0x55>
     c82:	48 8b 45 f0          	mov    -0x10(%rbp),%rax
     c86:	65 48 2b 04 25 28 00 	sub    %gs:0x28,%rax
     c8d:	00 00 
     c8f:	75 7b                	jne    d0c <e1000_power_down_phy+0xbc>
     c91:	48 8b 5d f8          	mov    -0x8(%rbp),%rbx
     c95:	c9                   	leave  
     c96:	31 c0                	xor    %eax,%eax
     c98:	31 d2                	xor    %edx,%edx
     c9a:	31 c9                	xor    %ecx,%ecx
     c9c:	31 f6                	xor    %esi,%esi
     c9e:	31 ff                	xor    %edi,%edi
     ca0:	e9 00 00 00 00       	jmp    ca5 <e1000_power_down_phy+0x55>
     ca5:	8b 8f ac 04 00 00    	mov    0x4ac(%rdi),%ecx
     cab:	85 c9                	test   %ecx,%ecx
     cad:	75 d3                	jne    c82 <e1000_power_down_phy+0x32>
     caf:	31 d2                	xor    %edx,%edx
     cb1:	83 e8 05             	sub    $0x5,%eax
     cb4:	66 89 55 ee          	mov    %dx,-0x12(%rbp)
     cb8:	83 f8 09             	cmp    $0x9,%eax
     cbb:	77 c5                	ja     c82 <e1000_power_down_phy+0x32>
     cbd:	48 8b 87 88 04 00 00 	mov    0x488(%rdi),%rax
     cc4:	48 05 20 58 00 00    	add    $0x5820,%rax
     cca:	8b 00                	mov    (%rax),%eax
     ccc:	a8 01                	test   $0x1,%al
     cce:	75 b2                	jne    c82 <e1000_power_down_phy+0x32>
     cd0:	48 8d 9f 88 04 00 00 	lea    0x488(%rdi),%rbx
     cd7:	48 8d 55 ee          	lea    -0x12(%rbp),%rdx
     cdb:	31 f6                	xor    %esi,%esi
     cdd:	48 89 df             	mov    %rbx,%rdi
     ce0:	e8 00 00 00 00       	call   ce5 <e1000_power_down_phy+0x95>
     ce5:	0f b7 55 ee          	movzwl -0x12(%rbp),%edx
     ce9:	48 89 df             	mov    %rbx,%rdi
     cec:	31 f6                	xor    %esi,%esi
     cee:	80 ce 08             	or     $0x8,%dh
     cf1:	66 89 55 ee          	mov    %dx,-0x12(%rbp)
     cf5:	0f b7 d2             	movzwl %dx,%edx
     cf8:	e8 00 00 00 00       	call   cfd <e1000_power_down_phy+0xad>
     cfd:	bf 01 00 00 00       	mov    $0x1,%edi
     d02:	e8 00 00 00 00       	call   d07 <e1000_power_down_phy+0xb7>
     d07:	e9 76 ff ff ff       	jmp    c82 <e1000_power_down_phy+0x32>
     d0c:	e8 00 00 00 00       	call   d11 <e1000_power_down_phy+0xc1>
     d11:	66 66 2e 0f 1f 84 00 	data16 cs nopw 0x0(%rax,%rax,1)
     d18:	00 00 00 00 
     d1c:	0f 1f 40 00          	nopl   0x0(%rax)

0000000000000d20 <__pfx_e1000_configure_tx>:
     d20:	90                   	nop
     d21:	90                   	nop
     d22:	90                   	nop
     d23:	90                   	nop
     d24:	90                   	nop
     d25:	90                   	nop
     d26:	90                   	nop
     d27:	90                   	nop
     d28:	90                   	nop
     d29:	90                   	nop
     d2a:	90                   	nop
     d2b:	90                   	nop
     d2c:	90                   	nop
     d2d:	90                   	nop
     d2e:	90                   	nop
     d2f:	90                   	nop

0000000000000d30 <e1000_configure_tx>:
     d30:	e8 00 00 00 00       	call   d35 <e1000_configure_tx+0x5>
     d35:	55                   	push   %rbp
     d36:	48 89 e5             	mov    %rsp,%rbp
     d39:	41 54                	push   %r12
     d3b:	53                   	push   %rbx
     d3c:	48 89 fb             	mov    %rdi,%rbx
     d3f:	48 81 c7 88 04 00 00 	add    $0x488,%rdi
     d46:	48 8b 83 40 02 00 00 	mov    0x240(%rbx),%rax
     d4d:	8b 48 14             	mov    0x14(%rax),%ecx
     d50:	48 8b 50 08          	mov    0x8(%rax),%rdx
     d54:	c1 e1 04             	shl    $0x4,%ecx
     d57:	83 bb a0 04 00 00 03 	cmpl   $0x3,0x4a0(%rbx)
     d5e:	48 19 c0             	sbb    %rax,%rax
     d61:	48 25 20 cc ff ff    	and    $0xffffffffffffcc20,%rax
     d67:	48 05 08 38 00 00    	add    $0x3808,%rax
     d6d:	48 03 83 88 04 00 00 	add    0x488(%rbx),%rax
     d74:	89 08                	mov    %ecx,(%rax)
     d76:	83 bb a0 04 00 00 03 	cmpl   $0x3,0x4a0(%rbx)
     d7d:	48 89 d6             	mov    %rdx,%rsi
     d80:	48 19 c0             	sbb    %rax,%rax
     d83:	48 c1 ee 20          	shr    $0x20,%rsi
     d87:	48 25 20 cc ff ff    	and    $0xffffffffffffcc20,%rax
     d8d:	48 05 04 38 00 00    	add    $0x3804,%rax
     d93:	48 03 83 88 04 00 00 	add    0x488(%rbx),%rax
     d9a:	89 30                	mov    %esi,(%rax)
     d9c:	83 bb a0 04 00 00 03 	cmpl   $0x3,0x4a0(%rbx)
     da3:	48 19 c0             	sbb    %rax,%rax
     da6:	48 25 20 cc ff ff    	and    $0xffffffffffffcc20,%rax
     dac:	48 05 00 38 00 00    	add    $0x3800,%rax
     db2:	48 03 83 88 04 00 00 	add    0x488(%rbx),%rax
     db9:	89 10                	mov    %edx,(%rax)
     dbb:	83 bb a0 04 00 00 03 	cmpl   $0x3,0x4a0(%rbx)
     dc2:	48 19 c0             	sbb    %rax,%rax
     dc5:	31 d2                	xor    %edx,%edx
     dc7:	48 25 20 cc ff ff    	and    $0xffffffffffffcc20,%rax
     dcd:	48 05 18 38 00 00    	add    $0x3818,%rax
     dd3:	48 03 83 88 04 00 00 	add    0x488(%rbx),%rax
     dda:	89 10                	mov    %edx,(%rax)
     ddc:	83 bb a0 04 00 00 03 	cmpl   $0x3,0x4a0(%rbx)
     de3:	48 19 c0             	sbb    %rax,%rax
     de6:	48 25 20 cc ff ff    	and    $0xffffffffffffcc20,%rax
     dec:	48 05 10 38 00 00    	add    $0x3810,%rax
     df2:	48 03 83 88 04 00 00 	add    0x488(%rbx),%rax
     df9:	89 10                	mov    %edx,(%rax)
     dfb:	83 bb a0 04 00 00 03 	cmpl   $0x3,0x4a0(%rbx)
     e02:	48 8b 93 40 02 00 00 	mov    0x240(%rbx),%rdx
     e09:	19 c0                	sbb    %eax,%eax
     e0b:	66 25 20 cc          	and    $0xcc20,%ax
     e0f:	66 05 10 38          	add    $0x3810,%ax
     e13:	66 89 42 28          	mov    %ax,0x28(%rdx)
     e17:	83 bb a0 04 00 00 03 	cmpl   $0x3,0x4a0(%rbx)
     e1e:	19 c0                	sbb    %eax,%eax
     e20:	48 8b 93 40 02 00 00 	mov    0x240(%rbx),%rdx
     e27:	66 25 20 cc          	and    $0xcc20,%ax
     e2b:	66 05 18 38          	add    $0x3818,%ax
     e2f:	66 89 42 2a          	mov    %ax,0x2a(%rdx)
     e33:	8b 83 ac 04 00 00    	mov    0x4ac(%rbx),%eax
     e39:	8b b3 a0 04 00 00    	mov    0x4a0(%rbx),%esi
     e3f:	83 e8 01             	sub    $0x1,%eax
     e42:	83 f8 02             	cmp    $0x2,%eax
     e45:	8d 56 ff             	lea    -0x1(%rsi),%edx
     e48:	48 8b b3 88 04 00 00 	mov    0x488(%rbx),%rsi
     e4f:	0f 92 c0             	setb   %al
     e52:	0f b6 c0             	movzbl %al,%eax
     e55:	83 c0 08             	add    $0x8,%eax
     e58:	0d 00 20 60 00       	or     $0x602000,%eax
     e5d:	83 fa 01             	cmp    $0x1,%edx
     e60:	ba 0a 08 a0 00       	mov    $0xa0080a,%edx
     e65:	0f 46 c2             	cmovbe %edx,%eax
     e68:	89 86 10 04 00 00    	mov    %eax,0x410(%rsi)
     e6e:	83 bb a0 04 00 00 03 	cmpl   $0x3,0x4a0(%rbx)
     e75:	8b 93 50 02 00 00    	mov    0x250(%rbx),%edx
     e7b:	48 19 c0             	sbb    %rax,%rax
     e7e:	48 25 20 cc ff ff    	and    $0xffffffffffffcc20,%rax
     e84:	48 05 20 38 00 00    	add    $0x3820,%rax
     e8a:	48 03 83 88 04 00 00 	add    0x488(%rbx),%rax
     e91:	89 10                	mov    %edx,(%rax)
     e93:	83 bb a0 04 00 00 04 	cmpl   $0x4,0x4a0(%rbx)
     e9a:	76 13                	jbe    eaf <e1000_configure_tx+0x17f>
     e9c:	48 8b 83 88 04 00 00 	mov    0x488(%rbx),%rax
     ea3:	8b 93 54 02 00 00    	mov    0x254(%rbx),%edx
     ea9:	89 90 2c 38 00 00    	mov    %edx,0x382c(%rax)
     eaf:	48 8b 83 88 04 00 00 	mov    0x488(%rbx),%rax
     eb6:	44 8b a0 00 04 00 00 	mov    0x400(%rax),%r12d
     ebd:	e8 00 00 00 00       	call   ec2 <e1000_configure_tx+0x192>
     ec2:	41 81 e4 0f f0 ff ff 	and    $0xfffff00f,%r12d
     ec9:	8b 93 a0 04 00 00    	mov    0x4a0(%rbx),%edx
     ecf:	41 81 cc f8 00 00 01 	or     $0x10000f8,%r12d
     ed6:	83 bb 50 02 00 00 01 	cmpl   $0x1,0x250(%rbx)
     edd:	19 c0                	sbb    %eax,%eax
     edf:	25 00 00 00 80       	and    $0x80000000,%eax
     ee4:	2d 00 00 00 7d       	sub    $0x7d000000,%eax
     ee9:	83 fa 02             	cmp    $0x2,%edx
     eec:	77 2c                	ja     f1a <e1000_configure_tx+0x1ea>
     eee:	0d 00 00 00 10       	or     $0x10000000,%eax
     ef3:	89 83 4c 02 00 00    	mov    %eax,0x24c(%rbx)
     ef9:	48 8b 83 88 04 00 00 	mov    0x488(%rbx),%rax
     f00:	44 89 a0 00 04 00 00 	mov    %r12d,0x400(%rax)
     f07:	5b                   	pop    %rbx
     f08:	41 5c                	pop    %r12
     f0a:	5d                   	pop    %rbp
     f0b:	31 c0                	xor    %eax,%eax
     f0d:	31 d2                	xor    %edx,%edx
     f0f:	31 c9                	xor    %ecx,%ecx
     f11:	31 f6                	xor    %esi,%esi
     f13:	31 ff                	xor    %edi,%edi
     f15:	e9 00 00 00 00       	jmp    f1a <e1000_configure_tx+0x1ea>
     f1a:	0d 00 00 00 08       	or     $0x8000000,%eax
     f1f:	89 83 4c 02 00 00    	mov    %eax,0x24c(%rbx)
     f25:	83 fa 04             	cmp    $0x4,%edx
     f28:	75 cf                	jne    ef9 <e1000_configure_tx+0x1c9>
     f2a:	83 bb d4 04 00 00 02 	cmpl   $0x2,0x4d4(%rbx)
     f31:	75 c6                	jne    ef9 <e1000_configure_tx+0x1c9>
     f33:	c6 83 90 02 00 00 01 	movb   $0x1,0x290(%rbx)
     f3a:	eb bd                	jmp    ef9 <e1000_configure_tx+0x1c9>
     f3c:	0f 1f 40 00          	nopl   0x0(%rax)

0000000000000f40 <__pfx_e1000_setup_rctl>:
     f40:	90                   	nop
     f41:	90                   	nop
     f42:	90                   	nop
     f43:	90                   	nop
     f44:	90                   	nop
     f45:	90                   	nop
     f46:	90                   	nop
     f47:	90                   	nop
     f48:	90                   	nop
     f49:	90                   	nop
     f4a:	90                   	nop
     f4b:	90                   	nop
     f4c:	90                   	nop
     f4d:	90                   	nop
     f4e:	90                   	nop
     f4f:	90                   	nop

0000000000000f50 <e1000_setup_rctl>:
     f50:	e8 00 00 00 00       	call   f55 <e1000_setup_rctl+0x5>
     f55:	55                   	push   %rbp
     f56:	48 89 e5             	mov    %rsp,%rbp
     f59:	41 55                	push   %r13
     f5b:	41 54                	push   %r12
     f5d:	49 89 fc             	mov    %rdi,%r12
     f60:	53                   	push   %rbx
     f61:	48 8b 87 88 04 00 00 	mov    0x488(%rdi),%rax
     f68:	48 05 00 01 00 00    	add    $0x100,%rax
     f6e:	8b 00                	mov    (%rax),%eax
     f70:	8b 9f 28 05 00 00    	mov    0x528(%rdi),%ebx
     f76:	44 0f b6 af 97 05 00 	movzbl 0x597(%rdi),%r13d
     f7d:	00 
     f7e:	80 e4 cf             	and    $0xcf,%ah
     f81:	c1 e3 0c             	shl    $0xc,%ebx
     f84:	09 c3                	or     %eax,%ebx
     f86:	41 80 fd 01          	cmp    $0x1,%r13b
     f8a:	0f 87 00 00 00 00    	ja     f90 <e1000_setup_rctl+0x40>
     f90:	89 d8                	mov    %ebx,%eax
     f92:	83 e3 fb             	and    $0xfffffffb,%ebx
     f95:	49 8b bc 24 78 04 00 	mov    0x478(%r12),%rdi
     f9c:	00 
     f9d:	0d 04 80 00 00       	or     $0x8004,%eax
     fa2:	80 cf 80             	or     $0x80,%bh
     fa5:	41 83 e5 01          	and    $0x1,%r13d
     fa9:	0f 45 d8             	cmovne %eax,%ebx
     fac:	89 d9                	mov    %ebx,%ecx
     fae:	83 c9 20             	or     $0x20,%ecx
     fb1:	81 7f 38 dc 05 00 00 	cmpl   $0x5dc,0x38(%rdi)
     fb8:	77 05                	ja     fbf <e1000_setup_rctl+0x6f>
     fba:	89 d9                	mov    %ebx,%ecx
     fbc:	83 e1 df             	and    $0xffffffdf,%ecx
     fbf:	89 ca                	mov    %ecx,%edx
     fc1:	41 8b b4 24 08 02 00 	mov    0x208(%r12),%esi
     fc8:	00 
     fc9:	81 e2 ff ff fc ff    	and    $0xfffcffff,%edx
     fcf:	89 d0                	mov    %edx,%eax
     fd1:	0d 00 00 02 02       	or     $0x2020000,%eax
     fd6:	81 fe 00 20 00 00    	cmp    $0x2000,%esi
     fdc:	74 26                	je     1004 <e1000_setup_rctl+0xb4>
     fde:	89 d0                	mov    %edx,%eax
     fe0:	0d 00 00 01 02       	or     $0x2010000,%eax
     fe5:	81 fe 00 40 00 00    	cmp    $0x4000,%esi
     feb:	74 17                	je     1004 <e1000_setup_rctl+0xb4>
     fed:	81 e1 ff ff fc fd    	and    $0xfdfcffff,%ecx
     ff3:	81 ca 00 00 03 02    	or     $0x2030000,%edx
     ff9:	81 fe 00 10 00 00    	cmp    $0x1000,%esi
     fff:	89 c8                	mov    %ecx,%eax
    1001:	0f 44 c2             	cmove  %edx,%eax
    1004:	89 c2                	mov    %eax,%edx
    1006:	81 e2 ff ff b3 ff    	and    $0xffb3ffff,%edx
    100c:	81 ca 04 80 80 00    	or     $0x808004,%edx
    1012:	f6 87 bd 00 00 00 10 	testb  $0x10,0xbd(%rdi)
    1019:	0f 45 c2             	cmovne %edx,%eax
    101c:	49 8b 94 24 88 04 00 	mov    0x488(%r12),%rdx
    1023:	00 
    1024:	89 82 00 01 00 00    	mov    %eax,0x100(%rdx)
    102a:	5b                   	pop    %rbx
    102b:	41 5c                	pop    %r12
    102d:	41 5d                	pop    %r13
    102f:	5d                   	pop    %rbp
    1030:	31 c0                	xor    %eax,%eax
    1032:	31 d2                	xor    %edx,%edx
    1034:	31 c9                	xor    %ecx,%ecx
    1036:	31 f6                	xor    %esi,%esi
    1038:	31 ff                	xor    %edi,%edi
    103a:	e9 00 00 00 00       	jmp    103f <e1000_setup_rctl+0xef>
    103f:	90                   	nop

0000000000001040 <__pfx_e1000_configure_rx>:
    1040:	90                   	nop
    1041:	90                   	nop
    1042:	90                   	nop
    1043:	90                   	nop
    1044:	90                   	nop
    1045:	90                   	nop
    1046:	90                   	nop
    1047:	90                   	nop
    1048:	90                   	nop
    1049:	90                   	nop
    104a:	90                   	nop
    104b:	90                   	nop
    104c:	90                   	nop
    104d:	90                   	nop
    104e:	90                   	nop
    104f:	90                   	nop

0000000000001050 <e1000_configure_rx>:
    1050:	e8 00 00 00 00       	call   1055 <e1000_configure_rx+0x5>
    1055:	55                   	push   %rbp
    1056:	48 c7 c2 00 00 00 00 	mov    $0x0,%rdx
    105d:	48 c7 c6 00 00 00 00 	mov    $0x0,%rsi
    1064:	48 89 e5             	mov    %rsp,%rbp
    1067:	41 56                	push   %r14
    1069:	41 55                	push   %r13
    106b:	41 54                	push   %r12
    106d:	53                   	push   %rbx
    106e:	48 8b 87 a8 02 00 00 	mov    0x2a8(%rdi),%rax
    1075:	48 89 fb             	mov    %rdi,%rbx
    1078:	8b 48 14             	mov    0x14(%rax),%ecx
    107b:	48 8b 87 78 04 00 00 	mov    0x478(%rdi),%rax
    1082:	c1 e1 04             	shl    $0x4,%ecx
    1085:	81 78 38 dc 05 00 00 	cmpl   $0x5dc,0x38(%rax)
    108c:	48 c7 c0 00 00 00 00 	mov    $0x0,%rax
    1093:	48 0f 46 d0          	cmovbe %rax,%rdx
    1097:	48 c7 c0 00 00 00 00 	mov    $0x0,%rax
    109e:	48 0f 46 c6          	cmovbe %rsi,%rax
    10a2:	48 89 97 a0 02 00 00 	mov    %rdx,0x2a0(%rdi)
    10a9:	48 89 87 98 02 00 00 	mov    %rax,0x298(%rdi)
    10b0:	48 8b 87 88 04 00 00 	mov    0x488(%rdi),%rax
    10b7:	44 8b a0 00 01 00 00 	mov    0x100(%rax),%r12d
    10be:	44 89 e2             	mov    %r12d,%edx
    10c1:	48 8b 87 88 04 00 00 	mov    0x488(%rdi),%rax
    10c8:	83 e2 fd             	and    $0xfffffffd,%edx
    10cb:	89 90 00 01 00 00    	mov    %edx,0x100(%rax)
    10d1:	83 bf a0 04 00 00 03 	cmpl   $0x3,0x4a0(%rdi)
    10d8:	8b 97 5c 04 00 00    	mov    0x45c(%rdi),%edx
    10de:	48 19 c0             	sbb    %rax,%rax
    10e1:	48 25 e8 d8 ff ff    	and    $0xffffffffffffd8e8,%rax
    10e7:	48 05 20 28 00 00    	add    $0x2820,%rax
    10ed:	48 03 87 88 04 00 00 	add    0x488(%rdi),%rax
    10f4:	89 10                	mov    %edx,(%rax)
    10f6:	8b 87 a0 04 00 00    	mov    0x4a0(%rdi),%eax
    10fc:	83 f8 04             	cmp    $0x4,%eax
    10ff:	76 27                	jbe    1128 <e1000_configure_rx+0xd8>
    1101:	48 8b 87 88 04 00 00 	mov    0x488(%rdi),%rax
    1108:	8b 97 60 04 00 00    	mov    0x460(%rdi),%edx
    110e:	89 90 2c 28 00 00    	mov    %edx,0x282c(%rax)
    1114:	8b 87 34 02 00 00    	mov    0x234(%rdi),%eax
    111a:	85 c0                	test   %eax,%eax
    111c:	0f 85 5e 01 00 00    	jne    1280 <e1000_configure_rx+0x230>
    1122:	8b 83 a0 04 00 00    	mov    0x4a0(%rbx),%eax
    1128:	83 f8 03             	cmp    $0x3,%eax
    112b:	48 8b 93 a8 02 00 00 	mov    0x2a8(%rbx),%rdx
    1132:	48 19 c0             	sbb    %rax,%rax
    1135:	48 25 10 d9 ff ff    	and    $0xffffffffffffd910,%rax
    113b:	48 8b 52 08          	mov    0x8(%rdx),%rdx
    113f:	48 05 08 28 00 00    	add    $0x2808,%rax
    1145:	48 03 83 88 04 00 00 	add    0x488(%rbx),%rax
    114c:	89 08                	mov    %ecx,(%rax)
    114e:	83 bb a0 04 00 00 03 	cmpl   $0x3,0x4a0(%rbx)
    1155:	48 89 d6             	mov    %rdx,%rsi
    1158:	48 19 c0             	sbb    %rax,%rax
    115b:	48 c1 ee 20          	shr    $0x20,%rsi
    115f:	48 25 10 d9 ff ff    	and    $0xffffffffffffd910,%rax
    1165:	48 05 04 28 00 00    	add    $0x2804,%rax
    116b:	48 03 83 88 04 00 00 	add    0x488(%rbx),%rax
    1172:	89 30                	mov    %esi,(%rax)
    1174:	83 bb a0 04 00 00 03 	cmpl   $0x3,0x4a0(%rbx)
    117b:	48 19 c0             	sbb    %rax,%rax
    117e:	48 25 10 d9 ff ff    	and    $0xffffffffffffd910,%rax
    1184:	48 05 00 28 00 00    	add    $0x2800,%rax
    118a:	48 03 83 88 04 00 00 	add    0x488(%rbx),%rax
    1191:	89 10                	mov    %edx,(%rax)
    1193:	83 bb a0 04 00 00 03 	cmpl   $0x3,0x4a0(%rbx)
    119a:	48 19 c0             	sbb    %rax,%rax
    119d:	31 d2                	xor    %edx,%edx
    119f:	48 25 10 d9 ff ff    	and    $0xffffffffffffd910,%rax
    11a5:	48 05 18 28 00 00    	add    $0x2818,%rax
    11ab:	48 03 83 88 04 00 00 	add    0x488(%rbx),%rax
    11b2:	89 10                	mov    %edx,(%rax)
    11b4:	83 bb a0 04 00 00 03 	cmpl   $0x3,0x4a0(%rbx)
    11bb:	48 19 c0             	sbb    %rax,%rax
    11be:	48 25 10 d9 ff ff    	and    $0xffffffffffffd910,%rax
    11c4:	48 05 10 28 00 00    	add    $0x2810,%rax
    11ca:	48 03 83 88 04 00 00 	add    0x488(%rbx),%rax
    11d1:	89 10                	mov    %edx,(%rax)
    11d3:	83 bb a0 04 00 00 03 	cmpl   $0x3,0x4a0(%rbx)
    11da:	48 8b 93 a8 02 00 00 	mov    0x2a8(%rbx),%rdx
    11e1:	19 c0                	sbb    %eax,%eax
    11e3:	66 25 10 d9          	and    $0xd910,%ax
    11e7:	66 05 10 28          	add    $0x2810,%ax
    11eb:	66 89 42 34          	mov    %ax,0x34(%rdx)
    11ef:	83 bb a0 04 00 00 03 	cmpl   $0x3,0x4a0(%rbx)
    11f6:	19 c0                	sbb    %eax,%eax
    11f8:	48 8b 93 a8 02 00 00 	mov    0x2a8(%rbx),%rdx
    11ff:	66 25 10 d9          	and    $0xd910,%ax
    1203:	66 05 18 28          	add    $0x2818,%ax
    1207:	66 89 42 36          	mov    %ax,0x36(%rdx)
    120b:	83 bb a0 04 00 00 02 	cmpl   $0x2,0x4a0(%rbx)
    1212:	76 43                	jbe    1257 <e1000_configure_rx+0x207>
    1214:	48 8b 83 88 04 00 00 	mov    0x488(%rbx),%rax
    121b:	44 8b a8 00 50 00 00 	mov    0x5000(%rax),%r13d
    1222:	44 0f b6 b3 64 04 00 	movzbl 0x464(%rbx),%r14d
    1229:	00 
    122a:	41 80 fe 01          	cmp    $0x1,%r14b
    122e:	0f 87 00 00 00 00    	ja     1234 <e1000_configure_rx+0x1e4>
    1234:	44 89 e8             	mov    %r13d,%eax
    1237:	41 81 e5 ff fd ff ff 	and    $0xfffffdff,%r13d
    123e:	80 cc 02             	or     $0x2,%ah
    1241:	41 83 e6 01          	and    $0x1,%r14d
    1245:	44 0f 45 e8          	cmovne %eax,%r13d
    1249:	48 8b 83 88 04 00 00 	mov    0x488(%rbx),%rax
    1250:	44 89 a8 00 50 00 00 	mov    %r13d,0x5000(%rax)
    1257:	48 8b 83 88 04 00 00 	mov    0x488(%rbx),%rax
    125e:	41 83 cc 02          	or     $0x2,%r12d
    1262:	44 89 a0 00 01 00 00 	mov    %r12d,0x100(%rax)
    1269:	5b                   	pop    %rbx
    126a:	41 5c                	pop    %r12
    126c:	41 5d                	pop    %r13
    126e:	41 5e                	pop    %r14
    1270:	5d                   	pop    %rbp
    1271:	31 c0                	xor    %eax,%eax
    1273:	31 d2                	xor    %edx,%edx
    1275:	31 c9                	xor    %ecx,%ecx
    1277:	31 f6                	xor    %esi,%esi
    1279:	31 ff                	xor    %edi,%edi
    127b:	e9 00 00 00 00       	jmp    1280 <e1000_configure_rx+0x230>
    1280:	48 8b 87 88 04 00 00 	mov    0x488(%rdi),%rax
    1287:	8b b3 30 02 00 00    	mov    0x230(%rbx),%esi
    128d:	31 d2                	xor    %edx,%edx
    128f:	48 8d b8 c4 00 00 00 	lea    0xc4(%rax),%rdi
    1296:	c1 e6 08             	shl    $0x8,%esi
    1299:	b8 00 ca 9a 3b       	mov    $0x3b9aca00,%eax
    129e:	f7 f6                	div    %esi
    12a0:	89 07                	mov    %eax,(%rdi)
    12a2:	e9 7b fe ff ff       	jmp    1122 <e1000_configure_rx+0xd2>
    12a7:	66 0f 1f 84 00 00 00 	nopw   0x0(%rax,%rax,1)
    12ae:	00 00 

00000000000012b0 <__pfx_e1000_tbi_should_accept>:
    12b0:	90                   	nop
    12b1:	90                   	nop
    12b2:	90                   	nop
    12b3:	90                   	nop
    12b4:	90                   	nop
    12b5:	90                   	nop
    12b6:	90                   	nop
    12b7:	90                   	nop
    12b8:	90                   	nop
    12b9:	90                   	nop
    12ba:	90                   	nop
    12bb:	90                   	nop
    12bc:	90                   	nop
    12bd:	90                   	nop
    12be:	90                   	nop
    12bf:	90                   	nop

00000000000012c0 <e1000_tbi_should_accept>:
    12c0:	e8 00 00 00 00       	call   12c5 <e1000_tbi_should_accept+0x5>
    12c5:	55                   	push   %rbp
    12c6:	89 d0                	mov    %edx,%eax
    12c8:	89 ca                	mov    %ecx,%edx
    12ca:	48 89 e5             	mov    %rsp,%rbp
    12cd:	41 56                	push   %r14
    12cf:	41 55                	push   %r13
    12d1:	41 89 f5             	mov    %esi,%r13d
    12d4:	41 54                	push   %r12
    12d6:	49 89 fc             	mov    %rdi,%r12
    12d9:	53                   	push   %rbx
    12da:	48 83 ec 18          	sub    $0x18,%rsp
    12de:	0f b6 9f 97 05 00 00 	movzbl 0x597(%rdi),%ebx
    12e5:	45 0f b6 74 10 ff    	movzbl -0x1(%r8,%rdx,1),%r14d
    12eb:	80 fb 01             	cmp    $0x1,%bl
    12ee:	0f 87 00 00 00 00    	ja     12f4 <e1000_tbi_should_accept+0x34>
    12f4:	83 e3 01             	and    $0x1,%ebx
    12f7:	74 13                	je     130c <e1000_tbi_should_accept+0x4c>
    12f9:	83 e0 97             	and    $0xffffff97,%eax
    12fc:	3c 01                	cmp    $0x1,%al
    12fe:	0f 94 c3             	sete   %bl
    1301:	41 80 fe 0f          	cmp    $0xf,%r14b
    1305:	0f 94 c0             	sete   %al
    1308:	20 c3                	and    %al,%bl
    130a:	75 1e                	jne    132a <e1000_tbi_should_accept+0x6a>
    130c:	48 83 c4 18          	add    $0x18,%rsp
    1310:	89 d8                	mov    %ebx,%eax
    1312:	5b                   	pop    %rbx
    1313:	41 5c                	pop    %r12
    1315:	41 5d                	pop    %r13
    1317:	41 5e                	pop    %r14
    1319:	5d                   	pop    %rbp
    131a:	31 d2                	xor    %edx,%edx
    131c:	31 c9                	xor    %ecx,%ecx
    131e:	31 f6                	xor    %esi,%esi
    1320:	31 ff                	xor    %edi,%edi
    1322:	45 31 c0             	xor    %r8d,%r8d
    1325:	e9 00 00 00 00       	jmp    132a <e1000_tbi_should_accept+0x6a>
    132a:	41 83 e5 08          	and    $0x8,%r13d
    132e:	41 8b 84 24 24 05 00 	mov    0x524(%r12),%eax
    1335:	00 
    1336:	74 1a                	je     1352 <e1000_tbi_should_accept+0x92>
    1338:	83 e8 04             	sub    $0x4,%eax
    133b:	39 c8                	cmp    %ecx,%eax
    133d:	73 0f                	jae    134e <e1000_tbi_should_accept+0x8e>
    133f:	41 8b 84 24 20 05 00 	mov    0x520(%r12),%eax
    1346:	00 
    1347:	83 c0 01             	add    $0x1,%eax
    134a:	39 c8                	cmp    %ecx,%eax
    134c:	73 17                	jae    1365 <e1000_tbi_should_accept+0xa5>
    134e:	31 db                	xor    %ebx,%ebx
    1350:	eb ba                	jmp    130c <e1000_tbi_should_accept+0x4c>
    1352:	39 c8                	cmp    %ecx,%eax
    1354:	73 f8                	jae    134e <e1000_tbi_should_accept+0x8e>
    1356:	41 8b 84 24 20 05 00 	mov    0x520(%r12),%eax
    135d:	00 
    135e:	83 c0 05             	add    $0x5,%eax
    1361:	39 c8                	cmp    %ecx,%eax
    1363:	72 e9                	jb     134e <e1000_tbi_should_accept+0x8e>
    1365:	4d 8d ac 24 1c 02 00 	lea    0x21c(%r12),%r13
    136c:	00 
    136d:	4c 89 45 d0          	mov    %r8,-0x30(%rbp)
    1371:	4c 89 ef             	mov    %r13,%rdi
    1374:	89 4d dc             	mov    %ecx,-0x24(%rbp)
    1377:	e8 00 00 00 00       	call   137c <e1000_tbi_should_accept+0xbc>
    137c:	8b 4d dc             	mov    -0x24(%rbp),%ecx
    137f:	4c 8b 45 d0          	mov    -0x30(%rbp),%r8
    1383:	49 83 ac 24 a8 05 00 	subq   $0x1,0x5a8(%r12)
    138a:	00 01 
    138c:	48 89 c6             	mov    %rax,%rsi
    138f:	49 83 84 24 80 06 00 	addq   $0x1,0x680(%r12)
    1396:	00 01 
    1398:	8d 51 ff             	lea    -0x1(%rcx),%edx
    139b:	49 8b 8c 24 a0 06 00 	mov    0x6a0(%r12),%rcx
    13a2:	00 
    13a3:	48 89 d0             	mov    %rdx,%rax
    13a6:	48 01 ca             	add    %rcx,%rdx
    13a9:	f7 c1 00 00 00 80    	test   $0x80000000,%ecx
    13af:	49 89 94 24 a0 06 00 	mov    %rdx,0x6a0(%r12)
    13b6:	00 
    13b7:	74 11                	je     13ca <e1000_tbi_should_accept+0x10a>
    13b9:	f7 c2 00 00 00 80    	test   $0x80000000,%edx
    13bf:	75 09                	jne    13ca <e1000_tbi_should_accept+0x10a>
    13c1:	49 83 84 24 a8 06 00 	addq   $0x1,0x6a8(%r12)
    13c8:	00 01 
    13ca:	41 0f b7 10          	movzwl (%r8),%edx
    13ce:	66 41 23 50 02       	and    0x2(%r8),%dx
    13d3:	66 41 23 50 04       	and    0x4(%r8),%dx
    13d8:	66 83 fa ff          	cmp    $0xffff,%dx
    13dc:	0f 84 90 00 00 00    	je     1472 <e1000_tbi_should_accept+0x1b2>
    13e2:	41 f6 00 01          	testb  $0x1,(%r8)
    13e6:	74 09                	je     13f1 <e1000_tbi_should_accept+0x131>
    13e8:	49 83 84 24 90 06 00 	addq   $0x1,0x690(%r12)
    13ef:	00 01 
    13f1:	41 3b 84 24 20 05 00 	cmp    0x520(%r12),%eax
    13f8:	00 
    13f9:	74 5c                	je     1457 <e1000_tbi_should_accept+0x197>
    13fb:	83 f8 40             	cmp    $0x40,%eax
    13fe:	74 43                	je     1443 <e1000_tbi_should_accept+0x183>
    1400:	83 f8 7f             	cmp    $0x7f,%eax
    1403:	74 7b                	je     1480 <e1000_tbi_should_accept+0x1c0>
    1405:	3d ff 00 00 00       	cmp    $0xff,%eax
    140a:	0f 84 84 00 00 00    	je     1494 <e1000_tbi_should_accept+0x1d4>
    1410:	3d ff 01 00 00       	cmp    $0x1ff,%eax
    1415:	0f 84 8d 00 00 00    	je     14a8 <e1000_tbi_should_accept+0x1e8>
    141b:	3d ff 03 00 00       	cmp    $0x3ff,%eax
    1420:	0f 84 99 00 00 00    	je     14bf <e1000_tbi_should_accept+0x1ff>
    1426:	3d f2 05 00 00       	cmp    $0x5f2,%eax
    142b:	75 09                	jne    1436 <e1000_tbi_should_accept+0x176>
    142d:	49 83 84 24 78 06 00 	addq   $0x1,0x678(%r12)
    1434:	00 01 
    1436:	4c 89 ef             	mov    %r13,%rdi
    1439:	e8 00 00 00 00       	call   143e <e1000_tbi_should_accept+0x17e>
    143e:	e9 c9 fe ff ff       	jmp    130c <e1000_tbi_should_accept+0x4c>
    1443:	49 83 84 24 50 06 00 	addq   $0x1,0x650(%r12)
    144a:	00 01 
    144c:	49 83 ac 24 58 06 00 	subq   $0x1,0x658(%r12)
    1453:	00 01 
    1455:	eb df                	jmp    1436 <e1000_tbi_should_accept+0x176>
    1457:	49 8b 94 24 d8 06 00 	mov    0x6d8(%r12),%rdx
    145e:	00 
    145f:	48 85 d2             	test   %rdx,%rdx
    1462:	74 97                	je     13fb <e1000_tbi_should_accept+0x13b>
    1464:	48 83 ea 01          	sub    $0x1,%rdx
    1468:	49 89 94 24 d8 06 00 	mov    %rdx,0x6d8(%r12)
    146f:	00 
    1470:	eb 89                	jmp    13fb <e1000_tbi_should_accept+0x13b>
    1472:	49 83 84 24 88 06 00 	addq   $0x1,0x688(%r12)
    1479:	00 01 
    147b:	e9 71 ff ff ff       	jmp    13f1 <e1000_tbi_should_accept+0x131>
    1480:	49 83 84 24 58 06 00 	addq   $0x1,0x658(%r12)
    1487:	00 01 
    1489:	49 83 ac 24 60 06 00 	subq   $0x1,0x660(%r12)
    1490:	00 01 
    1492:	eb a2                	jmp    1436 <e1000_tbi_should_accept+0x176>
    1494:	49 83 84 24 60 06 00 	addq   $0x1,0x660(%r12)
    149b:	00 01 
    149d:	49 83 ac 24 68 06 00 	subq   $0x1,0x668(%r12)
    14a4:	00 01 
    14a6:	eb 8e                	jmp    1436 <e1000_tbi_should_accept+0x176>
    14a8:	49 83 84 24 68 06 00 	addq   $0x1,0x668(%r12)
    14af:	00 01 
    14b1:	49 83 ac 24 70 06 00 	subq   $0x1,0x670(%r12)
    14b8:	00 01 
    14ba:	e9 77 ff ff ff       	jmp    1436 <e1000_tbi_should_accept+0x176>
    14bf:	49 83 84 24 70 06 00 	addq   $0x1,0x670(%r12)
    14c6:	00 01 
    14c8:	49 83 ac 24 78 06 00 	subq   $0x1,0x678(%r12)
    14cf:	00 01 
    14d1:	e9 60 ff ff ff       	jmp    1436 <e1000_tbi_should_accept+0x176>
    14d6:	66 2e 0f 1f 84 00 00 	cs nopw 0x0(%rax,%rax,1)
    14dd:	00 00 00 

00000000000014e0 <__pfx_e1000_unmap_and_free_tx_resource>:
    14e0:	90                   	nop
    14e1:	90                   	nop
    14e2:	90                   	nop
    14e3:	90                   	nop
    14e4:	90                   	nop
    14e5:	90                   	nop
    14e6:	90                   	nop
    14e7:	90                   	nop
    14e8:	90                   	nop
    14e9:	90                   	nop
    14ea:	90                   	nop
    14eb:	90                   	nop
    14ec:	90                   	nop
    14ed:	90                   	nop
    14ee:	90                   	nop
    14ef:	90                   	nop

00000000000014f0 <e1000_unmap_and_free_tx_resource>:
    14f0:	e8 00 00 00 00       	call   14f5 <e1000_unmap_and_free_tx_resource+0x5>
    14f5:	55                   	push   %rbp
    14f6:	48 89 e5             	mov    %rsp,%rbp
    14f9:	41 55                	push   %r13
    14fb:	41 89 d5             	mov    %edx,%r13d
    14fe:	41 54                	push   %r12
    1500:	53                   	push   %rbx
    1501:	48 89 f3             	mov    %rsi,%rbx
    1504:	48 8b 76 08          	mov    0x8(%rsi),%rsi
    1508:	48 85 f6             	test   %rsi,%rsi
    150b:	74 37                	je     1544 <e1000_unmap_and_free_tx_resource+0x54>
    150d:	0f b6 43 1c          	movzbl 0x1c(%rbx),%eax
    1511:	49 89 fc             	mov    %rdi,%r12
    1514:	3c 01                	cmp    $0x1,%al
    1516:	0f 87 00 00 00 00    	ja     151c <e1000_unmap_and_free_tx_resource+0x2c>
    151c:	49 8b bc 24 80 04 00 	mov    0x480(%r12),%rdi
    1523:	00 
    1524:	0f b7 53 18          	movzwl 0x18(%rbx),%edx
    1528:	45 31 c0             	xor    %r8d,%r8d
    152b:	b9 01 00 00 00       	mov    $0x1,%ecx
    1530:	48 81 c7 c8 00 00 00 	add    $0xc8,%rdi
    1537:	e8 00 00 00 00       	call   153c <e1000_unmap_and_free_tx_resource+0x4c>
    153c:	48 c7 43 08 00 00 00 	movq   $0x0,0x8(%rbx)
    1543:	00 
    1544:	48 8b 3b             	mov    (%rbx),%rdi
    1547:	48 85 ff             	test   %rdi,%rdi
    154a:	74 0f                	je     155b <e1000_unmap_and_free_tx_resource+0x6b>
    154c:	44 89 ee             	mov    %r13d,%esi
    154f:	e8 00 00 00 00       	call   1554 <e1000_unmap_and_free_tx_resource+0x64>
    1554:	48 c7 03 00 00 00 00 	movq   $0x0,(%rbx)
    155b:	48 c7 43 10 00 00 00 	movq   $0x0,0x10(%rbx)
    1562:	00 
    1563:	5b                   	pop    %rbx
    1564:	41 5c                	pop    %r12
    1566:	41 5d                	pop    %r13
    1568:	5d                   	pop    %rbp
    1569:	31 c0                	xor    %eax,%eax
    156b:	31 d2                	xor    %edx,%edx
    156d:	31 c9                	xor    %ecx,%ecx
    156f:	31 f6                	xor    %esi,%esi
    1571:	31 ff                	xor    %edi,%edi
    1573:	45 31 c0             	xor    %r8d,%r8d
    1576:	e9 00 00 00 00       	jmp    157b <e1000_unmap_and_free_tx_resource+0x8b>
    157b:	0f 1f 44 00 00       	nopl   0x0(%rax,%rax,1)

0000000000001580 <__pfx_e1000_clean_tx_ring>:
    1580:	90                   	nop
    1581:	90                   	nop
    1582:	90                   	nop
    1583:	90                   	nop
    1584:	90                   	nop
    1585:	90                   	nop
    1586:	90                   	nop
    1587:	90                   	nop
    1588:	90                   	nop
    1589:	90                   	nop
    158a:	90                   	nop
    158b:	90                   	nop
    158c:	90                   	nop
    158d:	90                   	nop
    158e:	90                   	nop
    158f:	90                   	nop

0000000000001590 <e1000_clean_tx_ring>:
    1590:	e8 00 00 00 00       	call   1595 <e1000_clean_tx_ring+0x5>
    1595:	55                   	push   %rbp
    1596:	48 89 e5             	mov    %rsp,%rbp
    1599:	41 55                	push   %r13
    159b:	49 89 fd             	mov    %rdi,%r13
    159e:	41 54                	push   %r12
    15a0:	49 89 f4             	mov    %rsi,%r12
    15a3:	53                   	push   %rbx
    15a4:	8b 46 14             	mov    0x14(%rsi),%eax
    15a7:	85 c0                	test   %eax,%eax
    15a9:	74 25                	je     15d0 <e1000_clean_tx_ring+0x40>
    15ab:	31 db                	xor    %ebx,%ebx
    15ad:	89 d8                	mov    %ebx,%eax
    15af:	4c 89 ef             	mov    %r13,%rdi
    15b2:	83 c3 01             	add    $0x1,%ebx
    15b5:	48 8d 14 80          	lea    (%rax,%rax,4),%rdx
    15b9:	49 8b 44 24 20       	mov    0x20(%r12),%rax
    15be:	48 8d 34 d0          	lea    (%rax,%rdx,8),%rsi
    15c2:	31 d2                	xor    %edx,%edx
    15c4:	e8 27 ff ff ff       	call   14f0 <e1000_unmap_and_free_tx_resource>
    15c9:	41 3b 5c 24 14       	cmp    0x14(%r12),%ebx
    15ce:	72 dd                	jb     15ad <e1000_clean_tx_ring+0x1d>
    15d0:	49 8b 85 78 04 00 00 	mov    0x478(%r13),%rax
    15d7:	48 8b 78 18          	mov    0x18(%rax),%rdi
    15db:	f0 80 a7 d0 00 00 00 	lock andb $0xfd,0xd0(%rdi)
    15e2:	fd 
    15e3:	48 81 c7 00 01 00 00 	add    $0x100,%rdi
    15ea:	e8 00 00 00 00       	call   15ef <e1000_clean_tx_ring+0x5f>
    15ef:	41 8b 44 24 14       	mov    0x14(%r12),%eax
    15f4:	49 8b 7c 24 20       	mov    0x20(%r12),%rdi
    15f9:	31 f6                	xor    %esi,%esi
    15fb:	48 8d 14 80          	lea    (%rax,%rax,4),%rdx
    15ff:	48 c1 e2 03          	shl    $0x3,%rdx
    1603:	e8 00 00 00 00       	call   1608 <e1000_clean_tx_ring+0x78>
    1608:	41 8b 54 24 10       	mov    0x10(%r12),%edx
    160d:	49 8b 3c 24          	mov    (%r12),%rdi
    1611:	31 f6                	xor    %esi,%esi
    1613:	e8 00 00 00 00       	call   1618 <e1000_clean_tx_ring+0x88>
    1618:	41 c6 44 24 2c 00    	movb   $0x0,0x2c(%r12)
    161e:	41 0f b7 44 24 28    	movzwl 0x28(%r12),%eax
    1624:	31 d2                	xor    %edx,%edx
    1626:	49 c7 44 24 18 00 00 	movq   $0x0,0x18(%r12)
    162d:	00 00 
    162f:	49 03 85 88 04 00 00 	add    0x488(%r13),%rax
    1636:	89 10                	mov    %edx,(%rax)
    1638:	41 0f b7 44 24 2a    	movzwl 0x2a(%r12),%eax
    163e:	49 03 85 88 04 00 00 	add    0x488(%r13),%rax
    1645:	89 10                	mov    %edx,(%rax)
    1647:	5b                   	pop    %rbx
    1648:	41 5c                	pop    %r12
    164a:	41 5d                	pop    %r13
    164c:	5d                   	pop    %rbp
    164d:	31 c0                	xor    %eax,%eax
    164f:	31 d2                	xor    %edx,%edx
    1651:	31 f6                	xor    %esi,%esi
    1653:	31 ff                	xor    %edi,%edi
    1655:	e9 00 00 00 00       	jmp    165a <e1000_clean_tx_ring+0xca>
    165a:	66 0f 1f 44 00 00    	nopw   0x0(%rax,%rax,1)

0000000000001660 <__pfx_e1000_alloc_jumbo_rx_buffers>:
    1660:	90                   	nop
    1661:	90                   	nop
    1662:	90                   	nop
    1663:	90                   	nop
    1664:	90                   	nop
    1665:	90                   	nop
    1666:	90                   	nop
    1667:	90                   	nop
    1668:	90                   	nop
    1669:	90                   	nop
    166a:	90                   	nop
    166b:	90                   	nop
    166c:	90                   	nop
    166d:	90                   	nop
    166e:	90                   	nop
    166f:	90                   	nop

0000000000001670 <e1000_alloc_jumbo_rx_buffers>:
    1670:	e8 00 00 00 00       	call   1675 <e1000_alloc_jumbo_rx_buffers+0x5>
    1675:	55                   	push   %rbp
    1676:	48 89 e5             	mov    %rsp,%rbp
    1679:	41 57                	push   %r15
    167b:	41 56                	push   %r14
    167d:	41 55                	push   %r13
    167f:	41 54                	push   %r12
    1681:	53                   	push   %rbx
    1682:	48 83 ec 08          	sub    $0x8,%rsp
    1686:	48 8b 87 80 04 00 00 	mov    0x480(%rdi),%rax
    168d:	8b 5e 18             	mov    0x18(%rsi),%ebx
    1690:	48 05 c8 00 00 00    	add    $0xc8,%rax
    1696:	49 89 dc             	mov    %rbx,%r12
    1699:	48 c1 e3 04          	shl    $0x4,%rbx
    169d:	48 03 5e 20          	add    0x20(%rsi),%rbx
    16a1:	48 89 45 d0          	mov    %rax,-0x30(%rbp)
    16a5:	85 d2                	test   %edx,%edx
    16a7:	0f 84 d2 00 00 00    	je     177f <e1000_alloc_jumbo_rx_buffers+0x10f>
    16ad:	49 89 fd             	mov    %rdi,%r13
    16b0:	49 89 f7             	mov    %rsi,%r15
    16b3:	41 89 d6             	mov    %edx,%r14d
    16b6:	eb 2c                	jmp    16e4 <e1000_alloc_jumbo_rx_buffers+0x74>
    16b8:	44 89 e2             	mov    %r12d,%edx
    16bb:	41 83 c4 01          	add    $0x1,%r12d
    16bf:	48 c1 e2 04          	shl    $0x4,%rdx
    16c3:	49 03 17             	add    (%r15),%rdx
    16c6:	48 89 02             	mov    %rax,(%rdx)
    16c9:	45 39 67 14          	cmp    %r12d,0x14(%r15)
    16cd:	0f 84 e9 00 00 00    	je     17bc <e1000_alloc_jumbo_rx_buffers+0x14c>
    16d3:	44 89 e3             	mov    %r12d,%ebx
    16d6:	48 c1 e3 04          	shl    $0x4,%rbx
    16da:	49 03 5f 20          	add    0x20(%r15),%rbx
    16de:	41 83 ee 01          	sub    $0x1,%r14d
    16e2:	74 75                	je     1759 <e1000_alloc_jumbo_rx_buffers+0xe9>
    16e4:	48 83 3b 00          	cmpq   $0x0,(%rbx)
    16e8:	0f 84 b4 00 00 00    	je     17a2 <e1000_alloc_jumbo_rx_buffers+0x132>
    16ee:	48 8b 43 08          	mov    0x8(%rbx),%rax
    16f2:	48 85 c0             	test   %rax,%rax
    16f5:	75 c1                	jne    16b8 <e1000_alloc_jumbo_rx_buffers+0x48>
    16f7:	41 8b 8d 08 02 00 00 	mov    0x208(%r13),%ecx
    16fe:	48 8b 33             	mov    (%rbx),%rsi
    1701:	45 31 c9             	xor    %r9d,%r9d
    1704:	31 d2                	xor    %edx,%edx
    1706:	48 8b 7d d0          	mov    -0x30(%rbp),%rdi
    170a:	41 b8 02 00 00 00    	mov    $0x2,%r8d
    1710:	e8 00 00 00 00       	call   1715 <e1000_alloc_jumbo_rx_buffers+0xa5>
    1715:	48 89 43 08          	mov    %rax,0x8(%rbx)
    1719:	48 83 f8 ff          	cmp    $0xffffffffffffffff,%rax
    171d:	75 99                	jne    16b8 <e1000_alloc_jumbo_rx_buffers+0x48>
    171f:	48 8b 3b             	mov    (%rbx),%rdi
    1722:	48 8b 47 08          	mov    0x8(%rdi),%rax
    1726:	a8 01                	test   $0x1,%al
    1728:	0f 85 0a 01 00 00    	jne    1838 <e1000_alloc_jumbo_rx_buffers+0x1c8>
    172e:	0f 1f 44 00 00       	nopl   0x0(%rax,%rax,1)
    1733:	0f 1f 44 00 00       	nopl   0x0(%rax,%rax,1)
    1738:	f0 ff 4f 34          	lock decl 0x34(%rdi)
    173c:	0f 84 ec 00 00 00    	je     182e <e1000_alloc_jumbo_rx_buffers+0x1be>
    1742:	48 c7 03 00 00 00 00 	movq   $0x0,(%rbx)
    1749:	48 c7 43 08 00 00 00 	movq   $0x0,0x8(%rbx)
    1750:	00 
    1751:	41 83 85 58 04 00 00 	addl   $0x1,0x458(%r13)
    1758:	01 
    1759:	45 39 67 18          	cmp    %r12d,0x18(%r15)
    175d:	74 20                	je     177f <e1000_alloc_jumbo_rx_buffers+0x10f>
    175f:	45 89 67 18          	mov    %r12d,0x18(%r15)
    1763:	41 8d 54 24 ff       	lea    -0x1(%r12),%edx
    1768:	45 85 e4             	test   %r12d,%r12d
    176b:	0f 84 b1 00 00 00    	je     1822 <e1000_alloc_jumbo_rx_buffers+0x1b2>
    1771:	41 0f b7 47 36       	movzwl 0x36(%r15),%eax
    1776:	49 03 85 88 04 00 00 	add    0x488(%r13),%rax
    177d:	89 10                	mov    %edx,(%rax)
    177f:	48 83 c4 08          	add    $0x8,%rsp
    1783:	5b                   	pop    %rbx
    1784:	41 5c                	pop    %r12
    1786:	41 5d                	pop    %r13
    1788:	41 5e                	pop    %r14
    178a:	41 5f                	pop    %r15
    178c:	5d                   	pop    %rbp
    178d:	31 c0                	xor    %eax,%eax
    178f:	31 d2                	xor    %edx,%edx
    1791:	31 c9                	xor    %ecx,%ecx
    1793:	31 f6                	xor    %esi,%esi
    1795:	31 ff                	xor    %edi,%edi
    1797:	45 31 c0             	xor    %r8d,%r8d
    179a:	45 31 c9             	xor    %r9d,%r9d
    179d:	e9 00 00 00 00       	jmp    17a2 <e1000_alloc_jumbo_rx_buffers+0x132>
    17a2:	31 f6                	xor    %esi,%esi
    17a4:	bf 20 08 00 00       	mov    $0x820,%edi
    17a9:	e8 00 00 00 00       	call   17ae <e1000_alloc_jumbo_rx_buffers+0x13e>
    17ae:	48 89 03             	mov    %rax,(%rbx)
    17b1:	48 85 c0             	test   %rax,%rax
    17b4:	0f 85 34 ff ff ff    	jne    16ee <e1000_alloc_jumbo_rx_buffers+0x7e>
    17ba:	eb 95                	jmp    1751 <e1000_alloc_jumbo_rx_buffers+0xe1>
    17bc:	31 db                	xor    %ebx,%ebx
    17be:	45 31 e4             	xor    %r12d,%r12d
    17c1:	e9 14 ff ff ff       	jmp    16da <e1000_alloc_jumbo_rx_buffers+0x6a>
    17c6:	48 8b 07             	mov    (%rdi),%rax
    17c9:	48 c1 e8 33          	shr    $0x33,%rax
    17cd:	83 e0 07             	and    $0x7,%eax
    17d0:	83 f8 04             	cmp    $0x4,%eax
    17d3:	0f 85 5f ff ff ff    	jne    1738 <e1000_alloc_jumbo_rx_buffers+0xc8>
    17d9:	be 01 00 00 00       	mov    $0x1,%esi
    17de:	48 89 7d d0          	mov    %rdi,-0x30(%rbp)
    17e2:	e8 00 00 00 00       	call   17e7 <e1000_alloc_jumbo_rx_buffers+0x177>
    17e7:	48 8b 7d d0          	mov    -0x30(%rbp),%rdi
    17eb:	84 c0                	test   %al,%al
    17ed:	0f 85 4f ff ff ff    	jne    1742 <e1000_alloc_jumbo_rx_buffers+0xd2>
    17f3:	e9 40 ff ff ff       	jmp    1738 <e1000_alloc_jumbo_rx_buffers+0xc8>
    17f8:	f7 c7 ff 0f 00 00    	test   $0xfff,%edi
    17fe:	0f 85 2f ff ff ff    	jne    1733 <e1000_alloc_jumbo_rx_buffers+0xc3>
    1804:	48 8b 07             	mov    (%rdi),%rax
    1807:	a8 40                	test   $0x40,%al
    1809:	0f 84 24 ff ff ff    	je     1733 <e1000_alloc_jumbo_rx_buffers+0xc3>
    180f:	48 8b 47 48          	mov    0x48(%rdi),%rax
    1813:	48 8d 50 ff          	lea    -0x1(%rax),%rdx
    1817:	a8 01                	test   $0x1,%al
    1819:	48 0f 45 fa          	cmovne %rdx,%rdi
    181d:	e9 11 ff ff ff       	jmp    1733 <e1000_alloc_jumbo_rx_buffers+0xc3>
    1822:	41 8b 47 14          	mov    0x14(%r15),%eax
    1826:	8d 50 ff             	lea    -0x1(%rax),%edx
    1829:	e9 43 ff ff ff       	jmp    1771 <e1000_alloc_jumbo_rx_buffers+0x101>
    182e:	e8 00 00 00 00       	call   1833 <e1000_alloc_jumbo_rx_buffers+0x1c3>
    1833:	e9 0a ff ff ff       	jmp    1742 <e1000_alloc_jumbo_rx_buffers+0xd2>
    1838:	48 8d 78 ff          	lea    -0x1(%rax),%rdi
    183c:	e9 f2 fe ff ff       	jmp    1733 <e1000_alloc_jumbo_rx_buffers+0xc3>
    1841:	66 66 2e 0f 1f 84 00 	data16 cs nopw 0x0(%rax,%rax,1)
    1848:	00 00 00 00 
    184c:	0f 1f 40 00          	nopl   0x0(%rax)

0000000000001850 <__pfx_e1000_dump_eeprom.isra.0>:
    1850:	90                   	nop
    1851:	90                   	nop
    1852:	90                   	nop
    1853:	90                   	nop
    1854:	90                   	nop
    1855:	90                   	nop
    1856:	90                   	nop
    1857:	90                   	nop
    1858:	90                   	nop
    1859:	90                   	nop
    185a:	90                   	nop
    185b:	90                   	nop
    185c:	90                   	nop
    185d:	90                   	nop
    185e:	90                   	nop
    185f:	90                   	nop

0000000000001860 <e1000_dump_eeprom.isra.0>:
    1860:	e8 00 00 00 00       	call   1865 <e1000_dump_eeprom.isra.0+0x5>
    1865:	55                   	push   %rbp
    1866:	48 89 e5             	mov    %rsp,%rbp
    1869:	41 55                	push   %r13
    186b:	41 54                	push   %r12
    186d:	53                   	push   %rbx
    186e:	48 89 fb             	mov    %rdi,%rbx
    1871:	48 83 ec 18          	sub    $0x18,%rsp
    1875:	4c 8b a7 08 03 00 00 	mov    0x308(%rdi),%r12
    187c:	65 48 8b 04 25 28 00 	mov    %gs:0x28,%rax
    1883:	00 00 
    1885:	48 89 45 e0          	mov    %rax,-0x20(%rbp)
    1889:	31 c0                	xor    %eax,%eax
    188b:	48 c7 45 d0 00 00 00 	movq   $0x0,-0x30(%rbp)
    1892:	00 
    1893:	48 c7 45 d8 00 00 00 	movq   $0x0,-0x28(%rbp)
    189a:	00 
    189b:	49 8b 44 24 68       	mov    0x68(%r12),%rax
    18a0:	e8 00 00 00 00       	call   18a5 <e1000_dump_eeprom.isra.0+0x45>
    18a5:	be c0 0c 00 00       	mov    $0xcc0,%esi
    18aa:	c7 45 d8 00 00 00 00 	movl   $0x0,-0x28(%rbp)
    18b1:	89 c7                	mov    %eax,%edi
    18b3:	89 45 dc             	mov    %eax,-0x24(%rbp)
    18b6:	e8 00 00 00 00       	call   18bb <e1000_dump_eeprom.isra.0+0x5b>
    18bb:	48 85 c0             	test   %rax,%rax
    18be:	0f 84 43 01 00 00    	je     1a07 <e1000_dump_eeprom.isra.0+0x1a7>
    18c4:	49 89 c5             	mov    %rax,%r13
    18c7:	48 8d 75 d0          	lea    -0x30(%rbp),%rsi
    18cb:	49 8b 44 24 70       	mov    0x70(%r12),%rax
    18d0:	48 89 df             	mov    %rbx,%rdi
    18d3:	4c 89 ea             	mov    %r13,%rdx
    18d6:	45 31 e4             	xor    %r12d,%r12d
    18d9:	e8 00 00 00 00       	call   18de <e1000_dump_eeprom.isra.0+0x7e>
    18de:	41 0f b7 5d 7e       	movzwl 0x7e(%r13),%ebx
    18e3:	4c 89 ea             	mov    %r13,%rdx
    18e6:	49 8d 75 7e          	lea    0x7e(%r13),%rsi
    18ea:	0f b6 42 01          	movzbl 0x1(%rdx),%eax
    18ee:	0f b6 0a             	movzbl (%rdx),%ecx
    18f1:	48 83 c2 02          	add    $0x2,%rdx
    18f5:	c1 e0 08             	shl    $0x8,%eax
    18f8:	01 c8                	add    %ecx,%eax
    18fa:	41 01 c4             	add    %eax,%r12d
    18fd:	48 39 f2             	cmp    %rsi,%rdx
    1900:	75 e8                	jne    18ea <e1000_dump_eeprom.isra.0+0x8a>
    1902:	48 c7 c7 00 00 00 00 	mov    $0x0,%rdi
    1909:	e8 00 00 00 00       	call   190e <e1000_dump_eeprom.isra.0+0xae>
    190e:	0f b7 f3             	movzwl %bx,%esi
    1911:	48 c7 c7 00 00 00 00 	mov    $0x0,%rdi
    1918:	e8 00 00 00 00       	call   191d <e1000_dump_eeprom.isra.0+0xbd>
    191d:	be ba ba ff ff       	mov    $0xffffbaba,%esi
    1922:	48 c7 c7 00 00 00 00 	mov    $0x0,%rdi
    1929:	44 29 e6             	sub    %r12d,%esi
    192c:	0f b7 f6             	movzwl %si,%esi
    192f:	e8 00 00 00 00       	call   1934 <e1000_dump_eeprom.isra.0+0xd4>
    1934:	48 c7 c7 00 00 00 00 	mov    $0x0,%rdi
    193b:	e8 00 00 00 00       	call   1940 <e1000_dump_eeprom.isra.0+0xe0>
    1940:	48 c7 c7 00 00 00 00 	mov    $0x0,%rdi
    1947:	e8 00 00 00 00       	call   194c <e1000_dump_eeprom.isra.0+0xec>
    194c:	ba 02 00 00 00       	mov    $0x2,%edx
    1951:	4d 89 e9             	mov    %r13,%r9
    1954:	41 b8 01 00 00 00    	mov    $0x1,%r8d
    195a:	6a 00                	push   $0x0
    195c:	b9 10 00 00 00       	mov    $0x10,%ecx
    1961:	48 c7 c6 00 00 00 00 	mov    $0x0,%rsi
    1968:	48 c7 c7 00 00 00 00 	mov    $0x0,%rdi
    196f:	68 80 00 00 00       	push   $0x80
    1974:	e8 00 00 00 00       	call   1979 <e1000_dump_eeprom.isra.0+0x119>
    1979:	48 c7 c7 00 00 00 00 	mov    $0x0,%rdi
    1980:	e8 00 00 00 00       	call   1985 <e1000_dump_eeprom.isra.0+0x125>
    1985:	48 c7 c7 00 00 00 00 	mov    $0x0,%rdi
    198c:	e8 00 00 00 00       	call   1991 <e1000_dump_eeprom.isra.0+0x131>
    1991:	48 c7 c7 00 00 00 00 	mov    $0x0,%rdi
    1998:	e8 00 00 00 00       	call   199d <e1000_dump_eeprom.isra.0+0x13d>
    199d:	48 c7 c7 00 00 00 00 	mov    $0x0,%rdi
    19a4:	e8 00 00 00 00       	call   19a9 <e1000_dump_eeprom.isra.0+0x149>
    19a9:	48 c7 c7 00 00 00 00 	mov    $0x0,%rdi
    19b0:	e8 00 00 00 00       	call   19b5 <e1000_dump_eeprom.isra.0+0x155>
    19b5:	48 c7 c7 00 00 00 00 	mov    $0x0,%rdi
    19bc:	e8 00 00 00 00       	call   19c1 <e1000_dump_eeprom.isra.0+0x161>
    19c1:	48 c7 c7 00 00 00 00 	mov    $0x0,%rdi
    19c8:	e8 00 00 00 00       	call   19cd <e1000_dump_eeprom.isra.0+0x16d>
    19cd:	48 c7 c7 00 00 00 00 	mov    $0x0,%rdi
    19d4:	e8 00 00 00 00       	call   19d9 <e1000_dump_eeprom.isra.0+0x179>
    19d9:	48 c7 c7 00 00 00 00 	mov    $0x0,%rdi
    19e0:	e8 00 00 00 00       	call   19e5 <e1000_dump_eeprom.isra.0+0x185>
    19e5:	48 c7 c7 00 00 00 00 	mov    $0x0,%rdi
    19ec:	e8 00 00 00 00       	call   19f1 <e1000_dump_eeprom.isra.0+0x191>
    19f1:	48 c7 c7 00 00 00 00 	mov    $0x0,%rdi
    19f8:	e8 00 00 00 00       	call   19fd <e1000_dump_eeprom.isra.0+0x19d>
    19fd:	4c 89 ef             	mov    %r13,%rdi
    1a00:	e8 00 00 00 00       	call   1a05 <e1000_dump_eeprom.isra.0+0x1a5>
    1a05:	58                   	pop    %rax
    1a06:	5a                   	pop    %rdx
    1a07:	48 8b 45 e0          	mov    -0x20(%rbp),%rax
    1a0b:	65 48 2b 04 25 28 00 	sub    %gs:0x28,%rax
    1a12:	00 00 
    1a14:	75 1f                	jne    1a35 <e1000_dump_eeprom.isra.0+0x1d5>
    1a16:	48 8d 65 e8          	lea    -0x18(%rbp),%rsp
    1a1a:	5b                   	pop    %rbx
    1a1b:	41 5c                	pop    %r12
    1a1d:	41 5d                	pop    %r13
    1a1f:	5d                   	pop    %rbp
    1a20:	31 c0                	xor    %eax,%eax
    1a22:	31 d2                	xor    %edx,%edx
    1a24:	31 c9                	xor    %ecx,%ecx
    1a26:	31 f6                	xor    %esi,%esi
    1a28:	31 ff                	xor    %edi,%edi
    1a2a:	45 31 c0             	xor    %r8d,%r8d
    1a2d:	45 31 c9             	xor    %r9d,%r9d
    1a30:	e9 00 00 00 00       	jmp    1a35 <e1000_dump_eeprom.isra.0+0x1d5>
    1a35:	e8 00 00 00 00       	call   1a3a <e1000_dump_eeprom.isra.0+0x1da>
    1a3a:	66 0f 1f 44 00 00    	nopw   0x0(%rax,%rax,1)

0000000000001a40 <__pfx_e1000_tso.constprop.0>:
    1a40:	90                   	nop
    1a41:	90                   	nop
    1a42:	90                   	nop
    1a43:	90                   	nop
    1a44:	90                   	nop
    1a45:	90                   	nop
    1a46:	90                   	nop
    1a47:	90                   	nop
    1a48:	90                   	nop
    1a49:	90                   	nop
    1a4a:	90                   	nop
    1a4b:	90                   	nop
    1a4c:	90                   	nop
    1a4d:	90                   	nop
    1a4e:	90                   	nop
    1a4f:	90                   	nop

0000000000001a50 <e1000_tso.constprop.0>:
    1a50:	e8 00 00 00 00       	call   1a55 <e1000_tso.constprop.0+0x5>
    1a55:	55                   	push   %rbp
    1a56:	31 c0                	xor    %eax,%eax
    1a58:	48 89 e5             	mov    %rsp,%rbp
    1a5b:	41 57                	push   %r15
    1a5d:	41 56                	push   %r14
    1a5f:	41 55                	push   %r13
    1a61:	41 89 d5             	mov    %edx,%r13d
    1a64:	41 54                	push   %r12
    1a66:	53                   	push   %rbx
    1a67:	48 83 ec 08          	sub    $0x8,%rsp
    1a6b:	48 8b 8e c8 00 00 00 	mov    0xc8(%rsi),%rcx
    1a72:	8b 96 c0 00 00 00    	mov    0xc0(%rsi),%edx
    1a78:	48 01 ca             	add    %rcx,%rdx
    1a7b:	44 0f b7 7a 04       	movzwl 0x4(%rdx),%r15d
    1a80:	66 45 85 ff          	test   %r15w,%r15w
    1a84:	75 27                	jne    1aad <e1000_tso.constprop.0+0x5d>
    1a86:	48 83 c4 08          	add    $0x8,%rsp
    1a8a:	5b                   	pop    %rbx
    1a8b:	41 5c                	pop    %r12
    1a8d:	41 5d                	pop    %r13
    1a8f:	41 5e                	pop    %r14
    1a91:	41 5f                	pop    %r15
    1a93:	5d                   	pop    %rbp
    1a94:	31 d2                	xor    %edx,%edx
    1a96:	31 c9                	xor    %ecx,%ecx
    1a98:	31 f6                	xor    %esi,%esi
    1a9a:	31 ff                	xor    %edi,%edi
    1a9c:	45 31 c0             	xor    %r8d,%r8d
    1a9f:	45 31 c9             	xor    %r9d,%r9d
    1aa2:	45 31 d2             	xor    %r10d,%r10d
    1aa5:	45 31 db             	xor    %r11d,%r11d
    1aa8:	e9 00 00 00 00       	jmp    1aad <e1000_tso.constprop.0+0x5d>
    1aad:	49 89 fc             	mov    %rdi,%r12
    1ab0:	48 89 f3             	mov    %rsi,%rbx
    1ab3:	f6 46 7e 01          	testb  $0x1,0x7e(%rsi)
    1ab7:	74 14                	je     1acd <e1000_tso.constprop.0+0x7d>
    1ab9:	8b 42 20             	mov    0x20(%rdx),%eax
    1abc:	0f b7 f0             	movzwl %ax,%esi
    1abf:	c1 f8 10             	sar    $0x10,%eax
    1ac2:	29 c6                	sub    %eax,%esi
    1ac4:	83 fe 01             	cmp    $0x1,%esi
    1ac7:	0f 85 0c 01 00 00    	jne    1bd9 <e1000_tso.constprop.0+0x189>
    1acd:	44 0f b7 b3 b6 00 00 	movzwl 0xb6(%rbx),%r14d
    1ad4:	00 
    1ad5:	48 8b b3 d0 00 00 00 	mov    0xd0(%rbx),%rsi
    1adc:	0f b7 bb b8 00 00 00 	movzwl 0xb8(%rbx),%edi
    1ae3:	49 01 ce             	add    %rcx,%r14
    1ae6:	41 0f b6 46 0c       	movzbl 0xc(%r14),%eax
    1aeb:	4d 89 f0             	mov    %r14,%r8
    1aee:	48 01 cf             	add    %rcx,%rdi
    1af1:	49 29 f0             	sub    %rsi,%r8
    1af4:	c0 e8 04             	shr    $0x4,%al
    1af7:	0f b6 c0             	movzbl %al,%eax
    1afa:	45 8d 0c 80          	lea    (%r8,%rax,4),%r9d
    1afe:	66 41 83 fd 08       	cmp    $0x8,%r13w
    1b03:	0f 84 03 01 00 00    	je     1c0c <e1000_tso.constprop.0+0x1bc>
    1b09:	8b 42 18             	mov    0x18(%rdx),%eax
    1b0c:	45 31 ed             	xor    %r13d,%r13d
    1b0f:	83 e0 10             	and    $0x10,%eax
    1b12:	0f 85 68 01 00 00    	jne    1c80 <e1000_tso.constprop.0+0x230>
    1b18:	0f b7 93 b8 00 00 00 	movzwl 0xb8(%rbx),%edx
    1b1f:	45 8b 54 24 18       	mov    0x18(%r12),%r10d
    1b24:	41 0f b6 f9          	movzbl %r9b,%edi
    1b28:	49 83 c6 10          	add    $0x10,%r14
    1b2c:	49 29 f6             	sub    %rsi,%r14
    1b2f:	48 01 ca             	add    %rcx,%rdx
    1b32:	8b 4b 70             	mov    0x70(%rbx),%ecx
    1b35:	4f 8d 1c 92          	lea    (%r10,%r10,4),%r11
    1b39:	29 f9                	sub    %edi,%ecx
    1b3b:	4c 89 d7             	mov    %r10,%rdi
    1b3e:	09 c1                	or     %eax,%ecx
    1b40:	4c 89 d0             	mov    %r10,%rax
    1b43:	4d 8b 54 24 20       	mov    0x20(%r12),%r10
    1b48:	48 c1 e0 04          	shl    $0x4,%rax
    1b4c:	49 03 04 24          	add    (%r12),%rax
    1b50:	81 c9 00 00 00 25    	or     $0x25000000,%ecx
    1b56:	4f 8d 14 da          	lea    (%r10,%r11,8),%r10
    1b5a:	49 89 d3             	mov    %rdx,%r11
    1b5d:	48 83 c2 0a          	add    $0xa,%rdx
    1b61:	44 88 40 04          	mov    %r8b,0x4(%rax)
    1b65:	48 29 f2             	sub    %rsi,%rdx
    1b68:	49 29 f3             	sub    %rsi,%r11
    1b6b:	66 44 89 68 02       	mov    %r13w,0x2(%rax)
    1b70:	88 50 01             	mov    %dl,0x1(%rax)
    1b73:	31 d2                	xor    %edx,%edx
    1b75:	44 88 18             	mov    %r11b,(%rax)
    1b78:	44 88 70 05          	mov    %r14b,0x5(%rax)
    1b7c:	66 89 50 06          	mov    %dx,0x6(%rax)
    1b80:	66 44 89 78 0e       	mov    %r15w,0xe(%rax)
    1b85:	44 88 48 0d          	mov    %r9b,0xd(%rax)
    1b89:	89 48 08             	mov    %ecx,0x8(%rax)
    1b8c:	48 8b 05 00 00 00 00 	mov    0x0(%rip),%rax        # 1b93 <e1000_tso.constprop.0+0x143>
    1b93:	66 41 89 7a 1a       	mov    %di,0x1a(%r10)
    1b98:	83 c7 01             	add    $0x1,%edi
    1b9b:	49 89 42 10          	mov    %rax,0x10(%r10)
    1b9f:	41 3b 7c 24 14       	cmp    0x14(%r12),%edi
    1ba4:	75 02                	jne    1ba8 <e1000_tso.constprop.0+0x158>
    1ba6:	31 ff                	xor    %edi,%edi
    1ba8:	41 89 7c 24 18       	mov    %edi,0x18(%r12)
    1bad:	48 83 c4 08          	add    $0x8,%rsp
    1bb1:	b8 01 00 00 00       	mov    $0x1,%eax
    1bb6:	5b                   	pop    %rbx
    1bb7:	41 5c                	pop    %r12
    1bb9:	41 5d                	pop    %r13
    1bbb:	41 5e                	pop    %r14
    1bbd:	41 5f                	pop    %r15
    1bbf:	5d                   	pop    %rbp
    1bc0:	31 d2                	xor    %edx,%edx
    1bc2:	31 c9                	xor    %ecx,%ecx
    1bc4:	31 f6                	xor    %esi,%esi
    1bc6:	31 ff                	xor    %edi,%edi
    1bc8:	45 31 c0             	xor    %r8d,%r8d
    1bcb:	45 31 c9             	xor    %r9d,%r9d
    1bce:	45 31 d2             	xor    %r10d,%r10d
    1bd1:	45 31 db             	xor    %r11d,%r11d
    1bd4:	e9 00 00 00 00       	jmp    1bd9 <e1000_tso.constprop.0+0x189>
    1bd9:	31 d2                	xor    %edx,%edx
    1bdb:	31 f6                	xor    %esi,%esi
    1bdd:	b9 20 08 00 00       	mov    $0x820,%ecx
    1be2:	48 89 df             	mov    %rbx,%rdi
    1be5:	e8 00 00 00 00       	call   1bea <e1000_tso.constprop.0+0x19a>
    1bea:	85 c0                	test   %eax,%eax
    1bec:	0f 88 94 fe ff ff    	js     1a86 <e1000_tso.constprop.0+0x36>
    1bf2:	48 8b 8b c8 00 00 00 	mov    0xc8(%rbx),%rcx
    1bf9:	8b 93 c0 00 00 00    	mov    0xc0(%rbx),%edx
    1bff:	48 01 ca             	add    %rcx,%rdx
    1c02:	44 0f b7 7a 04       	movzwl 0x4(%rdx),%r15d
    1c07:	e9 c1 fe ff ff       	jmp    1acd <e1000_tso.constprop.0+0x7d>
    1c0c:	31 c0                	xor    %eax,%eax
    1c0e:	31 f6                	xor    %esi,%esi
    1c10:	45 31 c0             	xor    %r8d,%r8d
    1c13:	03 47 10             	add    0x10(%rdi),%eax
    1c16:	13 47 0c             	adc    0xc(%rdi),%eax
    1c19:	15 00 06 00 00       	adc    $0x600,%eax
    1c1e:	83 d0 00             	adc    $0x0,%eax
    1c21:	89 c2                	mov    %eax,%edx
    1c23:	66 31 c0             	xor    %ax,%ax
    1c26:	66 44 89 47 0a       	mov    %r8w,0xa(%rdi)
    1c2b:	c1 e2 10             	shl    $0x10,%edx
    1c2e:	66 89 77 02          	mov    %si,0x2(%rdi)
    1c32:	48 8b 8b c8 00 00 00 	mov    0xc8(%rbx),%rcx
    1c39:	01 d0                	add    %edx,%eax
    1c3b:	15 ff ff 00 00       	adc    $0xffff,%eax
    1c40:	f7 d0                	not    %eax
    1c42:	0f b7 93 b6 00 00 00 	movzwl 0xb6(%rbx),%edx
    1c49:	c1 e8 10             	shr    $0x10,%eax
    1c4c:	f7 d0                	not    %eax
    1c4e:	66 89 44 11 10       	mov    %ax,0x10(%rcx,%rdx,1)
    1c53:	48 8b 8b c8 00 00 00 	mov    0xc8(%rbx),%rcx
    1c5a:	b8 00 00 00 02       	mov    $0x2000000,%eax
    1c5f:	44 0f b7 b3 b6 00 00 	movzwl 0xb6(%rbx),%r14d
    1c66:	00 
    1c67:	48 8b b3 d0 00 00 00 	mov    0xd0(%rbx),%rsi
    1c6e:	49 01 ce             	add    %rcx,%r14
    1c71:	4d 89 f0             	mov    %r14,%r8
    1c74:	49 29 f0             	sub    %rsi,%r8
    1c77:	45 8d 68 ff          	lea    -0x1(%r8),%r13d
    1c7b:	e9 98 fe ff ff       	jmp    1b18 <e1000_tso.constprop.0+0xc8>
    1c80:	31 c9                	xor    %ecx,%ecx
    1c82:	48 8d 77 18          	lea    0x18(%rdi),%rsi
    1c86:	45 31 c0             	xor    %r8d,%r8d
    1c89:	48 83 c7 08          	add    $0x8,%rdi
    1c8d:	66 89 4f fc          	mov    %cx,-0x4(%rdi)
    1c91:	31 d2                	xor    %edx,%edx
    1c93:	b9 06 00 00 00       	mov    $0x6,%ecx
    1c98:	44 89 4d d4          	mov    %r9d,-0x2c(%rbp)
    1c9c:	e8 00 00 00 00       	call   1ca1 <e1000_tso.constprop.0+0x251>
    1ca1:	44 8b 4d d4          	mov    -0x2c(%rbp),%r9d
    1ca5:	f7 d0                	not    %eax
    1ca7:	66 41 89 46 10       	mov    %ax,0x10(%r14)
    1cac:	48 8b 8b c8 00 00 00 	mov    0xc8(%rbx),%rcx
    1cb3:	31 c0                	xor    %eax,%eax
    1cb5:	44 0f b7 b3 b6 00 00 	movzwl 0xb6(%rbx),%r14d
    1cbc:	00 
    1cbd:	48 8b b3 d0 00 00 00 	mov    0xd0(%rbx),%rsi
    1cc4:	49 01 ce             	add    %rcx,%r14
    1cc7:	4d 89 f0             	mov    %r14,%r8
    1cca:	49 29 f0             	sub    %rsi,%r8
    1ccd:	e9 46 fe ff ff       	jmp    1b18 <e1000_tso.constprop.0+0xc8>
    1cd2:	66 66 2e 0f 1f 84 00 	data16 cs nopw 0x0(%rax,%rax,1)
    1cd9:	00 00 00 00 
    1cdd:	0f 1f 00             	nopl   (%rax)

0000000000001ce0 <__pfx_e1000_copybreak>:
    1ce0:	90                   	nop
    1ce1:	90                   	nop
    1ce2:	90                   	nop
    1ce3:	90                   	nop
    1ce4:	90                   	nop
    1ce5:	90                   	nop
    1ce6:	90                   	nop
    1ce7:	90                   	nop
    1ce8:	90                   	nop
    1ce9:	90                   	nop
    1cea:	90                   	nop
    1ceb:	90                   	nop
    1cec:	90                   	nop
    1ced:	90                   	nop
    1cee:	90                   	nop
    1cef:	90                   	nop

0000000000001cf0 <e1000_copybreak>:
    1cf0:	e8 00 00 00 00       	call   1cf5 <e1000_copybreak+0x5>
    1cf5:	55                   	push   %rbp
    1cf6:	48 89 e5             	mov    %rsp,%rbp
    1cf9:	41 57                	push   %r15
    1cfb:	41 56                	push   %r14
    1cfd:	41 55                	push   %r13
    1cff:	41 54                	push   %r12
    1d01:	53                   	push   %rbx
    1d02:	48 83 ec 08          	sub    $0x8,%rsp
    1d06:	39 15 00 00 00 00    	cmp    %edx,0x0(%rip)        # 1d0c <e1000_copybreak+0x1c>
    1d0c:	0f 82 89 00 00 00    	jb     1d9b <e1000_copybreak+0xab>
    1d12:	89 d3                	mov    %edx,%ebx
    1d14:	49 89 fc             	mov    %rdi,%r12
    1d17:	49 89 f7             	mov    %rsi,%r15
    1d1a:	ba 20 08 00 00       	mov    $0x820,%edx
    1d1f:	48 8d bf b0 02 00 00 	lea    0x2b0(%rdi),%rdi
    1d26:	89 de                	mov    %ebx,%esi
    1d28:	49 89 cd             	mov    %rcx,%r13
    1d2b:	e8 00 00 00 00       	call   1d30 <e1000_copybreak+0x40>
    1d30:	49 89 c6             	mov    %rax,%r14
    1d33:	48 85 c0             	test   %rax,%rax
    1d36:	74 5a                	je     1d92 <e1000_copybreak+0xa2>
    1d38:	49 8b bc 24 80 04 00 	mov    0x480(%r12),%rdi
    1d3f:	00 
    1d40:	49 8b 77 08          	mov    0x8(%r15),%rsi
    1d44:	89 da                	mov    %ebx,%edx
    1d46:	b9 02 00 00 00       	mov    $0x2,%ecx
    1d4b:	48 89 55 d0          	mov    %rdx,-0x30(%rbp)
    1d4f:	48 81 c7 c8 00 00 00 	add    $0xc8,%rdi
    1d56:	e8 00 00 00 00       	call   1d5b <e1000_copybreak+0x6b>
    1d5b:	89 de                	mov    %ebx,%esi
    1d5d:	4c 89 f7             	mov    %r14,%rdi
    1d60:	e8 00 00 00 00       	call   1d65 <e1000_copybreak+0x75>
    1d65:	48 8b 55 d0          	mov    -0x30(%rbp),%rdx
    1d69:	4c 89 ee             	mov    %r13,%rsi
    1d6c:	48 89 c7             	mov    %rax,%rdi
    1d6f:	e8 00 00 00 00       	call   1d74 <e1000_copybreak+0x84>
    1d74:	48 83 c4 08          	add    $0x8,%rsp
    1d78:	4c 89 f0             	mov    %r14,%rax
    1d7b:	5b                   	pop    %rbx
    1d7c:	41 5c                	pop    %r12
    1d7e:	41 5d                	pop    %r13
    1d80:	41 5e                	pop    %r14
    1d82:	41 5f                	pop    %r15
    1d84:	5d                   	pop    %rbp
    1d85:	31 d2                	xor    %edx,%edx
    1d87:	31 c9                	xor    %ecx,%ecx
    1d89:	31 f6                	xor    %esi,%esi
    1d8b:	31 ff                	xor    %edi,%edi
    1d8d:	e9 00 00 00 00       	jmp    1d92 <e1000_copybreak+0xa2>
    1d92:	41 83 84 24 58 04 00 	addl   $0x1,0x458(%r12)
    1d99:	00 01 
    1d9b:	45 31 f6             	xor    %r14d,%r14d
    1d9e:	eb d4                	jmp    1d74 <e1000_copybreak+0x84>

0000000000001da0 <__pfx_e1000_tx_timeout>:
    1da0:	90                   	nop
    1da1:	90                   	nop
    1da2:	90                   	nop
    1da3:	90                   	nop
    1da4:	90                   	nop
    1da5:	90                   	nop
    1da6:	90                   	nop
    1da7:	90                   	nop
    1da8:	90                   	nop
    1da9:	90                   	nop
    1daa:	90                   	nop
    1dab:	90                   	nop
    1dac:	90                   	nop
    1dad:	90                   	nop
    1dae:	90                   	nop
    1daf:	90                   	nop

0000000000001db0 <e1000_tx_timeout>:
    1db0:	e8 00 00 00 00       	call   1db5 <e1000_tx_timeout+0x5>
    1db5:	55                   	push   %rbp
    1db6:	48 8b 35 00 00 00 00 	mov    0x0(%rip),%rsi        # 1dbd <e1000_tx_timeout+0xd>
    1dbd:	48 8d 97 68 12 00 00 	lea    0x1268(%rdi),%rdx
    1dc4:	83 87 58 0c 00 00 01 	addl   $0x1,0xc58(%rdi)
    1dcb:	bf 00 20 00 00       	mov    $0x2000,%edi
    1dd0:	48 89 e5             	mov    %rsp,%rbp
    1dd3:	e8 00 00 00 00       	call   1dd8 <e1000_tx_timeout+0x28>
    1dd8:	5d                   	pop    %rbp
    1dd9:	31 c0                	xor    %eax,%eax
    1ddb:	31 d2                	xor    %edx,%edx
    1ddd:	31 f6                	xor    %esi,%esi
    1ddf:	31 ff                	xor    %edi,%edi
    1de1:	e9 00 00 00 00       	jmp    1de6 <e1000_tx_timeout+0x36>
    1de6:	66 2e 0f 1f 84 00 00 	cs nopw 0x0(%rax,%rax,1)
    1ded:	00 00 00 

0000000000001df0 <__pfx_e1000_remove>:
    1df0:	90                   	nop
    1df1:	90                   	nop
    1df2:	90                   	nop
    1df3:	90                   	nop
    1df4:	90                   	nop
    1df5:	90                   	nop
    1df6:	90                   	nop
    1df7:	90                   	nop
    1df8:	90                   	nop
    1df9:	90                   	nop
    1dfa:	90                   	nop
    1dfb:	90                   	nop
    1dfc:	90                   	nop
    1dfd:	90                   	nop
    1dfe:	90                   	nop
    1dff:	90                   	nop

0000000000001e00 <e1000_remove>:
    1e00:	e8 00 00 00 00       	call   1e05 <e1000_remove+0x5>
    1e05:	55                   	push   %rbp
    1e06:	48 89 e5             	mov    %rsp,%rbp
    1e09:	41 55                	push   %r13
    1e0b:	41 54                	push   %r12
    1e0d:	49 89 fc             	mov    %rdi,%r12
    1e10:	53                   	push   %rbx
    1e11:	48 8b 9f 40 01 00 00 	mov    0x140(%rdi),%rbx
    1e18:	48 8d bb e0 09 00 00 	lea    0x9e0(%rbx),%rdi
    1e1f:	4c 8d ab 68 0e 00 00 	lea    0xe68(%rbx),%r13
    1e26:	e8 95 eb ff ff       	call   9c0 <e1000_down_and_stop>
    1e2b:	8b 83 f4 0b 00 00    	mov    0xbf4(%rbx),%eax
    1e31:	85 c0                	test   %eax,%eax
    1e33:	74 1f                	je     1e54 <e1000_remove+0x54>
    1e35:	48 8b 83 68 0e 00 00 	mov    0xe68(%rbx),%rax
    1e3c:	48 05 20 58 00 00    	add    $0x5820,%rax
    1e42:	8b 00                	mov    (%rax),%eax
    1e44:	80 cc 20             	or     $0x20,%ah
    1e47:	48 8b 8b 68 0e 00 00 	mov    0xe68(%rbx),%rcx
    1e4e:	89 81 20 58 00 00    	mov    %eax,0x5820(%rcx)
    1e54:	48 89 df             	mov    %rbx,%rdi
    1e57:	e8 00 00 00 00       	call   1e5c <e1000_remove+0x5c>
    1e5c:	4c 89 ef             	mov    %r13,%rdi
    1e5f:	e8 00 00 00 00       	call   1e64 <e1000_remove+0x64>
    1e64:	48 8b bb 20 0c 00 00 	mov    0xc20(%rbx),%rdi
    1e6b:	e8 00 00 00 00       	call   1e70 <e1000_remove+0x70>
    1e70:	48 8b bb 88 0c 00 00 	mov    0xc88(%rbx),%rdi
    1e77:	e8 00 00 00 00       	call   1e7c <e1000_remove+0x7c>
    1e7c:	83 bb 80 0e 00 00 09 	cmpl   $0x9,0xe80(%rbx)
    1e83:	74 78                	je     1efd <e1000_remove+0xfd>
    1e85:	48 8b bb 68 0e 00 00 	mov    0xe68(%rbx),%rdi
    1e8c:	e8 00 00 00 00       	call   1e91 <e1000_remove+0x91>
    1e91:	48 8b bb 70 0e 00 00 	mov    0xe70(%rbx),%rdi
    1e98:	48 85 ff             	test   %rdi,%rdi
    1e9b:	74 05                	je     1ea2 <e1000_remove+0xa2>
    1e9d:	e8 00 00 00 00       	call   1ea2 <e1000_remove+0xa2>
    1ea2:	8b b3 5c 12 00 00    	mov    0x125c(%rbx),%esi
    1ea8:	4c 89 e7             	mov    %r12,%rdi
    1eab:	e8 00 00 00 00       	call   1eb0 <e1000_remove+0xb0>
    1eb0:	f0 48 0f ba ab 50 12 	lock btsq $0x3,0x1250(%rbx)
    1eb7:	00 00 03 
    1eba:	41 0f 92 c5          	setb   %r13b
    1ebe:	48 89 df             	mov    %rbx,%rdi
    1ec1:	e8 00 00 00 00       	call   1ec6 <e1000_remove+0xc6>
    1ec6:	45 84 ed             	test   %r13b,%r13b
    1ec9:	74 15                	je     1ee0 <e1000_remove+0xe0>
    1ecb:	5b                   	pop    %rbx
    1ecc:	41 5c                	pop    %r12
    1ece:	41 5d                	pop    %r13
    1ed0:	5d                   	pop    %rbp
    1ed1:	31 c0                	xor    %eax,%eax
    1ed3:	31 d2                	xor    %edx,%edx
    1ed5:	31 c9                	xor    %ecx,%ecx
    1ed7:	31 f6                	xor    %esi,%esi
    1ed9:	31 ff                	xor    %edi,%edi
    1edb:	e9 00 00 00 00       	jmp    1ee0 <e1000_remove+0xe0>
    1ee0:	4c 89 e7             	mov    %r12,%rdi
    1ee3:	e8 00 00 00 00       	call   1ee8 <e1000_remove+0xe8>
    1ee8:	5b                   	pop    %rbx
    1ee9:	41 5c                	pop    %r12
    1eeb:	41 5d                	pop    %r13
    1eed:	5d                   	pop    %rbp
    1eee:	31 c0                	xor    %eax,%eax
    1ef0:	31 d2                	xor    %edx,%edx
    1ef2:	31 c9                	xor    %ecx,%ecx
    1ef4:	31 f6                	xor    %esi,%esi
    1ef6:	31 ff                	xor    %edi,%edi
    1ef8:	e9 00 00 00 00       	jmp    1efd <e1000_remove+0xfd>
    1efd:	48 8b bb 78 0e 00 00 	mov    0xe78(%rbx),%rdi
    1f04:	e8 00 00 00 00       	call   1f09 <e1000_remove+0x109>
    1f09:	e9 77 ff ff ff       	jmp    1e85 <e1000_remove+0x85>
    1f0e:	66 90                	xchg   %ax,%ax

0000000000001f10 <__pfx_e1000_clean_rx_irq>:
    1f10:	90                   	nop
    1f11:	90                   	nop
    1f12:	90                   	nop
    1f13:	90                   	nop
    1f14:	90                   	nop
    1f15:	90                   	nop
    1f16:	90                   	nop
    1f17:	90                   	nop
    1f18:	90                   	nop
    1f19:	90                   	nop
    1f1a:	90                   	nop
    1f1b:	90                   	nop
    1f1c:	90                   	nop
    1f1d:	90                   	nop
    1f1e:	90                   	nop
    1f1f:	90                   	nop

0000000000001f20 <e1000_clean_rx_irq>:
    1f20:	e8 00 00 00 00       	call   1f25 <e1000_clean_rx_irq+0x5>
    1f25:	55                   	push   %rbp
    1f26:	48 89 e5             	mov    %rsp,%rbp
    1f29:	41 57                	push   %r15
    1f2b:	41 56                	push   %r14
    1f2d:	41 55                	push   %r13
    1f2f:	49 89 fd             	mov    %rdi,%r13
    1f32:	48 89 f7             	mov    %rsi,%rdi
    1f35:	41 54                	push   %r12
    1f37:	53                   	push   %rbx
    1f38:	48 83 ec 58          	sub    $0x58,%rsp
    1f3c:	44 8b 56 1c          	mov    0x1c(%rsi),%r10d
    1f40:	4c 8b 36             	mov    (%rsi),%r14
    1f43:	89 4d a0             	mov    %ecx,-0x60(%rbp)
    1f46:	49 8b 85 78 04 00 00 	mov    0x478(%r13),%rax
    1f4d:	48 89 55 b8          	mov    %rdx,-0x48(%rbp)
    1f51:	4c 89 d1             	mov    %r10,%rcx
    1f54:	49 c1 e2 04          	shl    $0x4,%r10
    1f58:	48 89 45 98          	mov    %rax,-0x68(%rbp)
    1f5c:	49 8b 85 80 04 00 00 	mov    0x480(%r13),%rax
    1f63:	4d 01 d6             	add    %r10,%r14
    1f66:	4c 03 56 20          	add    0x20(%rsi),%r10
    1f6a:	48 89 45 88          	mov    %rax,-0x78(%rbp)
    1f6e:	41 f6 46 0c 01       	testb  $0x1,0xc(%r14)
    1f73:	0f 84 3e 04 00 00    	je     23b7 <e1000_clean_rx_irq+0x497>
    1f79:	c7 45 94 00 00 00 00 	movl   $0x0,-0x6c(%rbp)
    1f80:	45 31 ff             	xor    %r15d,%r15d
    1f83:	c7 45 a4 00 00 00 00 	movl   $0x0,-0x5c(%rbp)
    1f8a:	c7 45 c4 00 00 00 00 	movl   $0x0,-0x3c(%rbp)
    1f91:	89 4d d4             	mov    %ecx,-0x2c(%rbp)
    1f94:	48 89 75 c8          	mov    %rsi,-0x38(%rbp)
    1f98:	e9 5b 01 00 00       	jmp    20f8 <e1000_clean_rx_irq+0x1d8>
    1f9d:	48 c1 e0 04          	shl    $0x4,%rax
    1fa1:	48 8b 4d c8          	mov    -0x38(%rbp),%rcx
    1fa5:	44 0f b6 7d d3       	movzbl -0x2d(%rbp),%r15d
    1faa:	4c 8b 21             	mov    (%rcx),%r12
    1fad:	49 01 c4             	add    %rax,%r12
    1fb0:	48 03 41 20          	add    0x20(%rcx),%rax
    1fb4:	41 0f 18 0c 24       	prefetcht0 (%r12)
    1fb9:	83 45 c4 01          	addl   $0x1,-0x3c(%rbp)
    1fbd:	48 89 45 b0          	mov    %rax,-0x50(%rbp)
    1fc1:	41 83 e7 02          	and    $0x2,%r15d
    1fc5:	0f 84 b2 01 00 00    	je     217d <e1000_clean_rx_irq+0x25d>
    1fcb:	41 0f b6 85 84 08 00 	movzbl 0x884(%r13),%eax
    1fd2:	00 
    1fd3:	89 c2                	mov    %eax,%edx
    1fd5:	83 e2 01             	and    $0x1,%edx
    1fd8:	3c 01                	cmp    $0x1,%al
    1fda:	0f 87 f2 03 00 00    	ja     23d2 <e1000_clean_rx_irq+0x4b2>
    1fe0:	84 d2                	test   %dl,%dl
    1fe2:	0f 85 9d 01 00 00    	jne    2185 <e1000_clean_rx_irq+0x265>
    1fe8:	41 0f b6 56 0d       	movzbl 0xd(%r14),%edx
    1fed:	f6 c2 97             	test   $0x97,%dl
    1ff0:	0f 85 38 03 00 00    	jne    232e <e1000_clean_rx_irq+0x40e>
    1ff6:	48 8b 45 98          	mov    -0x68(%rbp),%rax
    1ffa:	44 0f b6 7d d3       	movzbl -0x2d(%rbp),%r15d
    1fff:	48 8b 80 b8 00 00 00 	mov    0xb8(%rax),%rax
    2006:	8b 4d a4             	mov    -0x5c(%rbp),%ecx
    2009:	83 45 94 01          	addl   $0x1,-0x6c(%rbp)
    200d:	48 89 df             	mov    %rbx,%rdi
    2010:	41 8d 54 09 fc       	lea    -0x4(%r9,%rcx,1),%edx
    2015:	48 b9 00 00 00 00 00 	movabs $0x80000000000,%rcx
    201c:	08 00 00 
    201f:	48 85 c8             	test   %rcx,%rax
    2022:	89 55 a4             	mov    %edx,-0x5c(%rbp)
    2025:	41 8d 51 fc          	lea    -0x4(%r9),%edx
    2029:	44 0f 44 ca          	cmove  %edx,%r9d
    202d:	49 83 3a 00          	cmpq   $0x0,(%r10)
    2031:	44 89 ce             	mov    %r9d,%esi
    2034:	0f 84 34 02 00 00    	je     226e <e1000_clean_rx_irq+0x34e>
    203a:	e8 00 00 00 00       	call   203f <e1000_clean_rx_irq+0x11f>
    203f:	41 0f b6 46 0d       	movzbl 0xd(%r14),%eax
    2044:	c1 e0 18             	shl    $0x18,%eax
    2047:	41 09 c7             	or     %eax,%r15d
    204a:	c1 e8 18             	shr    $0x18,%eax
    204d:	41 83 bd a0 04 00 00 	cmpl   $0x2,0x4a0(%r13)
    2054:	02 
    2055:	76 2f                	jbe    2086 <e1000_clean_rx_irq+0x166>
    2057:	41 f6 c7 04          	test   $0x4,%r15b
    205b:	75 29                	jne    2086 <e1000_clean_rx_irq+0x166>
    205d:	a8 20                	test   $0x20,%al
    205f:	0f 85 07 03 00 00    	jne    236c <e1000_clean_rx_irq+0x44c>
    2065:	41 83 e7 20          	and    $0x20,%r15d
    2069:	74 1b                	je     2086 <e1000_clean_rx_irq+0x166>
    206b:	0f b6 83 80 00 00 00 	movzbl 0x80(%rbx),%eax
    2072:	83 e0 9f             	and    $0xffffff9f,%eax
    2075:	83 c8 20             	or     $0x20,%eax
    2078:	88 83 80 00 00 00    	mov    %al,0x80(%rbx)
    207e:	49 83 85 50 04 00 00 	addq   $0x1,0x450(%r13)
    2085:	01 
    2086:	49 8b b5 78 04 00 00 	mov    0x478(%r13),%rsi
    208d:	48 89 df             	mov    %rbx,%rdi
    2090:	45 0f b7 7e 0e       	movzwl 0xe(%r14),%r15d
    2095:	e8 00 00 00 00       	call   209a <e1000_clean_rx_irq+0x17a>
    209a:	66 89 83 b4 00 00 00 	mov    %ax,0xb4(%rbx)
    20a1:	f6 45 d3 08          	testb  $0x8,-0x2d(%rbp)
    20a5:	74 1a                	je     20c1 <e1000_clean_rx_irq+0x1a1>
    20a7:	b8 81 00 00 00       	mov    $0x81,%eax
    20ac:	66 41 81 e7 ff 0f    	and    $0xfff,%r15w
    20b2:	66 89 83 9c 00 00 00 	mov    %ax,0x9c(%rbx)
    20b9:	66 44 89 bb 9e 00 00 	mov    %r15w,0x9e(%rbx)
    20c0:	00 
    20c1:	49 8d bd b0 02 00 00 	lea    0x2b0(%r13),%rdi
    20c8:	48 89 de             	mov    %rbx,%rsi
    20cb:	e8 00 00 00 00       	call   20d0 <e1000_clean_rx_irq+0x1b0>
    20d0:	83 7d c4 10          	cmpl   $0x10,-0x3c(%rbp)
    20d4:	41 c6 46 0c 00       	movb   $0x0,0xc(%r14)
    20d9:	0f 84 d3 00 00 00    	je     21b2 <e1000_clean_rx_irq+0x292>
    20df:	41 bf 01 00 00 00    	mov    $0x1,%r15d
    20e5:	41 f6 44 24 0c 01    	testb  $0x1,0xc(%r12)
    20eb:	0f 84 f2 00 00 00    	je     21e3 <e1000_clean_rx_irq+0x2c3>
    20f1:	4c 8b 55 b0          	mov    -0x50(%rbp),%r10
    20f5:	4d 89 e6             	mov    %r12,%r14
    20f8:	48 8b 45 b8          	mov    -0x48(%rbp),%rax
    20fc:	8b 75 a0             	mov    -0x60(%rbp),%esi
    20ff:	8b 00                	mov    (%rax),%eax
    2101:	39 f0                	cmp    %esi,%eax
    2103:	0f 8d da 00 00 00    	jge    21e3 <e1000_clean_rx_irq+0x2c3>
    2109:	48 8b 7d b8          	mov    -0x48(%rbp),%rdi
    210d:	83 c0 01             	add    $0x1,%eax
    2110:	89 07                	mov    %eax,(%rdi)
    2112:	4d 8b 1a             	mov    (%r10),%r11
    2115:	45 0f b7 4e 08       	movzwl 0x8(%r14),%r9d
    211a:	4c 89 d6             	mov    %r10,%rsi
    211d:	4c 89 ef             	mov    %r13,%rdi
    2120:	41 0f b6 46 0c       	movzbl 0xc(%r14),%eax
    2125:	4c 89 d9             	mov    %r11,%rcx
    2128:	44 89 ca             	mov    %r9d,%edx
    212b:	41 0f 18 0b          	prefetcht0 (%r11)
    212f:	4c 89 5d a8          	mov    %r11,-0x58(%rbp)
    2133:	44 89 4d c0          	mov    %r9d,-0x40(%rbp)
    2137:	4c 89 55 b0          	mov    %r10,-0x50(%rbp)
    213b:	88 45 d3             	mov    %al,-0x2d(%rbp)
    213e:	e8 ad fb ff ff       	call   1cf0 <e1000_copybreak>
    2143:	4c 8b 55 b0          	mov    -0x50(%rbp),%r10
    2147:	44 8b 4d c0          	mov    -0x40(%rbp),%r9d
    214b:	48 85 c0             	test   %rax,%rax
    214e:	4c 8b 5d a8          	mov    -0x58(%rbp),%r11
    2152:	48 89 c3             	mov    %rax,%rbx
    2155:	0f 84 1d 01 00 00    	je     2278 <e1000_clean_rx_irq+0x358>
    215b:	48 8b 75 c8          	mov    -0x38(%rbp),%rsi
    215f:	83 45 d4 01          	addl   $0x1,-0x2c(%rbp)
    2163:	8b 45 d4             	mov    -0x2c(%rbp),%eax
    2166:	39 46 14             	cmp    %eax,0x14(%rsi)
    2169:	0f 85 2e fe ff ff    	jne    1f9d <e1000_clean_rx_irq+0x7d>
    216f:	c7 45 d4 00 00 00 00 	movl   $0x0,-0x2c(%rbp)
    2176:	31 c0                	xor    %eax,%eax
    2178:	e9 24 fe ff ff       	jmp    1fa1 <e1000_clean_rx_irq+0x81>
    217d:	41 c6 85 84 08 00 00 	movb   $0x1,0x884(%r13)
    2184:	01 
    2185:	0f 1f 44 00 00       	nopl   0x0(%rax,%rax,1)
    218a:	48 89 df             	mov    %rbx,%rdi
    218d:	e8 00 00 00 00       	call   2192 <e1000_clean_rx_irq+0x272>
    2192:	45 84 ff             	test   %r15b,%r15b
    2195:	0f 84 35 ff ff ff    	je     20d0 <e1000_clean_rx_irq+0x1b0>
    219b:	83 7d c4 10          	cmpl   $0x10,-0x3c(%rbp)
    219f:	41 c6 85 84 08 00 00 	movb   $0x0,0x884(%r13)
    21a6:	00 
    21a7:	41 c6 46 0c 00       	movb   $0x0,0xc(%r14)
    21ac:	0f 85 2d ff ff ff    	jne    20df <e1000_clean_rx_irq+0x1bf>
    21b2:	49 8b 85 a0 02 00 00 	mov    0x2a0(%r13),%rax
    21b9:	48 8b 75 c8          	mov    -0x38(%rbp),%rsi
    21bd:	ba 10 00 00 00       	mov    $0x10,%edx
    21c2:	4c 89 ef             	mov    %r13,%rdi
    21c5:	e8 00 00 00 00       	call   21ca <e1000_clean_rx_irq+0x2aa>
    21ca:	41 bf 01 00 00 00    	mov    $0x1,%r15d
    21d0:	c7 45 c4 00 00 00 00 	movl   $0x0,-0x3c(%rbp)
    21d7:	41 f6 44 24 0c 01    	testb  $0x1,0xc(%r12)
    21dd:	0f 85 0e ff ff ff    	jne    20f1 <e1000_clean_rx_irq+0x1d1>
    21e3:	8b 4d d4             	mov    -0x2c(%rbp),%ecx
    21e6:	48 8b 7d c8          	mov    -0x38(%rbp),%rdi
    21ea:	44 8b 65 a4          	mov    -0x5c(%rbp),%r12d
    21ee:	8b 5d 94             	mov    -0x6c(%rbp),%ebx
    21f1:	89 4f 1c             	mov    %ecx,0x1c(%rdi)
    21f4:	8b 57 1c             	mov    0x1c(%rdi),%edx
    21f7:	8b 77 18             	mov    0x18(%rdi),%esi
    21fa:	31 c9                	xor    %ecx,%ecx
    21fc:	39 d6                	cmp    %edx,%esi
    21fe:	72 03                	jb     2203 <e1000_clean_rx_irq+0x2e3>
    2200:	8b 4f 14             	mov    0x14(%rdi),%ecx
    2203:	83 ea 01             	sub    $0x1,%edx
    2206:	29 f2                	sub    %esi,%edx
    2208:	01 ca                	add    %ecx,%edx
    220a:	74 12                	je     221e <e1000_clean_rx_irq+0x2fe>
    220c:	48 89 fe             	mov    %rdi,%rsi
    220f:	49 8b 8d a0 02 00 00 	mov    0x2a0(%r13),%rcx
    2216:	4c 89 ef             	mov    %r13,%rdi
    2219:	e8 00 00 00 00       	call   221e <e1000_clean_rx_irq+0x2fe>
    221e:	8b 45 94             	mov    -0x6c(%rbp),%eax
    2221:	41 01 85 2c 02 00 00 	add    %eax,0x22c(%r13)
    2228:	8b 45 a4             	mov    -0x5c(%rbp),%eax
    222b:	41 01 85 28 02 00 00 	add    %eax,0x228(%r13)
    2232:	48 8b 45 98          	mov    -0x68(%rbp),%rax
    2236:	4c 01 a0 40 02 00 00 	add    %r12,0x240(%rax)
    223d:	48 01 98 30 02 00 00 	add    %rbx,0x230(%rax)
    2244:	48 83 c4 58          	add    $0x58,%rsp
    2248:	44 89 f8             	mov    %r15d,%eax
    224b:	5b                   	pop    %rbx
    224c:	41 5c                	pop    %r12
    224e:	41 5d                	pop    %r13
    2250:	41 5e                	pop    %r14
    2252:	41 5f                	pop    %r15
    2254:	5d                   	pop    %rbp
    2255:	31 d2                	xor    %edx,%edx
    2257:	31 c9                	xor    %ecx,%ecx
    2259:	31 f6                	xor    %esi,%esi
    225b:	31 ff                	xor    %edi,%edi
    225d:	45 31 c0             	xor    %r8d,%r8d
    2260:	45 31 c9             	xor    %r9d,%r9d
    2263:	45 31 d2             	xor    %r10d,%r10d
    2266:	45 31 db             	xor    %r11d,%r11d
    2269:	e9 00 00 00 00       	jmp    226e <e1000_clean_rx_irq+0x34e>
    226e:	e8 00 00 00 00       	call   2273 <e1000_clean_rx_irq+0x353>
    2273:	e9 c7 fd ff ff       	jmp    203f <e1000_clean_rx_irq+0x11f>
    2278:	41 8b 85 08 02 00 00 	mov    0x208(%r13),%eax
    227f:	49 8d 7b c0          	lea    -0x40(%r11),%rdi
    2283:	4c 89 55 a8          	mov    %r10,-0x58(%rbp)
    2287:	4c 89 5d b0          	mov    %r11,-0x50(%rbp)
    228b:	8d 70 7f             	lea    0x7f(%rax),%esi
    228e:	83 e6 c0             	and    $0xffffffc0,%esi
    2291:	81 c6 40 01 00 00    	add    $0x140,%esi
    2297:	e8 00 00 00 00       	call   229c <e1000_clean_rx_irq+0x37c>
    229c:	4c 8b 5d b0          	mov    -0x50(%rbp),%r11
    22a0:	44 8b 4d c0          	mov    -0x40(%rbp),%r9d
    22a4:	48 85 c0             	test   %rax,%rax
    22a7:	4c 8b 55 a8          	mov    -0x58(%rbp),%r10
    22ab:	48 89 c3             	mov    %rax,%rbx
    22ae:	0f 84 e8 00 00 00    	je     239c <e1000_clean_rx_irq+0x47c>
    22b4:	48 83 80 d0 00 00 00 	addq   $0x40,0xd0(%rax)
    22bb:	40 
    22bc:	45 31 c0             	xor    %r8d,%r8d
    22bf:	b9 02 00 00 00       	mov    $0x2,%ecx
    22c4:	83 80 bc 00 00 00 40 	addl   $0x40,0xbc(%rax)
    22cb:	48 8b 45 88          	mov    -0x78(%rbp),%rax
    22cf:	49 8b 72 08          	mov    0x8(%r10),%rsi
    22d3:	41 8b 95 08 02 00 00 	mov    0x208(%r13),%edx
    22da:	4c 89 5d a8          	mov    %r11,-0x58(%rbp)
    22de:	48 8d b8 c8 00 00 00 	lea    0xc8(%rax),%rdi
    22e5:	44 89 4d c0          	mov    %r9d,-0x40(%rbp)
    22e9:	4c 89 55 b0          	mov    %r10,-0x50(%rbp)
    22ed:	e8 00 00 00 00       	call   22f2 <e1000_clean_rx_irq+0x3d2>
    22f2:	4c 8b 55 b0          	mov    -0x50(%rbp),%r10
    22f6:	4c 8b 5d a8          	mov    -0x58(%rbp),%r11
    22fa:	44 8b 4d c0          	mov    -0x40(%rbp),%r9d
    22fe:	49 c7 42 08 00 00 00 	movq   $0x0,0x8(%r10)
    2305:	00 
    2306:	49 c7 02 00 00 00 00 	movq   $0x0,(%r10)
    230d:	e9 49 fe ff ff       	jmp    215b <e1000_clean_rx_irq+0x23b>
    2312:	48 8b 75 98          	mov    -0x68(%rbp),%rsi
    2316:	48 c7 c2 00 00 00 00 	mov    $0x0,%rdx
    231d:	48 c7 c7 00 00 00 00 	mov    $0x0,%rdi
    2324:	e8 00 00 00 00       	call   2329 <e1000_clean_rx_irq+0x409>
    2329:	e9 5c fe ff ff       	jmp    218a <e1000_clean_rx_irq+0x26a>
    232e:	44 0f b6 7d d3       	movzbl -0x2d(%rbp),%r15d
    2333:	44 89 c9             	mov    %r9d,%ecx
    2336:	4d 89 d8             	mov    %r11,%r8
    2339:	4c 89 ef             	mov    %r13,%rdi
    233c:	4c 89 55 a8          	mov    %r10,-0x58(%rbp)
    2340:	44 89 fe             	mov    %r15d,%esi
    2343:	44 89 4d c0          	mov    %r9d,-0x40(%rbp)
    2347:	e8 74 ef ff ff       	call   12c0 <e1000_tbi_should_accept>
    234c:	44 8b 4d c0          	mov    -0x40(%rbp),%r9d
    2350:	4c 8b 55 a8          	mov    -0x58(%rbp),%r10
    2354:	84 c0                	test   %al,%al
    2356:	74 21                	je     2379 <e1000_clean_rx_irq+0x459>
    2358:	48 8b 45 98          	mov    -0x68(%rbp),%rax
    235c:	41 83 e9 01          	sub    $0x1,%r9d
    2360:	48 8b 80 b8 00 00 00 	mov    0xb8(%rax),%rax
    2367:	e9 9a fc ff ff       	jmp    2006 <e1000_clean_rx_irq+0xe6>
    236c:	49 83 85 48 04 00 00 	addq   $0x1,0x448(%r13)
    2373:	01 
    2374:	e9 0d fd ff ff       	jmp    2086 <e1000_clean_rx_irq+0x166>
    2379:	48 8b 45 98          	mov    -0x68(%rbp),%rax
    237d:	48 8b 80 b8 00 00 00 	mov    0xb8(%rax),%rax
    2384:	48 0f ba e0 2c       	bt     $0x2c,%rax
    2389:	0f 82 77 fc ff ff    	jb     2006 <e1000_clean_rx_irq+0xe6>
    238f:	48 89 df             	mov    %rbx,%rdi
    2392:	e8 00 00 00 00       	call   2397 <e1000_clean_rx_irq+0x477>
    2397:	e9 34 fd ff ff       	jmp    20d0 <e1000_clean_rx_irq+0x1b0>
    239c:	41 83 85 58 04 00 00 	addl   $0x1,0x458(%r13)
    23a3:	01 
    23a4:	8b 4d d4             	mov    -0x2c(%rbp),%ecx
    23a7:	48 8b 7d c8          	mov    -0x38(%rbp),%rdi
    23ab:	44 8b 65 a4          	mov    -0x5c(%rbp),%r12d
    23af:	8b 5d 94             	mov    -0x6c(%rbp),%ebx
    23b2:	e9 3a fe ff ff       	jmp    21f1 <e1000_clean_rx_irq+0x2d1>
    23b7:	c7 45 94 00 00 00 00 	movl   $0x0,-0x6c(%rbp)
    23be:	31 db                	xor    %ebx,%ebx
    23c0:	45 31 e4             	xor    %r12d,%r12d
    23c3:	45 31 ff             	xor    %r15d,%r15d
    23c6:	c7 45 a4 00 00 00 00 	movl   $0x0,-0x5c(%rbp)
    23cd:	e9 1f fe ff ff       	jmp    21f1 <e1000_clean_rx_irq+0x2d1>
    23d2:	e9 00 00 00 00       	jmp    23d7 <e1000_clean_rx_irq+0x4b7>
    23d7:	66 0f 1f 84 00 00 00 	nopw   0x0(%rax,%rax,1)
    23de:	00 00 

00000000000023e0 <__pfx_e1000_maybe_stop_tx>:
    23e0:	90                   	nop
    23e1:	90                   	nop
    23e2:	90                   	nop
    23e3:	90                   	nop
    23e4:	90                   	nop
    23e5:	90                   	nop
    23e6:	90                   	nop
    23e7:	90                   	nop
    23e8:	90                   	nop
    23e9:	90                   	nop
    23ea:	90                   	nop
    23eb:	90                   	nop
    23ec:	90                   	nop
    23ed:	90                   	nop
    23ee:	90                   	nop
    23ef:	90                   	nop

00000000000023f0 <e1000_maybe_stop_tx>:
    23f0:	e8 00 00 00 00       	call   23f5 <e1000_maybe_stop_tx+0x5>
    23f5:	55                   	push   %rbp
    23f6:	49 89 f8             	mov    %rdi,%r8
    23f9:	8b 46 1c             	mov    0x1c(%rsi),%eax
    23fc:	48 89 e5             	mov    %rsp,%rbp
    23ff:	8b 4e 18             	mov    0x18(%rsi),%ecx
    2402:	31 ff                	xor    %edi,%edi
    2404:	39 c1                	cmp    %eax,%ecx
    2406:	72 03                	jb     240b <e1000_maybe_stop_tx+0x1b>
    2408:	8b 7e 14             	mov    0x14(%rsi),%edi
    240b:	83 e8 01             	sub    $0x1,%eax
    240e:	29 c8                	sub    %ecx,%eax
    2410:	01 f8                	add    %edi,%eax
    2412:	39 d0                	cmp    %edx,%eax
    2414:	72 13                	jb     2429 <e1000_maybe_stop_tx+0x39>
    2416:	31 c0                	xor    %eax,%eax
    2418:	5d                   	pop    %rbp
    2419:	31 d2                	xor    %edx,%edx
    241b:	31 c9                	xor    %ecx,%ecx
    241d:	31 f6                	xor    %esi,%esi
    241f:	31 ff                	xor    %edi,%edi
    2421:	45 31 c0             	xor    %r8d,%r8d
    2424:	e9 00 00 00 00       	jmp    2429 <e1000_maybe_stop_tx+0x39>
    2429:	49 8b 40 18          	mov    0x18(%r8),%rax
    242d:	48 8b 35 00 00 00 00 	mov    0x0(%rip),%rsi        # 2434 <e1000_maybe_stop_tx+0x44>
    2434:	49 8b 88 20 0c 00 00 	mov    0xc20(%r8),%rcx
    243b:	48 89 b0 c8 00 00 00 	mov    %rsi,0xc8(%rax)
    2442:	f0 80 88 d0 00 00 00 	lock orb $0x1,0xd0(%rax)
    2449:	01 
    244a:	f0 83 44 24 fc 00    	lock addl $0x0,-0x4(%rsp)
    2450:	8b 41 1c             	mov    0x1c(%rcx),%eax
    2453:	8b 71 18             	mov    0x18(%rcx),%esi
    2456:	31 ff                	xor    %edi,%edi
    2458:	39 c6                	cmp    %eax,%esi
    245a:	72 03                	jb     245f <e1000_maybe_stop_tx+0x6f>
    245c:	8b 79 14             	mov    0x14(%rcx),%edi
    245f:	83 e8 01             	sub    $0x1,%eax
    2462:	29 f0                	sub    %esi,%eax
    2464:	8d 0c 38             	lea    (%rax,%rdi,1),%ecx
    2467:	b8 f0 ff ff ff       	mov    $0xfffffff0,%eax
    246c:	39 d1                	cmp    %edx,%ecx
    246e:	72 a8                	jb     2418 <e1000_maybe_stop_tx+0x28>
    2470:	49 8b 40 18          	mov    0x18(%r8),%rax
    2474:	48 05 d0 00 00 00    	add    $0xd0,%rax
    247a:	f0 80 20 fe          	lock andb $0xfe,(%rax)
    247e:	31 c0                	xor    %eax,%eax
    2480:	41 83 80 28 0c 00 00 	addl   $0x1,0xc28(%r8)
    2487:	01 
    2488:	eb 8e                	jmp    2418 <e1000_maybe_stop_tx+0x28>
    248a:	66 0f 1f 44 00 00    	nopw   0x0(%rax,%rax,1)

0000000000002490 <__pfx_e1000_82547_tx_fifo_stall_task>:
    2490:	90                   	nop
    2491:	90                   	nop
    2492:	90                   	nop
    2493:	90                   	nop
    2494:	90                   	nop
    2495:	90                   	nop
    2496:	90                   	nop
    2497:	90                   	nop
    2498:	90                   	nop
    2499:	90                   	nop
    249a:	90                   	nop
    249b:	90                   	nop
    249c:	90                   	nop
    249d:	90                   	nop
    249e:	90                   	nop
    249f:	90                   	nop

00000000000024a0 <e1000_82547_tx_fifo_stall_task>:
    24a0:	e8 00 00 00 00       	call   24a5 <e1000_82547_tx_fifo_stall_task+0x5>
    24a5:	8b 87 8c f9 ff ff    	mov    -0x674(%rdi),%eax
    24ab:	48 8b 8f 78 fb ff ff 	mov    -0x488(%rdi),%rcx
    24b2:	85 c0                	test   %eax,%eax
    24b4:	74 65                	je     251b <e1000_82547_tx_fifo_stall_task+0x7b>
    24b6:	55                   	push   %rbp
    24b7:	83 bf a0 fb ff ff 03 	cmpl   $0x3,-0x460(%rdi)
    24be:	48 19 c0             	sbb    %rax,%rax
    24c1:	48 25 20 cc ff ff    	and    $0xffffffffffffcc20,%rax
    24c7:	48 89 e5             	mov    %rsp,%rbp
    24ca:	48 05 18 38 00 00    	add    $0x3818,%rax
    24d0:	48 03 87 88 fb ff ff 	add    -0x478(%rdi),%rax
    24d7:	8b 30                	mov    (%rax),%esi
    24d9:	83 bf a0 fb ff ff 03 	cmpl   $0x3,-0x460(%rdi)
    24e0:	48 19 c0             	sbb    %rax,%rax
    24e3:	48 25 20 cc ff ff    	and    $0xffffffffffffcc20,%rax
    24e9:	48 05 10 38 00 00    	add    $0x3810,%rax
    24ef:	48 03 87 88 fb ff ff 	add    -0x478(%rdi),%rax
    24f6:	8b 00                	mov    (%rax),%eax
    24f8:	39 c6                	cmp    %eax,%esi
    24fa:	74 2e                	je     252a <e1000_82547_tx_fifo_stall_task+0x8a>
    24fc:	48 8b 87 70 ff ff ff 	mov    -0x90(%rdi),%rax
    2503:	a8 04                	test   $0x4,%al
    2505:	0f 84 57 01 00 00    	je     2662 <e1000_82547_tx_fifo_stall_task+0x1c2>
    250b:	5d                   	pop    %rbp
    250c:	31 c0                	xor    %eax,%eax
    250e:	31 d2                	xor    %edx,%edx
    2510:	31 c9                	xor    %ecx,%ecx
    2512:	31 f6                	xor    %esi,%esi
    2514:	31 ff                	xor    %edi,%edi
    2516:	e9 00 00 00 00       	jmp    251b <e1000_82547_tx_fifo_stall_task+0x7b>
    251b:	31 c0                	xor    %eax,%eax
    251d:	31 d2                	xor    %edx,%edx
    251f:	31 c9                	xor    %ecx,%ecx
    2521:	31 f6                	xor    %esi,%esi
    2523:	31 ff                	xor    %edi,%edi
    2525:	e9 00 00 00 00       	jmp    252a <e1000_82547_tx_fifo_stall_task+0x8a>
    252a:	83 bf a0 fb ff ff 03 	cmpl   $0x3,-0x460(%rdi)
    2531:	48 19 c0             	sbb    %rax,%rax
    2534:	25 00 4c 00 00       	and    $0x4c00,%eax
    2539:	48 05 18 34 00 00    	add    $0x3418,%rax
    253f:	48 03 87 88 fb ff ff 	add    -0x478(%rdi),%rax
    2546:	8b 30                	mov    (%rax),%esi
    2548:	83 bf a0 fb ff ff 03 	cmpl   $0x3,-0x460(%rdi)
    254f:	48 19 c0             	sbb    %rax,%rax
    2552:	25 00 4c 00 00       	and    $0x4c00,%eax
    2557:	48 05 10 34 00 00    	add    $0x3410,%rax
    255d:	48 03 87 88 fb ff ff 	add    -0x478(%rdi),%rax
    2564:	8b 00                	mov    (%rax),%eax
    2566:	39 c6                	cmp    %eax,%esi
    2568:	75 92                	jne    24fc <e1000_82547_tx_fifo_stall_task+0x5c>
    256a:	48 8b 87 88 fb ff ff 	mov    -0x478(%rdi),%rax
    2571:	8b b0 28 34 00 00    	mov    0x3428(%rax),%esi
    2577:	48 8b 87 88 fb ff ff 	mov    -0x478(%rdi),%rax
    257e:	48 05 20 34 00 00    	add    $0x3420,%rax
    2584:	8b 00                	mov    (%rax),%eax
    2586:	39 f0                	cmp    %esi,%eax
    2588:	0f 85 6e ff ff ff    	jne    24fc <e1000_82547_tx_fifo_stall_task+0x5c>
    258e:	48 8b 87 88 fb ff ff 	mov    -0x478(%rdi),%rax
    2595:	8b b0 00 04 00 00    	mov    0x400(%rax),%esi
    259b:	89 f2                	mov    %esi,%edx
    259d:	48 8b 87 88 fb ff ff 	mov    -0x478(%rdi),%rax
    25a4:	83 e2 fd             	and    $0xfffffffd,%edx
    25a7:	89 90 00 04 00 00    	mov    %edx,0x400(%rax)
    25ad:	83 bf a0 fb ff ff 03 	cmpl   $0x3,-0x460(%rdi)
    25b4:	8b 97 80 f9 ff ff    	mov    -0x680(%rdi),%edx
    25ba:	48 19 c0             	sbb    %rax,%rax
    25bd:	25 00 4c 00 00       	and    $0x4c00,%eax
    25c2:	48 05 18 34 00 00    	add    $0x3418,%rax
    25c8:	48 03 87 88 fb ff ff 	add    -0x478(%rdi),%rax
    25cf:	89 10                	mov    %edx,(%rax)
    25d1:	83 bf a0 fb ff ff 03 	cmpl   $0x3,-0x460(%rdi)
    25d8:	8b 97 80 f9 ff ff    	mov    -0x680(%rdi),%edx
    25de:	48 19 c0             	sbb    %rax,%rax
    25e1:	25 00 4c 00 00       	and    $0x4c00,%eax
    25e6:	48 05 10 34 00 00    	add    $0x3410,%rax
    25ec:	48 03 87 88 fb ff ff 	add    -0x478(%rdi),%rax
    25f3:	89 10                	mov    %edx,(%rax)
    25f5:	48 8b 87 88 fb ff ff 	mov    -0x478(%rdi),%rax
    25fc:	8b 97 80 f9 ff ff    	mov    -0x680(%rdi),%edx
    2602:	89 90 28 34 00 00    	mov    %edx,0x3428(%rax)
    2608:	48 8b 87 88 fb ff ff 	mov    -0x478(%rdi),%rax
    260f:	8b 97 80 f9 ff ff    	mov    -0x680(%rdi),%edx
    2615:	89 90 20 34 00 00    	mov    %edx,0x3420(%rax)
    261b:	48 8b 87 88 fb ff ff 	mov    -0x478(%rdi),%rax
    2622:	89 b0 00 04 00 00    	mov    %esi,0x400(%rax)
    2628:	48 8b 87 88 fb ff ff 	mov    -0x478(%rdi),%rax
    262f:	48 83 c0 08          	add    $0x8,%rax
    2633:	8b 00                	mov    (%rax),%eax
    2635:	c7 87 7c f9 ff ff 00 	movl   $0x0,-0x684(%rdi)
    263c:	00 00 00 
    263f:	c7 87 8c f9 ff ff 00 	movl   $0x0,-0x674(%rdi)
    2646:	00 00 00 
    2649:	48 8b 79 18          	mov    0x18(%rcx),%rdi
    264d:	e8 00 00 00 00       	call   2652 <e1000_82547_tx_fifo_stall_task+0x1b2>
    2652:	5d                   	pop    %rbp
    2653:	31 c0                	xor    %eax,%eax
    2655:	31 d2                	xor    %edx,%edx
    2657:	31 c9                	xor    %ecx,%ecx
    2659:	31 f6                	xor    %esi,%esi
    265b:	31 ff                	xor    %edi,%edi
    265d:	e9 00 00 00 00       	jmp    2662 <e1000_82547_tx_fifo_stall_task+0x1c2>
    2662:	48 8b 35 00 00 00 00 	mov    0x0(%rip),%rsi        # 2669 <e1000_82547_tx_fifo_stall_task+0x1c9>
    2669:	48 89 fa             	mov    %rdi,%rdx
    266c:	b9 01 00 00 00       	mov    $0x1,%ecx
    2671:	bf 00 20 00 00       	mov    $0x2000,%edi
    2676:	e8 00 00 00 00       	call   267b <e1000_82547_tx_fifo_stall_task+0x1db>
    267b:	5d                   	pop    %rbp
    267c:	31 c0                	xor    %eax,%eax
    267e:	31 d2                	xor    %edx,%edx
    2680:	31 c9                	xor    %ecx,%ecx
    2682:	31 f6                	xor    %esi,%esi
    2684:	31 ff                	xor    %edi,%edi
    2686:	e9 00 00 00 00       	jmp    268b <e1000_82547_tx_fifo_stall_task+0x1eb>
    268b:	0f 1f 44 00 00       	nopl   0x0(%rax,%rax,1)

0000000000002690 <__pfx_e1000_tx_map>:
    2690:	90                   	nop
    2691:	90                   	nop
    2692:	90                   	nop
    2693:	90                   	nop
    2694:	90                   	nop
    2695:	90                   	nop
    2696:	90                   	nop
    2697:	90                   	nop
    2698:	90                   	nop
    2699:	90                   	nop
    269a:	90                   	nop
    269b:	90                   	nop
    269c:	90                   	nop
    269d:	90                   	nop
    269e:	90                   	nop
    269f:	90                   	nop

00000000000026a0 <e1000_tx_map>:
    26a0:	e8 00 00 00 00       	call   26a5 <e1000_tx_map+0x5>
    26a5:	55                   	push   %rbp
    26a6:	48 89 e5             	mov    %rsp,%rbp
    26a9:	41 57                	push   %r15
    26ab:	41 56                	push   %r14
    26ad:	41 55                	push   %r13
    26af:	49 89 fd             	mov    %rdi,%r13
    26b2:	41 54                	push   %r12
    26b4:	49 89 f4             	mov    %rsi,%r12
    26b7:	53                   	push   %rbx
    26b8:	48 83 ec 50          	sub    $0x50,%rsp
    26bc:	89 4d 88             	mov    %ecx,-0x78(%rbp)
    26bf:	8b 4a 70             	mov    0x70(%rdx),%ecx
    26c2:	48 8b 87 80 04 00 00 	mov    0x480(%rdi),%rax
    26c9:	8b 72 74             	mov    0x74(%rdx),%esi
    26cc:	48 89 55 c8          	mov    %rdx,-0x38(%rbp)
    26d0:	41 89 ce             	mov    %ecx,%r14d
    26d3:	44 89 45 b0          	mov    %r8d,-0x50(%rbp)
    26d7:	45 8b 7c 24 18       	mov    0x18(%r12),%r15d
    26dc:	44 89 4d 8c          	mov    %r9d,-0x74(%rbp)
    26e0:	48 89 45 90          	mov    %rax,-0x70(%rbp)
    26e4:	89 4d d0             	mov    %ecx,-0x30(%rbp)
    26e7:	41 29 f6             	sub    %esi,%r14d
    26ea:	0f 84 d9 04 00 00    	je     2bc9 <e1000_tx_map+0x529>
    26f0:	44 8b 45 10          	mov    0x10(%rbp),%r8d
    26f4:	c7 45 b4 00 00 00 00 	movl   $0x0,-0x4c(%rbp)
    26fb:	c7 45 a8 00 00 00 00 	movl   $0x0,-0x58(%rbp)
    2702:	45 85 c0             	test   %r8d,%r8d
    2705:	48 89 7d d0          	mov    %rdi,-0x30(%rbp)
    2709:	0f 95 c1             	setne  %cl
    270c:	45 85 c9             	test   %r9d,%r9d
    270f:	0f 94 c2             	sete   %dl
    2712:	48 05 c8 00 00 00    	add    $0xc8,%rax
    2718:	21 d1                	and    %edx,%ecx
    271a:	48 89 45 a0          	mov    %rax,-0x60(%rbp)
    271e:	88 4d 98             	mov    %cl,-0x68(%rbp)
    2721:	44 89 f8             	mov    %r15d,%eax
    2724:	48 8d 14 80          	lea    (%rax,%rax,4),%rdx
    2728:	49 8b 44 24 20       	mov    0x20(%r12),%rax
    272d:	48 8d 1c d0          	lea    (%rax,%rdx,8),%rbx
    2731:	8b 45 b0             	mov    -0x50(%rbp),%eax
    2734:	41 39 c6             	cmp    %eax,%r14d
    2737:	41 89 c5             	mov    %eax,%r13d
    273a:	45 0f 46 ee          	cmovbe %r14d,%r13d
    273e:	85 f6                	test   %esi,%esi
    2740:	75 35                	jne    2777 <e1000_tx_map+0xd7>
    2742:	41 0f b6 44 24 2c    	movzbl 0x2c(%r12),%eax
    2748:	3c 01                	cmp    $0x1,%al
    274a:	0f 87 00 00 00 00    	ja     2750 <e1000_tx_map+0xb0>
    2750:	a8 01                	test   $0x1,%al
    2752:	74 23                	je     2777 <e1000_tx_map+0xd7>
    2754:	48 8b 7d c8          	mov    -0x38(%rbp),%rdi
    2758:	8b 87 c0 00 00 00    	mov    0xc0(%rdi),%eax
    275e:	48 8b 97 c8 00 00 00 	mov    0xc8(%rdi),%rdx
    2765:	66 83 7c 02 04 00    	cmpw   $0x0,0x4(%rdx,%rax,1)
    276b:	75 0a                	jne    2777 <e1000_tx_map+0xd7>
    276d:	41 c6 44 24 2c 00    	movb   $0x0,0x2c(%r12)
    2773:	41 83 ed 04          	sub    $0x4,%r13d
    2777:	80 7d 98 00          	cmpb   $0x0,-0x68(%rbp)
    277b:	0f 85 77 03 00 00    	jne    2af8 <e1000_tx_map+0x458>
    2781:	48 8b 45 d0          	mov    -0x30(%rbp),%rax
    2785:	83 b8 d4 04 00 00 02 	cmpl   $0x2,0x4d4(%rax)
    278c:	0f 84 3e 03 00 00    	je     2ad0 <e1000_tx_map+0x430>
    2792:	44 89 e9             	mov    %r13d,%ecx
    2795:	48 8b 45 d0          	mov    -0x30(%rbp),%rax
    2799:	0f b6 80 90 02 00 00 	movzbl 0x290(%rax),%eax
    27a0:	3c 01                	cmp    $0x1,%al
    27a2:	0f 87 00 00 00 00    	ja     27a8 <e1000_tx_map+0x108>
    27a8:	8b 55 a8             	mov    -0x58(%rbp),%edx
    27ab:	a8 01                	test   $0x1,%al
    27ad:	0f 85 ef 02 00 00    	jne    2aa2 <e1000_tx_map+0x402>
    27b3:	48 8b 05 00 00 00 00 	mov    0x0(%rip),%rax        # 27ba <e1000_tx_map+0x11a>
    27ba:	66 44 89 6b 18       	mov    %r13w,0x18(%rbx)
    27bf:	c6 43 1c 00          	movb   $0x0,0x1c(%rbx)
    27c3:	48 89 43 10          	mov    %rax,0x10(%rbx)
    27c7:	48 8b 45 c8          	mov    -0x38(%rbp),%rax
    27cb:	48 89 4d b8          	mov    %rcx,-0x48(%rbp)
    27cf:	48 03 90 d0 00 00 00 	add    0xd0(%rax),%rdx
    27d6:	48 89 d7             	mov    %rdx,%rdi
    27d9:	48 89 55 c0          	mov    %rdx,-0x40(%rbp)
    27dd:	e8 00 00 00 00       	call   27e2 <e1000_tx_map+0x142>
    27e2:	48 8b 55 c0          	mov    -0x40(%rbp),%rdx
    27e6:	48 8b 4d b8          	mov    -0x48(%rbp),%rcx
    27ea:	84 c0                	test   %al,%al
    27ec:	0f 85 c2 01 00 00    	jne    29b4 <e1000_tx_map+0x314>
    27f2:	48 89 d0             	mov    %rdx,%rax
    27f5:	bf 00 00 00 80       	mov    $0x80000000,%edi
    27fa:	25 ff 0f 00 00       	and    $0xfff,%eax
    27ff:	48 01 fa             	add    %rdi,%rdx
    2802:	0f 82 3c 04 00 00    	jb     2c44 <e1000_tx_map+0x5a4>
    2808:	48 c7 c6 00 00 00 80 	mov    $0xffffffff80000000,%rsi
    280f:	48 2b 35 00 00 00 00 	sub    0x0(%rip),%rsi        # 2816 <e1000_tx_map+0x176>
    2816:	48 01 d6             	add    %rdx,%rsi
    2819:	48 8b 7d a0          	mov    -0x60(%rbp),%rdi
    281d:	45 31 c9             	xor    %r9d,%r9d
    2820:	41 b8 01 00 00 00    	mov    $0x1,%r8d
    2826:	48 c1 ee 0c          	shr    $0xc,%rsi
    282a:	48 89 c2             	mov    %rax,%rdx
    282d:	48 c1 e6 06          	shl    $0x6,%rsi
    2831:	48 03 35 00 00 00 00 	add    0x0(%rip),%rsi        # 2838 <e1000_tx_map+0x198>
    2838:	e8 00 00 00 00       	call   283d <e1000_tx_map+0x19d>
    283d:	48 89 43 08          	mov    %rax,0x8(%rbx)
    2841:	48 83 f8 ff          	cmp    $0xffffffffffffffff,%rax
    2845:	0f 84 42 03 00 00    	je     2b8d <e1000_tx_map+0x4ed>
    284b:	83 45 b4 01          	addl   $0x1,-0x4c(%rbp)
    284f:	66 44 89 7b 1a       	mov    %r15w,0x1a(%rbx)
    2854:	45 29 ee             	sub    %r13d,%r14d
    2857:	74 1f                	je     2878 <e1000_tx_map+0x1d8>
    2859:	41 83 c7 01          	add    $0x1,%r15d
    285d:	45 39 7c 24 14       	cmp    %r15d,0x14(%r12)
    2862:	0f 84 1d 03 00 00    	je     2b85 <e1000_tx_map+0x4e5>
    2868:	48 8b 45 c8          	mov    -0x38(%rbp),%rax
    286c:	44 01 6d a8          	add    %r13d,-0x58(%rbp)
    2870:	8b 70 74             	mov    0x74(%rax),%esi
    2873:	e9 a9 fe ff ff       	jmp    2721 <e1000_tx_map+0x81>
    2878:	4c 8b 6d d0          	mov    -0x30(%rbp),%r13
    287c:	48 8b 45 c8          	mov    -0x38(%rbp),%rax
    2880:	8b 75 8c             	mov    -0x74(%rbp),%esi
    2883:	48 8b 90 c8 00 00 00 	mov    0xc8(%rax),%rdx
    288a:	8b 98 c0 00 00 00    	mov    0xc0(%rax),%ebx
    2890:	85 f6                	test   %esi,%esi
    2892:	0f 84 3d 03 00 00    	je     2bd5 <e1000_tx_map+0x535>
    2898:	4c 8b 4d 90          	mov    -0x70(%rbp),%r9
    289c:	4c 89 6d b8          	mov    %r13,-0x48(%rbp)
    28a0:	45 31 c0             	xor    %r8d,%r8d
    28a3:	48 89 d0             	mov    %rdx,%rax
    28a6:	4d 89 e3             	mov    %r12,%r11
    28a9:	49 81 c1 c8 00 00 00 	add    $0xc8,%r9
    28b0:	4c 8d 24 18          	lea    (%rax,%rbx,1),%r12
    28b4:	45 89 c2             	mov    %r8d,%r10d
    28b7:	41 83 f8 11          	cmp    $0x11,%r8d
    28bb:	0f 87 8f 03 00 00    	ja     2c50 <e1000_tx_map+0x5b0>
    28c1:	49 c1 e2 04          	shl    $0x4,%r10
    28c5:	4f 8d 2c 14          	lea    (%r12,%r10,1),%r13
    28c9:	45 8b 75 38          	mov    0x38(%r13),%r14d
    28cd:	45 85 f6             	test   %r14d,%r14d
    28d0:	0f 84 dd 02 00 00    	je     2bb3 <e1000_tx_map+0x513>
    28d6:	45 31 e4             	xor    %r12d,%r12d
    28d9:	4d 89 ea             	mov    %r13,%r10
    28dc:	4c 89 4d a0          	mov    %r9,-0x60(%rbp)
    28e0:	44 89 45 98          	mov    %r8d,-0x68(%rbp)
    28e4:	45 89 e5             	mov    %r12d,%r13d
    28e7:	4c 89 4d a8          	mov    %r9,-0x58(%rbp)
    28eb:	e9 ac 00 00 00       	jmp    299c <e1000_tx_map+0x2fc>
    28f0:	44 89 f8             	mov    %r15d,%eax
    28f3:	48 8d 1c 80          	lea    (%rax,%rax,4),%rbx
    28f7:	48 c1 e3 03          	shl    $0x3,%rbx
    28fb:	8b 45 b0             	mov    -0x50(%rbp),%eax
    28fe:	8b 4d 10             	mov    0x10(%rbp),%ecx
    2901:	49 03 5b 20          	add    0x20(%r11),%rbx
    2905:	41 89 c4             	mov    %eax,%r12d
    2908:	41 39 c6             	cmp    %eax,%r14d
    290b:	45 0f 46 e6          	cmovbe %r14d,%r12d
    290f:	85 c9                	test   %ecx,%ecx
    2911:	0f 85 3c 02 00 00    	jne    2b53 <e1000_tx_map+0x4b3>
    2917:	48 8b 45 b8          	mov    -0x48(%rbp),%rax
    291b:	0f b6 80 90 02 00 00 	movzbl 0x290(%rax),%eax
    2922:	3c 01                	cmp    $0x1,%al
    2924:	0f 87 00 00 00 00    	ja     292a <e1000_tx_map+0x28a>
    292a:	a8 01                	test   $0x1,%al
    292c:	0f 85 01 02 00 00    	jne    2b33 <e1000_tx_map+0x493>
    2932:	66 44 89 63 18       	mov    %r12w,0x18(%rbx)
    2937:	48 8b 7d a8          	mov    -0x58(%rbp),%rdi
    293b:	45 31 c9             	xor    %r9d,%r9d
    293e:	44 89 e1             	mov    %r12d,%ecx
    2941:	48 8b 05 00 00 00 00 	mov    0x0(%rip),%rax        # 2948 <e1000_tx_map+0x2a8>
    2948:	c6 43 1c 01          	movb   $0x1,0x1c(%rbx)
    294c:	41 b8 01 00 00 00    	mov    $0x1,%r8d
    2952:	4c 89 5d d0          	mov    %r11,-0x30(%rbp)
    2956:	48 89 43 10          	mov    %rax,0x10(%rbx)
    295a:	41 8b 52 3c          	mov    0x3c(%r10),%edx
    295e:	44 89 e8             	mov    %r13d,%eax
    2961:	49 8b 72 30          	mov    0x30(%r10),%rsi
    2965:	4c 89 55 c0          	mov    %r10,-0x40(%rbp)
    2969:	48 01 c2             	add    %rax,%rdx
    296c:	e8 00 00 00 00       	call   2971 <e1000_tx_map+0x2d1>
    2971:	4c 8b 5d d0          	mov    -0x30(%rbp),%r11
    2975:	48 83 f8 ff          	cmp    $0xffffffffffffffff,%rax
    2979:	48 89 43 08          	mov    %rax,0x8(%rbx)
    297d:	0f 84 a4 01 00 00    	je     2b27 <e1000_tx_map+0x487>
    2983:	83 45 b4 01          	addl   $0x1,-0x4c(%rbp)
    2987:	45 01 e5             	add    %r12d,%r13d
    298a:	45 29 e6             	sub    %r12d,%r14d
    298d:	4c 8b 55 c0          	mov    -0x40(%rbp),%r10
    2991:	66 44 89 7b 1a       	mov    %r15w,0x1a(%rbx)
    2996:	0f 84 fa 01 00 00    	je     2b96 <e1000_tx_map+0x4f6>
    299c:	41 83 c7 01          	add    $0x1,%r15d
    29a0:	45 39 7b 14          	cmp    %r15d,0x14(%r11)
    29a4:	0f 85 46 ff ff ff    	jne    28f0 <e1000_tx_map+0x250>
    29aa:	31 db                	xor    %ebx,%ebx
    29ac:	45 31 ff             	xor    %r15d,%r15d
    29af:	e9 47 ff ff ff       	jmp    28fb <e1000_tx_map+0x25b>
    29b4:	0f b6 05 00 00 00 00 	movzbl 0x0(%rip),%eax        # 29bb <e1000_tx_map+0x31b>
    29bb:	4c 8b 6d d0          	mov    -0x30(%rbp),%r13
    29bf:	41 89 c6             	mov    %eax,%r14d
    29c2:	41 83 e6 01          	and    $0x1,%r14d
    29c6:	3c 01                	cmp    $0x1,%al
    29c8:	0f 87 00 00 00 00    	ja     29ce <e1000_tx_map+0x32e>
    29ce:	45 84 f6             	test   %r14b,%r14b
    29d1:	0f 84 8e 00 00 00    	je     2a65 <e1000_tx_map+0x3c5>
    29d7:	48 c7 43 08 ff ff ff 	movq   $0xffffffffffffffff,0x8(%rbx)
    29de:	ff 
    29df:	48 8b 7d a0          	mov    -0x60(%rbp),%rdi
    29e3:	48 c7 c6 00 00 00 00 	mov    $0x0,%rsi
    29ea:	e8 00 00 00 00       	call   29ef <e1000_tx_map+0x34f>
    29ef:	8b 45 b4             	mov    -0x4c(%rbp),%eax
    29f2:	48 c7 43 08 00 00 00 	movq   $0x0,0x8(%rbx)
    29f9:	00 
    29fa:	85 c0                	test   %eax,%eax
    29fc:	74 3e                	je     2a3c <e1000_tx_map+0x39c>
    29fe:	8b 45 b4             	mov    -0x4c(%rbp),%eax
    2a01:	8d 58 fe             	lea    -0x2(%rax),%ebx
    2a04:	83 f8 01             	cmp    $0x1,%eax
    2a07:	75 04                	jne    2a0d <e1000_tx_map+0x36d>
    2a09:	eb 31                	jmp    2a3c <e1000_tx_map+0x39c>
    2a0b:	89 c3                	mov    %eax,%ebx
    2a0d:	45 85 ff             	test   %r15d,%r15d
    2a10:	75 05                	jne    2a17 <e1000_tx_map+0x377>
    2a12:	45 8b 7c 24 14       	mov    0x14(%r12),%r15d
    2a17:	41 8d 47 ff          	lea    -0x1(%r15),%eax
    2a1b:	4c 89 ef             	mov    %r13,%rdi
    2a1e:	48 8d 14 80          	lea    (%rax,%rax,4),%rdx
    2a22:	49 89 c7             	mov    %rax,%r15
    2a25:	49 8b 44 24 20       	mov    0x20(%r12),%rax
    2a2a:	48 8d 34 d0          	lea    (%rax,%rdx,8),%rsi
    2a2e:	31 d2                	xor    %edx,%edx
    2a30:	e8 bb ea ff ff       	call   14f0 <e1000_unmap_and_free_tx_resource>
    2a35:	8d 43 ff             	lea    -0x1(%rbx),%eax
    2a38:	85 db                	test   %ebx,%ebx
    2a3a:	75 cf                	jne    2a0b <e1000_tx_map+0x36b>
    2a3c:	31 c0                	xor    %eax,%eax
    2a3e:	48 83 c4 50          	add    $0x50,%rsp
    2a42:	5b                   	pop    %rbx
    2a43:	41 5c                	pop    %r12
    2a45:	41 5d                	pop    %r13
    2a47:	41 5e                	pop    %r14
    2a49:	41 5f                	pop    %r15
    2a4b:	5d                   	pop    %rbp
    2a4c:	31 d2                	xor    %edx,%edx
    2a4e:	31 c9                	xor    %ecx,%ecx
    2a50:	31 f6                	xor    %esi,%esi
    2a52:	31 ff                	xor    %edi,%edi
    2a54:	45 31 c0             	xor    %r8d,%r8d
    2a57:	45 31 c9             	xor    %r9d,%r9d
    2a5a:	45 31 d2             	xor    %r10d,%r10d
    2a5d:	45 31 db             	xor    %r11d,%r11d
    2a60:	e9 00 00 00 00       	jmp    2a65 <e1000_tx_map+0x3c5>
    2a65:	48 8b 45 90          	mov    -0x70(%rbp),%rax
    2a69:	c6 05 00 00 00 00 01 	movb   $0x1,0x0(%rip)        # 2a70 <e1000_tx_map+0x3d0>
    2a70:	4c 8b b0 18 01 00 00 	mov    0x118(%rax),%r14
    2a77:	4d 85 f6             	test   %r14,%r14
    2a7a:	0f 84 97 00 00 00    	je     2b17 <e1000_tx_map+0x477>
    2a80:	48 8b 7d a0          	mov    -0x60(%rbp),%rdi
    2a84:	e8 00 00 00 00       	call   2a89 <e1000_tx_map+0x3e9>
    2a89:	4c 89 f2             	mov    %r14,%rdx
    2a8c:	48 c7 c7 00 00 00 00 	mov    $0x0,%rdi
    2a93:	48 89 c6             	mov    %rax,%rsi
    2a96:	e8 00 00 00 00       	call   2a9b <e1000_tx_map+0x3fb>
    2a9b:	0f 0b                	ud2    
    2a9d:	e9 35 ff ff ff       	jmp    29d7 <e1000_tx_map+0x337>
    2aa2:	48 8b 7d c8          	mov    -0x38(%rbp),%rdi
    2aa6:	48 8d 44 11 ff       	lea    -0x1(%rcx,%rdx,1),%rax
    2aab:	48 03 87 d0 00 00 00 	add    0xd0(%rdi),%rax
    2ab2:	a8 04                	test   $0x4,%al
    2ab4:	0f 85 f9 fc ff ff    	jne    27b3 <e1000_tx_map+0x113>
    2aba:	41 83 fd 04          	cmp    $0x4,%r13d
    2abe:	0f 86 ef fc ff ff    	jbe    27b3 <e1000_tx_map+0x113>
    2ac4:	41 8d 4d fc          	lea    -0x4(%r13),%ecx
    2ac8:	49 89 cd             	mov    %rcx,%r13
    2acb:	e9 e3 fc ff ff       	jmp    27b3 <e1000_tx_map+0x113>
    2ad0:	41 81 fd df 07 00 00 	cmp    $0x7df,%r13d
    2ad7:	0f 86 b5 fc ff ff    	jbe    2792 <e1000_tx_map+0xf2>
    2add:	8b 7d b4             	mov    -0x4c(%rbp),%edi
    2ae0:	85 ff                	test   %edi,%edi
    2ae2:	0f 85 aa fc ff ff    	jne    2792 <e1000_tx_map+0xf2>
    2ae8:	b9 df 07 00 00       	mov    $0x7df,%ecx
    2aed:	41 bd df 07 00 00    	mov    $0x7df,%r13d
    2af3:	e9 9d fc ff ff       	jmp    2795 <e1000_tx_map+0xf5>
    2af8:	45 39 ee             	cmp    %r13d,%r14d
    2afb:	0f 85 80 fc ff ff    	jne    2781 <e1000_tx_map+0xe1>
    2b01:	41 83 fd 08          	cmp    $0x8,%r13d
    2b05:	41 8d 45 fc          	lea    -0x4(%r13),%eax
    2b09:	0f 97 c2             	seta   %dl
    2b0c:	84 d2                	test   %dl,%dl
    2b0e:	44 0f 45 e8          	cmovne %eax,%r13d
    2b12:	e9 6a fc ff ff       	jmp    2781 <e1000_tx_map+0xe1>
    2b17:	48 8b 45 90          	mov    -0x70(%rbp),%rax
    2b1b:	4c 8b b0 c8 00 00 00 	mov    0xc8(%rax),%r14
    2b22:	e9 59 ff ff ff       	jmp    2a80 <e1000_tx_map+0x3e0>
    2b27:	4c 8b 6d b8          	mov    -0x48(%rbp),%r13
    2b2b:	4d 89 dc             	mov    %r11,%r12
    2b2e:	e9 ac fe ff ff       	jmp    29df <e1000_tx_map+0x33f>
    2b33:	43 8d 44 25 ff       	lea    -0x1(%r13,%r12,1),%eax
    2b38:	a8 04                	test   $0x4,%al
    2b3a:	0f 85 f2 fd ff ff    	jne    2932 <e1000_tx_map+0x292>
    2b40:	41 83 fc 04          	cmp    $0x4,%r12d
    2b44:	0f 86 e8 fd ff ff    	jbe    2932 <e1000_tx_map+0x292>
    2b4a:	41 83 ec 04          	sub    $0x4,%r12d
    2b4e:	e9 df fd ff ff       	jmp    2932 <e1000_tx_map+0x292>
    2b53:	8b 45 8c             	mov    -0x74(%rbp),%eax
    2b56:	8b 4d 98             	mov    -0x68(%rbp),%ecx
    2b59:	83 e8 01             	sub    $0x1,%eax
    2b5c:	39 c8                	cmp    %ecx,%eax
    2b5e:	0f 85 b3 fd ff ff    	jne    2917 <e1000_tx_map+0x277>
    2b64:	44 39 75 b0          	cmp    %r14d,-0x50(%rbp)
    2b68:	0f 82 a9 fd ff ff    	jb     2917 <e1000_tx_map+0x277>
    2b6e:	41 83 fc 08          	cmp    $0x8,%r12d
    2b72:	41 8d 44 24 fc       	lea    -0x4(%r12),%eax
    2b77:	0f 97 c2             	seta   %dl
    2b7a:	84 d2                	test   %dl,%dl
    2b7c:	44 0f 45 e0          	cmovne %eax,%r12d
    2b80:	e9 92 fd ff ff       	jmp    2917 <e1000_tx_map+0x277>
    2b85:	45 31 ff             	xor    %r15d,%r15d
    2b88:	e9 db fc ff ff       	jmp    2868 <e1000_tx_map+0x1c8>
    2b8d:	4c 8b 6d d0          	mov    -0x30(%rbp),%r13
    2b91:	e9 49 fe ff ff       	jmp    29df <e1000_tx_map+0x33f>
    2b96:	48 8b 4d c8          	mov    -0x38(%rbp),%rcx
    2b9a:	44 8b 45 98          	mov    -0x68(%rbp),%r8d
    2b9e:	4c 8b 4d a8          	mov    -0x58(%rbp),%r9
    2ba2:	48 8b 81 c8 00 00 00 	mov    0xc8(%rcx),%rax
    2ba9:	8b 99 c0 00 00 00    	mov    0xc0(%rcx),%ebx
    2baf:	4c 8d 24 18          	lea    (%rax,%rbx,1),%r12
    2bb3:	41 83 c0 01          	add    $0x1,%r8d
    2bb7:	44 39 45 8c          	cmp    %r8d,-0x74(%rbp)
    2bbb:	0f 85 ef fc ff ff    	jne    28b0 <e1000_tx_map+0x210>
    2bc1:	4d 89 e6             	mov    %r12,%r14
    2bc4:	4d 89 dc             	mov    %r11,%r12
    2bc7:	eb 10                	jmp    2bd9 <e1000_tx_map+0x539>
    2bc9:	c7 45 b4 00 00 00 00 	movl   $0x0,-0x4c(%rbp)
    2bd0:	e9 a7 fc ff ff       	jmp    287c <e1000_tx_map+0x1dc>
    2bd5:	4c 8d 34 1a          	lea    (%rdx,%rbx,1),%r14
    2bd9:	41 0f b7 76 06       	movzwl 0x6(%r14),%esi
    2bde:	48 8b 45 c8          	mov    -0x38(%rbp),%rax
    2be2:	ba 01 00 00 00       	mov    $0x1,%edx
    2be7:	66 85 f6             	test   %si,%si
    2bea:	8b 78 70             	mov    0x70(%rax),%edi
    2bed:	0f 44 f2             	cmove  %edx,%esi
    2bf0:	89 f9                	mov    %edi,%ecx
    2bf2:	2b 48 74             	sub    0x74(%rax),%ecx
    2bf5:	0f b7 d6             	movzwl %si,%edx
    2bf8:	83 ea 01             	sub    $0x1,%edx
    2bfb:	0f af ca             	imul   %edx,%ecx
    2bfe:	44 89 fa             	mov    %r15d,%edx
    2c01:	48 8d 14 92          	lea    (%rdx,%rdx,4),%rdx
    2c05:	48 c1 e2 03          	shl    $0x3,%rdx
    2c09:	01 f9                	add    %edi,%ecx
    2c0b:	49 8b 7c 24 20       	mov    0x20(%r12),%rdi
    2c10:	48 89 04 17          	mov    %rax,(%rdi,%rdx,1)
    2c14:	49 8b 44 24 20       	mov    0x20(%r12),%rax
    2c19:	66 89 74 10 1e       	mov    %si,0x1e(%rax,%rdx,1)
    2c1e:	49 8b 44 24 20       	mov    0x20(%r12),%rax
    2c23:	89 4c 10 20          	mov    %ecx,0x20(%rax,%rdx,1)
    2c27:	8b 45 88             	mov    -0x78(%rbp),%eax
    2c2a:	49 8b 54 24 20       	mov    0x20(%r12),%rdx
    2c2f:	48 8d 04 80          	lea    (%rax,%rax,4),%rax
    2c33:	48 8d 04 c2          	lea    (%rdx,%rax,8),%rax
    2c37:	66 44 89 78 1a       	mov    %r15w,0x1a(%rax)
    2c3c:	8b 45 b4             	mov    -0x4c(%rbp),%eax
    2c3f:	e9 fa fd ff ff       	jmp    2a3e <e1000_tx_map+0x39e>
    2c44:	48 8b 35 00 00 00 00 	mov    0x0(%rip),%rsi        # 2c4b <e1000_tx_map+0x5ab>
    2c4b:	e9 c6 fb ff ff       	jmp    2816 <e1000_tx_map+0x176>
    2c50:	4c 89 d6             	mov    %r10,%rsi
    2c53:	48 c7 c7 00 00 00 00 	mov    $0x0,%rdi
    2c5a:	4c 89 4d 98          	mov    %r9,-0x68(%rbp)
    2c5e:	4c 89 5d a0          	mov    %r11,-0x60(%rbp)
    2c62:	48 89 45 a8          	mov    %rax,-0x58(%rbp)
    2c66:	44 89 45 c0          	mov    %r8d,-0x40(%rbp)
    2c6a:	4c 89 55 d0          	mov    %r10,-0x30(%rbp)
    2c6e:	e8 00 00 00 00       	call   2c73 <e1000_tx_map+0x5d3>
    2c73:	4c 8b 4d 98          	mov    -0x68(%rbp),%r9
    2c77:	4c 8b 5d a0          	mov    -0x60(%rbp),%r11
    2c7b:	48 8b 45 a8          	mov    -0x58(%rbp),%rax
    2c7f:	44 8b 45 c0          	mov    -0x40(%rbp),%r8d
    2c83:	4c 8b 55 d0          	mov    -0x30(%rbp),%r10
    2c87:	e9 35 fc ff ff       	jmp    28c1 <e1000_tx_map+0x221>
    2c8c:	0f 1f 40 00          	nopl   0x0(%rax)

0000000000002c90 <__pfx_e1000_xmit_frame>:
    2c90:	90                   	nop
    2c91:	90                   	nop
    2c92:	90                   	nop
    2c93:	90                   	nop
    2c94:	90                   	nop
    2c95:	90                   	nop
    2c96:	90                   	nop
    2c97:	90                   	nop
    2c98:	90                   	nop
    2c99:	90                   	nop
    2c9a:	90                   	nop
    2c9b:	90                   	nop
    2c9c:	90                   	nop
    2c9d:	90                   	nop
    2c9e:	90                   	nop
    2c9f:	90                   	nop

0000000000002ca0 <e1000_xmit_frame>:
    2ca0:	e8 00 00 00 00       	call   2ca5 <e1000_xmit_frame+0x5>
    2ca5:	55                   	push   %rbp
    2ca6:	48 89 e5             	mov    %rsp,%rbp
    2ca9:	41 57                	push   %r15
    2cab:	49 89 f7             	mov    %rsi,%r15
    2cae:	41 56                	push   %r14
    2cb0:	41 55                	push   %r13
    2cb2:	41 54                	push   %r12
    2cb4:	53                   	push   %rbx
    2cb5:	48 89 fb             	mov    %rdi,%rbx
    2cb8:	48 83 ec 40          	sub    $0x40,%rsp
    2cbc:	8b 4f 70             	mov    0x70(%rdi),%ecx
    2cbf:	44 0f b7 b7 b4 00 00 	movzwl 0xb4(%rdi),%r14d
    2cc6:	00 
    2cc7:	65 48 8b 04 25 28 00 	mov    %gs:0x28,%rax
    2cce:	00 00 
    2cd0:	48 89 45 d0          	mov    %rax,-0x30(%rbp)
    2cd4:	31 c0                	xor    %eax,%eax
    2cd6:	44 8b 4f 74          	mov    0x74(%rdi),%r9d
    2cda:	41 89 cc             	mov    %ecx,%r12d
    2cdd:	66 41 81 fe 81 00    	cmp    $0x81,%r14w
    2ce3:	0f 84 b7 00 00 00    	je     2da0 <e1000_xmit_frame+0x100>
    2ce9:	89 ce                	mov    %ecx,%esi
    2ceb:	66 41 81 fe 88 a8    	cmp    $0xa888,%r14w
    2cf1:	0f 84 a9 00 00 00    	je     2da0 <e1000_xmit_frame+0x100>
    2cf7:	4d 8b af 20 0c 00 00 	mov    0xc20(%r15),%r13
    2cfe:	83 fe 3b             	cmp    $0x3b,%esi
    2d01:	0f 86 88 04 00 00    	jbe    318f <e1000_xmit_frame+0x4ef>
    2d07:	8b 53 74             	mov    0x74(%rbx),%edx
    2d0a:	48 8b b3 c8 00 00 00 	mov    0xc8(%rbx),%rsi
    2d11:	8b 83 c0 00 00 00    	mov    0xc0(%rbx),%eax
    2d17:	45 29 cc             	sub    %r9d,%r12d
    2d1a:	0f b7 44 06 04       	movzwl 0x4(%rsi,%rax,1),%eax
    2d1f:	89 45 bc             	mov    %eax,-0x44(%rbp)
    2d22:	85 c0                	test   %eax,%eax
    2d24:	0f 84 e8 00 00 00    	je     2e12 <e1000_xmit_frame+0x172>
    2d2a:	8d 3c 85 00 00 00 00 	lea    0x0(,%rax,4),%edi
    2d31:	b8 00 10 00 00       	mov    $0x1000,%eax
    2d36:	b9 ff ff ff ff       	mov    $0xffffffff,%ecx
    2d3b:	4c 8b 83 d0 00 00 00 	mov    0xd0(%rbx),%r8
    2d42:	39 c7                	cmp    %eax,%edi
    2d44:	0f 46 c7             	cmovbe %edi,%eax
    2d47:	0f bd c8             	bsr    %eax,%ecx
    2d4a:	89 45 b8             	mov    %eax,-0x48(%rbp)
    2d4d:	0f b7 83 b6 00 00 00 	movzwl 0xb6(%rbx),%eax
    2d54:	48 01 f0             	add    %rsi,%rax
    2d57:	0f b6 78 0c          	movzbl 0xc(%rax),%edi
    2d5b:	40 c0 ef 04          	shr    $0x4,%dil
    2d5f:	85 d2                	test   %edx,%edx
    2d61:	0f 85 b2 04 00 00    	jne    3219 <e1000_xmit_frame+0x579>
    2d67:	41 b9 02 00 00 00    	mov    $0x2,%r9d
    2d6d:	41 b8 01 00 00 00    	mov    $0x1,%r8d
    2d73:	41 0f b6 45 2c       	movzbl 0x2c(%r13),%eax
    2d78:	3c 01                	cmp    $0x1,%al
    2d7a:	0f 87 00 00 00 00    	ja     2d80 <e1000_xmit_frame+0xe0>
    2d80:	a8 01                	test   $0x1,%al
    2d82:	0f 85 6c 05 00 00    	jne    32f4 <e1000_xmit_frame+0x654>
    2d88:	45 89 c8             	mov    %r9d,%r8d
    2d8b:	83 f9 1f             	cmp    $0x1f,%ecx
    2d8e:	0f 87 00 00 00 00    	ja     2d94 <e1000_xmit_frame+0xf4>
    2d94:	b8 01 00 00 00       	mov    $0x1,%eax
    2d99:	d3 e0                	shl    %cl,%eax
    2d9b:	e9 a5 00 00 00       	jmp    2e45 <e1000_xmit_frame+0x1a5>
    2da0:	0f b7 43 78          	movzwl 0x78(%rbx),%eax
    2da4:	85 c0                	test   %eax,%eax
    2da6:	0f 85 b5 03 00 00    	jne    3161 <e1000_xmit_frame+0x4c1>
    2dac:	41 bd 0e 00 00 00    	mov    $0xe,%r13d
    2db2:	45 8d 45 1c          	lea    0x1c(%r13),%r8d
    2db6:	44 89 cf             	mov    %r9d,%edi
    2db9:	89 ce                	mov    %ecx,%esi
    2dbb:	89 ca                	mov    %ecx,%edx
    2dbd:	c7 45 cc 00 00 00 00 	movl   $0x0,-0x34(%rbp)
    2dc4:	48 8b 83 d0 00 00 00 	mov    0xd0(%rbx),%rax
    2dcb:	29 fa                	sub    %edi,%edx
    2dcd:	44 29 ea             	sub    %r13d,%edx
    2dd0:	83 fa 03             	cmp    $0x3,%edx
    2dd3:	0f 8e 03 04 00 00    	jle    31dc <e1000_xmit_frame+0x53c>
    2dd9:	44 89 ea             	mov    %r13d,%edx
    2ddc:	48 01 d0             	add    %rdx,%rax
    2ddf:	0f 84 97 03 00 00    	je     317c <e1000_xmit_frame+0x4dc>
    2de5:	45 39 c5             	cmp    %r8d,%r13d
    2de8:	0f 84 8c 03 00 00    	je     317a <e1000_xmit_frame+0x4da>
    2dee:	44 0f b7 70 02       	movzwl 0x2(%rax),%r14d
    2df3:	89 ce                	mov    %ecx,%esi
    2df5:	66 41 81 fe 81 00    	cmp    $0x81,%r14w
    2dfb:	74 0c                	je     2e09 <e1000_xmit_frame+0x169>
    2dfd:	66 41 81 fe 88 a8    	cmp    $0xa888,%r14w
    2e03:	0f 85 ee fe ff ff    	jne    2cf7 <e1000_xmit_frame+0x57>
    2e09:	8b 7b 74             	mov    0x74(%rbx),%edi
    2e0c:	41 83 c5 04          	add    $0x4,%r13d
    2e10:	eb a9                	jmp    2dbb <e1000_xmit_frame+0x11b>
    2e12:	0f b6 83 80 00 00 00 	movzbl 0x80(%rbx),%eax
    2e19:	45 31 c0             	xor    %r8d,%r8d
    2e1c:	83 e0 60             	and    $0x60,%eax
    2e1f:	3c 60                	cmp    $0x60,%al
    2e21:	41 0f 94 c0          	sete   %r8b
    2e25:	45 8d 48 01          	lea    0x1(%r8),%r9d
    2e29:	85 d2                	test   %edx,%edx
    2e2b:	0f 84 64 04 00 00    	je     3295 <e1000_xmit_frame+0x5f5>
    2e31:	c7 45 b8 00 10 00 00 	movl   $0x1000,-0x48(%rbp)
    2e38:	45 89 c8             	mov    %r9d,%r8d
    2e3b:	b8 00 10 00 00       	mov    $0x1000,%eax
    2e40:	b9 0c 00 00 00       	mov    $0xc,%ecx
    2e45:	45 8d 5c 04 ff       	lea    -0x1(%r12,%rax,1),%r11d
    2e4a:	41 0f b6 97 70 0c 00 	movzbl 0xc70(%r15),%edx
    2e51:	00 
    2e52:	41 d3 eb             	shr    %cl,%r11d
    2e55:	45 01 c3             	add    %r8d,%r11d
    2e58:	80 fa 01             	cmp    $0x1,%dl
    2e5b:	0f 87 00 00 00 00    	ja     2e61 <e1000_xmit_frame+0x1c1>
    2e61:	83 e2 01             	and    $0x1,%edx
    2e64:	80 fa 01             	cmp    $0x1,%dl
    2e67:	41 83 db ff          	sbb    $0xffffffff,%r11d
    2e6b:	41 83 bf b4 0e 00 00 	cmpl   $0x2,0xeb4(%r15)
    2e72:	02 
    2e73:	75 11                	jne    2e86 <e1000_xmit_frame+0x1e6>
    2e75:	41 81 fc df 07 00 00 	cmp    $0x7df,%r12d
    2e7c:	0f 97 c2             	seta   %dl
    2e7f:	80 fa 01             	cmp    $0x1,%dl
    2e82:	41 83 db ff          	sbb    $0xffffffff,%r11d
    2e86:	8b 93 c0 00 00 00    	mov    0xc0(%rbx),%edx
    2e8c:	48 8b b3 c8 00 00 00 	mov    0xc8(%rbx),%rsi
    2e93:	44 0f b6 4c 16 02    	movzbl 0x2(%rsi,%rdx,1),%r9d
    2e99:	45 85 c9             	test   %r9d,%r9d
    2e9c:	74 45                	je     2ee3 <e1000_xmit_frame+0x243>
    2e9e:	45 31 e4             	xor    %r12d,%r12d
    2ea1:	44 8d 40 ff          	lea    -0x1(%rax),%r8d
    2ea5:	83 f9 1f             	cmp    $0x1f,%ecx
    2ea8:	0f 87 00 00 00 00    	ja     2eae <e1000_xmit_frame+0x20e>
    2eae:	8b 93 c0 00 00 00    	mov    0xc0(%rbx),%edx
    2eb4:	44 89 e0             	mov    %r12d,%eax
    2eb7:	48 03 93 c8 00 00 00 	add    0xc8(%rbx),%rdx
    2ebe:	41 83 fc 11          	cmp    $0x11,%r12d
    2ec2:	0f 87 97 06 00 00    	ja     355f <e1000_xmit_frame+0x8bf>
    2ec8:	48 c1 e0 04          	shl    $0x4,%rax
    2ecc:	8b 7c 02 38          	mov    0x38(%rdx,%rax,1),%edi
    2ed0:	44 01 c7             	add    %r8d,%edi
    2ed3:	89 f8                	mov    %edi,%eax
    2ed5:	d3 e8                	shr    %cl,%eax
    2ed7:	41 83 c4 01          	add    $0x1,%r12d
    2edb:	41 01 c3             	add    %eax,%r11d
    2ede:	45 39 e1             	cmp    %r12d,%r9d
    2ee1:	75 c2                	jne    2ea5 <e1000_xmit_frame+0x205>
    2ee3:	45 0f b6 a7 70 0c 00 	movzbl 0xc70(%r15),%r12d
    2eea:	00 
    2eeb:	41 80 fc 01          	cmp    $0x1,%r12b
    2eef:	0f 87 00 00 00 00    	ja     2ef5 <e1000_xmit_frame+0x255>
    2ef5:	41 83 e4 01          	and    $0x1,%r12d
    2ef9:	43 8d 04 0b          	lea    (%r11,%r9,1),%eax
    2efd:	4c 89 ee             	mov    %r13,%rsi
    2f00:	4c 89 ff             	mov    %r15,%rdi
    2f03:	44 0f 45 d8          	cmovne %eax,%r11d
    2f07:	44 89 4d c0          	mov    %r9d,-0x40(%rbp)
    2f0b:	41 8d 53 02          	lea    0x2(%r11),%edx
    2f0f:	e8 dc f4 ff ff       	call   23f0 <e1000_maybe_stop_tx>
    2f14:	85 c0                	test   %eax,%eax
    2f16:	0f 85 a3 04 00 00    	jne    33bf <e1000_xmit_frame+0x71f>
    2f1c:	41 83 bf 80 0e 00 00 	cmpl   $0xd,0xe80(%r15)
    2f23:	0d 
    2f24:	44 8b 4d c0          	mov    -0x40(%rbp),%r9d
    2f28:	0f 84 24 04 00 00    	je     3352 <e1000_xmit_frame+0x6b2>
    2f2e:	44 8b a3 9c 00 00 00 	mov    0x9c(%rbx),%r12d
    2f35:	45 85 e4             	test   %r12d,%r12d
    2f38:	74 13                	je     2f4d <e1000_xmit_frame+0x2ad>
    2f3a:	44 0f b7 9b 9e 00 00 	movzwl 0x9e(%rbx),%r11d
    2f41:	00 
    2f42:	41 c1 e3 10          	shl    $0x10,%r11d
    2f46:	41 83 cb 02          	or     $0x2,%r11d
    2f4a:	45 89 dc             	mov    %r11d,%r12d
    2f4d:	41 8b 45 18          	mov    0x18(%r13),%eax
    2f51:	41 0f b7 d6          	movzwl %r14w,%edx
    2f55:	48 89 de             	mov    %rbx,%rsi
    2f58:	4c 89 ef             	mov    %r13,%rdi
    2f5b:	44 89 4d b0          	mov    %r9d,-0x50(%rbp)
    2f5f:	89 45 c0             	mov    %eax,-0x40(%rbp)
    2f62:	e8 e9 ea ff ff       	call   1a50 <e1000_tso.constprop.0>
    2f67:	85 c0                	test   %eax,%eax
    2f69:	0f 88 c2 03 00 00    	js     3331 <e1000_xmit_frame+0x691>
    2f6f:	44 8b 4d b0          	mov    -0x50(%rbp),%r9d
    2f73:	0f 84 67 04 00 00    	je     33e0 <e1000_xmit_frame+0x740>
    2f79:	41 83 bf 80 0e 00 00 	cmpl   $0x4,0xe80(%r15)
    2f80:	04 
    2f81:	74 05                	je     2f88 <e1000_xmit_frame+0x2e8>
    2f83:	41 c6 45 2c 01       	movb   $0x1,0x2c(%r13)
    2f88:	41 83 cc 04          	or     $0x4,%r12d
    2f8c:	44 89 e0             	mov    %r12d,%eax
    2f8f:	49 8d bf e0 09 00 00 	lea    0x9e0(%r15),%rdi
    2f96:	48 89 da             	mov    %rbx,%rdx
    2f99:	4c 89 ee             	mov    %r13,%rsi
    2f9c:	83 c8 08             	or     $0x8,%eax
    2f9f:	66 41 83 fe 08       	cmp    $0x8,%r14w
    2fa4:	44 0f 44 e0          	cmove  %eax,%r12d
    2fa8:	44 89 e0             	mov    %r12d,%eax
    2fab:	83 c8 10             	or     $0x10,%eax
    2fae:	f6 83 82 00 00 00 10 	testb  $0x10,0x82(%rbx)
    2fb5:	44 0f 45 e0          	cmovne %eax,%r12d
    2fb9:	8b 45 bc             	mov    -0x44(%rbp),%eax
    2fbc:	50                   	push   %rax
    2fbd:	8b 4d c0             	mov    -0x40(%rbp),%ecx
    2fc0:	44 8b 45 b8          	mov    -0x48(%rbp),%r8d
    2fc4:	e8 d7 f6 ff ff       	call   26a0 <e1000_tx_map>
    2fc9:	59                   	pop    %rcx
    2fca:	41 89 c6             	mov    %eax,%r14d
    2fcd:	85 c0                	test   %eax,%eax
    2fcf:	0f 84 e8 02 00 00    	je     32bd <e1000_xmit_frame+0x61d>
    2fd5:	8b 53 70             	mov    0x70(%rbx),%edx
    2fd8:	49 8b 47 18          	mov    0x18(%r15),%rax
    2fdc:	81 fa ff ff ff 0f    	cmp    $0xfffffff,%edx
    2fe2:	0f 87 16 05 00 00    	ja     34fe <e1000_xmit_frame+0x85e>
    2fe8:	89 90 08 01 00 00    	mov    %edx,0x108(%rax)
    2fee:	01 90 00 01 00 00    	add    %edx,0x100(%rax)
    2ff4:	8b 88 04 01 00 00    	mov    0x104(%rax),%ecx
    2ffa:	8b 90 00 01 00 00    	mov    0x100(%rax),%edx
    3000:	39 d1                	cmp    %edx,%ecx
    3002:	0f 88 b9 04 00 00    	js     34c1 <e1000_xmit_frame+0x821>
    3008:	48 89 df             	mov    %rbx,%rdi
    300b:	e8 00 00 00 00       	call   3010 <e1000_xmit_frame+0x370>
    3010:	8b 83 c0 00 00 00    	mov    0xc0(%rbx),%eax
    3016:	48 8b 93 c8 00 00 00 	mov    0xc8(%rbx),%rdx
    301d:	f6 44 02 03 02       	testb  $0x2,0x3(%rdx,%rax,1)
    3022:	0f 85 1b 03 00 00    	jne    3343 <e1000_xmit_frame+0x6a3>
    3028:	44 89 e7             	mov    %r12d,%edi
    302b:	83 e7 04             	and    $0x4,%edi
    302e:	0f 84 82 04 00 00    	je     34b6 <e1000_xmit_frame+0x816>
    3034:	44 89 e0             	mov    %r12d,%eax
    3037:	41 b8 00 00 10 26    	mov    $0x26100000,%r8d
    303d:	83 e0 08             	and    $0x8,%eax
    3040:	83 f8 01             	cmp    $0x1,%eax
    3043:	19 ff                	sbb    %edi,%edi
    3045:	40 30 ff             	xor    %dil,%dil
    3048:	81 c7 00 03 00 00    	add    $0x300,%edi
    304e:	41 f6 c4 01          	test   $0x1,%r12b
    3052:	74 0d                	je     3061 <e1000_xmit_frame+0x3c1>
    3054:	41 81 c8 00 00 10 20 	or     $0x20100000,%r8d
    305b:	81 cf 00 02 00 00    	or     $0x200,%edi
    3061:	41 f6 c4 02          	test   $0x2,%r12b
    3065:	0f 85 37 04 00 00    	jne    34a2 <e1000_xmit_frame+0x802>
    306b:	44 89 c0             	mov    %r8d,%eax
    306e:	45 89 e3             	mov    %r12d,%r11d
    3071:	41 8b 4d 18          	mov    0x18(%r13),%ecx
    3075:	41 8d 76 ff          	lea    -0x1(%r14),%esi
    3079:	25 ff ff ff fd       	and    $0xfdffffff,%eax
    307e:	41 83 e3 10          	and    $0x10,%r11d
    3082:	44 0f 45 c0          	cmovne %eax,%r8d
    3086:	49 8b 55 20          	mov    0x20(%r13),%rdx
    308a:	89 c8                	mov    %ecx,%eax
    308c:	83 c1 01             	add    $0x1,%ecx
    308f:	4c 8d 0c 80          	lea    (%rax,%rax,4),%r9
    3093:	48 c1 e0 04          	shl    $0x4,%rax
    3097:	49 03 45 00          	add    0x0(%r13),%rax
    309b:	4a 8d 14 ca          	lea    (%rdx,%r9,8),%rdx
    309f:	4c 8b 4a 08          	mov    0x8(%rdx),%r9
    30a3:	4c 89 08             	mov    %r9,(%rax)
    30a6:	0f b7 52 18          	movzwl 0x18(%rdx),%edx
    30aa:	89 78 0c             	mov    %edi,0xc(%rax)
    30ad:	44 09 c2             	or     %r8d,%edx
    30b0:	89 50 08             	mov    %edx,0x8(%rax)
    30b3:	41 39 4d 14          	cmp    %ecx,0x14(%r13)
    30b7:	0f 84 30 02 00 00    	je     32ed <e1000_xmit_frame+0x64d>
    30bd:	83 ee 01             	sub    $0x1,%esi
    30c0:	73 c4                	jae    3086 <e1000_xmit_frame+0x3e6>
    30c2:	41 0b 97 2c 0c 00 00 	or     0xc2c(%r15),%edx
    30c9:	89 d6                	mov    %edx,%esi
    30cb:	81 e6 ff ff ff fd    	and    $0xfdffffff,%esi
    30d1:	45 85 db             	test   %r11d,%r11d
    30d4:	0f 45 d6             	cmovne %esi,%edx
    30d7:	89 50 08             	mov    %edx,0x8(%rax)
    30da:	41 89 4d 18          	mov    %ecx,0x18(%r13)
    30de:	41 0f b6 9f 70 0c 00 	movzbl 0xc70(%r15),%ebx
    30e5:	00 
    30e6:	80 fb 01             	cmp    $0x1,%bl
    30e9:	0f 87 00 00 00 00    	ja     30ef <e1000_xmit_frame+0x44f>
    30ef:	83 e3 01             	and    $0x1,%ebx
    30f2:	4c 89 ee             	mov    %r13,%rsi
    30f5:	4c 89 ff             	mov    %r15,%rdi
    30f8:	80 fb 01             	cmp    $0x1,%bl
    30fb:	19 d2                	sbb    %edx,%edx
    30fd:	83 e2 ee             	and    $0xffffffee,%edx
    3100:	83 c2 2a             	add    $0x2a,%edx
    3103:	e8 e8 f2 ff ff       	call   23f0 <e1000_maybe_stop_tx>
    3108:	65 8a 05 00 00 00 00 	mov    %gs:0x0(%rip),%al        # 310f <e1000_xmit_frame+0x46f>
    310f:	84 c0                	test   %al,%al
    3111:	0f 84 8f 01 00 00    	je     32a6 <e1000_xmit_frame+0x606>
    3117:	49 8b 47 18          	mov    0x18(%r15),%rax
    311b:	f6 80 d0 00 00 00 03 	testb  $0x3,0xd0(%rax)
    3122:	0f 85 7e 01 00 00    	jne    32a6 <e1000_xmit_frame+0x606>
    3128:	31 c0                	xor    %eax,%eax
    312a:	48 8b 55 d0          	mov    -0x30(%rbp),%rdx
    312e:	65 48 2b 14 25 28 00 	sub    %gs:0x28,%rdx
    3135:	00 00 
    3137:	0f 85 8d 04 00 00    	jne    35ca <e1000_xmit_frame+0x92a>
    313d:	48 8d 65 d8          	lea    -0x28(%rbp),%rsp
    3141:	5b                   	pop    %rbx
    3142:	41 5c                	pop    %r12
    3144:	41 5d                	pop    %r13
    3146:	41 5e                	pop    %r14
    3148:	41 5f                	pop    %r15
    314a:	5d                   	pop    %rbp
    314b:	31 d2                	xor    %edx,%edx
    314d:	31 c9                	xor    %ecx,%ecx
    314f:	31 f6                	xor    %esi,%esi
    3151:	31 ff                	xor    %edi,%edi
    3153:	45 31 c0             	xor    %r8d,%r8d
    3156:	45 31 c9             	xor    %r9d,%r9d
    3159:	45 31 db             	xor    %r11d,%r11d
    315c:	e9 00 00 00 00       	jmp    3161 <e1000_xmit_frame+0x4c1>
    3161:	44 8d 68 fc          	lea    -0x4(%rax),%r13d
    3165:	83 f8 03             	cmp    $0x3,%eax
    3168:	0f 87 44 fc ff ff    	ja     2db2 <e1000_xmit_frame+0x112>
    316e:	0f 0b                	ud2    
    3170:	45 31 f6             	xor    %r14d,%r14d
    3173:	89 ce                	mov    %ecx,%esi
    3175:	e9 7d fb ff ff       	jmp    2cf7 <e1000_xmit_frame+0x57>
    317a:	89 ce                	mov    %ecx,%esi
    317c:	4d 8b af 20 0c 00 00 	mov    0xc20(%r15),%r13
    3183:	45 31 f6             	xor    %r14d,%r14d
    3186:	83 fe 3b             	cmp    $0x3b,%esi
    3189:	0f 87 78 fb ff ff    	ja     2d07 <e1000_xmit_frame+0x67>
    318f:	b9 3c 00 00 00       	mov    $0x3c,%ecx
    3194:	ba 01 00 00 00       	mov    $0x1,%edx
    3199:	48 89 df             	mov    %rbx,%rdi
    319c:	44 89 4d bc          	mov    %r9d,-0x44(%rbp)
    31a0:	29 f1                	sub    %esi,%ecx
    31a2:	89 ce                	mov    %ecx,%esi
    31a4:	89 4d c0             	mov    %ecx,-0x40(%rbp)
    31a7:	e8 00 00 00 00       	call   31ac <e1000_xmit_frame+0x50c>
    31ac:	85 c0                	test   %eax,%eax
    31ae:	0f 85 74 ff ff ff    	jne    3128 <e1000_xmit_frame+0x488>
    31b4:	8b 53 74             	mov    0x74(%rbx),%edx
    31b7:	8b 83 bc 00 00 00    	mov    0xbc(%rbx),%eax
    31bd:	8b 4d c0             	mov    -0x40(%rbp),%ecx
    31c0:	44 8b 4d bc          	mov    -0x44(%rbp),%r9d
    31c4:	85 d2                	test   %edx,%edx
    31c6:	0f 85 41 03 00 00    	jne    350d <e1000_xmit_frame+0x86d>
    31cc:	01 c8                	add    %ecx,%eax
    31ce:	01 4b 70             	add    %ecx,0x70(%rbx)
    31d1:	89 83 bc 00 00 00    	mov    %eax,0xbc(%rbx)
    31d7:	e9 2e fb ff ff       	jmp    2d0a <e1000_xmit_frame+0x6a>
    31dc:	44 89 45 c0          	mov    %r8d,-0x40(%rbp)
    31e0:	48 85 db             	test   %rbx,%rbx
    31e3:	74 97                	je     317c <e1000_xmit_frame+0x4dc>
    31e5:	b9 04 00 00 00       	mov    $0x4,%ecx
    31ea:	48 8d 55 cc          	lea    -0x34(%rbp),%rdx
    31ee:	44 89 ee             	mov    %r13d,%esi
    31f1:	48 89 df             	mov    %rbx,%rdi
    31f4:	44 89 4d bc          	mov    %r9d,-0x44(%rbp)
    31f8:	e8 00 00 00 00       	call   31fd <e1000_xmit_frame+0x55d>
    31fd:	44 8b 4d bc          	mov    -0x44(%rbp),%r9d
    3201:	44 8b 45 c0          	mov    -0x40(%rbp),%r8d
    3205:	85 c0                	test   %eax,%eax
    3207:	0f 88 f8 02 00 00    	js     3505 <e1000_xmit_frame+0x865>
    320d:	8b 4b 70             	mov    0x70(%rbx),%ecx
    3210:	48 8d 45 cc          	lea    -0x34(%rbp),%rax
    3214:	e9 cc fb ff ff       	jmp    2de5 <e1000_xmit_frame+0x145>
    3219:	4c 29 c0             	sub    %r8,%rax
    321c:	41 b8 02 00 00 00    	mov    $0x2,%r8d
    3222:	8d 3c b8             	lea    (%rax,%rdi,4),%edi
    3225:	40 0f b6 ff          	movzbl %dil,%edi
    3229:	41 39 fc             	cmp    %edi,%r12d
    322c:	0f 85 59 fb ff ff    	jne    2d8b <e1000_xmit_frame+0xeb>
    3232:	41 83 bf 80 0e 00 00 	cmpl   $0x4,0xe80(%r15)
    3239:	04 
    323a:	0f 85 4b fb ff ff    	jne    2d8b <e1000_xmit_frame+0xeb>
    3240:	8b 83 bc 00 00 00    	mov    0xbc(%rbx),%eax
    3246:	48 8d 44 06 ff       	lea    -0x1(%rsi,%rax,1),%rax
    324b:	a8 04                	test   $0x4,%al
    324d:	0f 85 38 fb ff ff    	jne    2d8b <e1000_xmit_frame+0xeb>
    3253:	b8 04 00 00 00       	mov    $0x4,%eax
    3258:	48 89 df             	mov    %rbx,%rdi
    325b:	44 89 45 b0          	mov    %r8d,-0x50(%rbp)
    325f:	39 c2                	cmp    %eax,%edx
    3261:	89 4d c0             	mov    %ecx,-0x40(%rbp)
    3264:	0f 46 c2             	cmovbe %edx,%eax
    3267:	89 c6                	mov    %eax,%esi
    3269:	e8 00 00 00 00       	call   326e <e1000_xmit_frame+0x5ce>
    326e:	8b 4d c0             	mov    -0x40(%rbp),%ecx
    3271:	44 8b 45 b0          	mov    -0x50(%rbp),%r8d
    3275:	48 85 c0             	test   %rax,%rax
    3278:	0f 84 96 00 00 00    	je     3314 <e1000_xmit_frame+0x674>
    327e:	8b 43 74             	mov    0x74(%rbx),%eax
    3281:	44 8b 63 70          	mov    0x70(%rbx),%r12d
    3285:	41 29 c4             	sub    %eax,%r12d
    3288:	85 c0                	test   %eax,%eax
    328a:	0f 85 fb fa ff ff    	jne    2d8b <e1000_xmit_frame+0xeb>
    3290:	e9 d2 fa ff ff       	jmp    2d67 <e1000_xmit_frame+0xc7>
    3295:	c7 45 b8 00 10 00 00 	movl   $0x1000,-0x48(%rbp)
    329c:	b9 0c 00 00 00       	mov    $0xc,%ecx
    32a1:	e9 cd fa ff ff       	jmp    2d73 <e1000_xmit_frame+0xd3>
    32a6:	41 0f b7 45 2a       	movzwl 0x2a(%r13),%eax
    32ab:	41 8b 55 18          	mov    0x18(%r13),%edx
    32af:	49 03 87 68 0e 00 00 	add    0xe68(%r15),%rax
    32b6:	89 10                	mov    %edx,(%rax)
    32b8:	e9 6b fe ff ff       	jmp    3128 <e1000_xmit_frame+0x488>
    32bd:	be 02 00 00 00       	mov    $0x2,%esi
    32c2:	48 89 df             	mov    %rbx,%rdi
    32c5:	e8 00 00 00 00       	call   32ca <e1000_xmit_frame+0x62a>
    32ca:	8b 45 c0             	mov    -0x40(%rbp),%eax
    32cd:	49 8b 55 20          	mov    0x20(%r13),%rdx
    32d1:	48 89 c6             	mov    %rax,%rsi
    32d4:	48 8d 04 80          	lea    (%rax,%rax,4),%rax
    32d8:	48 8d 04 c2          	lea    (%rdx,%rax,8),%rax
    32dc:	48 c7 40 10 00 00 00 	movq   $0x0,0x10(%rax)
    32e3:	00 
    32e4:	41 89 75 18          	mov    %esi,0x18(%r13)
    32e8:	e9 3b fe ff ff       	jmp    3128 <e1000_xmit_frame+0x488>
    32ed:	31 c9                	xor    %ecx,%ecx
    32ef:	e9 c9 fd ff ff       	jmp    30bd <e1000_xmit_frame+0x41d>
    32f4:	8b 83 c0 00 00 00    	mov    0xc0(%rbx),%eax
    32fa:	48 8b 93 c8 00 00 00 	mov    0xc8(%rbx),%rdx
    3301:	41 83 c0 02          	add    $0x2,%r8d
    3305:	66 83 7c 02 04 00    	cmpw   $0x0,0x4(%rdx,%rax,1)
    330b:	45 0f 45 c1          	cmovne %r9d,%r8d
    330f:	e9 77 fa ff ff       	jmp    2d8b <e1000_xmit_frame+0xeb>
    3314:	41 f6 87 48 12 00 00 	testb  $0x1,0x1248(%r15)
    331b:	01 
    331c:	74 13                	je     3331 <e1000_xmit_frame+0x691>
    331e:	49 8b bf 58 0e 00 00 	mov    0xe58(%r15),%rdi
    3325:	48 c7 c6 00 00 00 00 	mov    $0x0,%rsi
    332c:	e8 00 00 00 00       	call   3331 <e1000_xmit_frame+0x691>
    3331:	be 02 00 00 00       	mov    $0x2,%esi
    3336:	48 89 df             	mov    %rbx,%rdi
    3339:	e8 00 00 00 00       	call   333e <e1000_xmit_frame+0x69e>
    333e:	e9 e5 fd ff ff       	jmp    3128 <e1000_xmit_frame+0x488>
    3343:	31 f6                	xor    %esi,%esi
    3345:	48 89 df             	mov    %rbx,%rdi
    3348:	e8 00 00 00 00       	call   334d <e1000_xmit_frame+0x6ad>
    334d:	e9 d6 fc ff ff       	jmp    3028 <e1000_xmit_frame+0x388>
    3352:	8b 73 70             	mov    0x70(%rbx),%esi
    3355:	41 8b 8f 64 0c 00 00 	mov    0xc64(%r15),%ecx
    335c:	41 8b 87 5c 0c 00 00 	mov    0xc5c(%r15),%eax
    3363:	8d 56 1f             	lea    0x1f(%rsi),%edx
    3366:	83 e2 f0             	and    $0xfffffff0,%edx
    3369:	66 41 83 bf fa 0b 00 	cmpw   $0x1,0xbfa(%r15)
    3370:	00 01 
    3372:	75 55                	jne    33c9 <e1000_xmit_frame+0x729>
    3374:	41 8b b7 6c 0c 00 00 	mov    0xc6c(%r15),%esi
    337b:	85 f6                	test   %esi,%esi
    337d:	75 17                	jne    3396 <e1000_xmit_frame+0x6f6>
    337f:	8d b1 e0 03 00 00    	lea    0x3e0(%rcx),%esi
    3385:	29 c6                	sub    %eax,%esi
    3387:	39 f2                	cmp    %esi,%edx
    3389:	72 3e                	jb     33c9 <e1000_xmit_frame+0x729>
    338b:	41 c7 87 6c 0c 00 00 	movl   $0x1,0xc6c(%r15)
    3392:	01 00 00 00 
    3396:	49 8b 47 18          	mov    0x18(%r15),%rax
    339a:	48 8b 15 00 00 00 00 	mov    0x0(%rip),%rdx        # 33a1 <e1000_xmit_frame+0x701>
    33a1:	48 89 90 c8 00 00 00 	mov    %rdx,0xc8(%rax)
    33a8:	f0 80 88 d0 00 00 00 	lock orb $0x1,0xd0(%rax)
    33af:	01 
    33b0:	49 8b 87 50 12 00 00 	mov    0x1250(%r15),%rax
    33b7:	a8 04                	test   $0x4,%al
    33b9:	0f 84 e9 01 00 00    	je     35a8 <e1000_xmit_frame+0x908>
    33bf:	b8 10 00 00 00       	mov    $0x10,%eax
    33c4:	e9 61 fd ff ff       	jmp    312a <e1000_xmit_frame+0x48a>
    33c9:	01 d0                	add    %edx,%eax
    33cb:	89 c2                	mov    %eax,%edx
    33cd:	29 ca                	sub    %ecx,%edx
    33cf:	39 c8                	cmp    %ecx,%eax
    33d1:	0f 43 c2             	cmovae %edx,%eax
    33d4:	41 89 87 5c 0c 00 00 	mov    %eax,0xc5c(%r15)
    33db:	e9 4e fb ff ff       	jmp    2f2e <e1000_xmit_frame+0x28e>
    33e0:	0f b6 83 80 00 00 00 	movzbl 0x80(%rbx),%eax
    33e7:	83 e0 60             	and    $0x60,%eax
    33ea:	3c 60                	cmp    $0x60,%al
    33ec:	0f 85 9a fb ff ff    	jne    2f8c <e1000_xmit_frame+0x2ec>
    33f2:	66 41 83 fe 08       	cmp    $0x8,%r14w
    33f7:	0f 84 3a 01 00 00    	je     3537 <e1000_xmit_frame+0x897>
    33fd:	66 41 81 fe 86 dd    	cmp    $0xdd86,%r14w
    3403:	0f 84 06 01 00 00    	je     350f <e1000_xmit_frame+0x86f>
    3409:	44 89 4d b0          	mov    %r9d,-0x50(%rbp)
    340d:	e8 00 00 00 00       	call   3412 <e1000_xmit_frame+0x772>
    3412:	44 8b 4d b0          	mov    -0x50(%rbp),%r9d
    3416:	85 c0                	test   %eax,%eax
    3418:	0f 85 b1 01 00 00    	jne    35cf <e1000_xmit_frame+0x92f>
    341e:	48 8b 93 c8 00 00 00 	mov    0xc8(%rbx),%rdx
    3425:	41 b8 00 00 00 20    	mov    $0x20000000,%r8d
    342b:	0f b7 83 8c 00 00 00 	movzwl 0x8c(%rbx),%eax
    3432:	2b 83 d0 00 00 00    	sub    0xd0(%rbx),%eax
    3438:	8d 0c 10             	lea    (%rax,%rdx,1),%ecx
    343b:	41 8b 45 18          	mov    0x18(%r13),%eax
    343f:	49 8b 75 20          	mov    0x20(%r13),%rsi
    3443:	48 89 c2             	mov    %rax,%rdx
    3446:	48 8d 3c 80          	lea    (%rax,%rax,4),%rdi
    344a:	48 c1 e0 04          	shl    $0x4,%rax
    344e:	49 03 45 00          	add    0x0(%r13),%rax
    3452:	c7 00 00 00 00 00    	movl   $0x0,(%rax)
    3458:	48 8d 34 fe          	lea    (%rsi,%rdi,8),%rsi
    345c:	31 ff                	xor    %edi,%edi
    345e:	88 48 04             	mov    %cl,0x4(%rax)
    3461:	02 8b 8e 00 00 00    	add    0x8e(%rbx),%cl
    3467:	88 48 05             	mov    %cl,0x5(%rax)
    346a:	66 89 78 06          	mov    %di,0x6(%rax)
    346e:	c7 40 0c 00 00 00 00 	movl   $0x0,0xc(%rax)
    3475:	44 89 40 08          	mov    %r8d,0x8(%rax)
    3479:	48 8b 05 00 00 00 00 	mov    0x0(%rip),%rax        # 3480 <e1000_xmit_frame+0x7e0>
    3480:	66 89 56 1a          	mov    %dx,0x1a(%rsi)
    3484:	83 c2 01             	add    $0x1,%edx
    3487:	48 89 46 10          	mov    %rax,0x10(%rsi)
    348b:	41 3b 55 14          	cmp    0x14(%r13),%edx
    348f:	0f 84 0c 01 00 00    	je     35a1 <e1000_xmit_frame+0x901>
    3495:	41 89 55 18          	mov    %edx,0x18(%r13)
    3499:	41 83 cc 01          	or     $0x1,%r12d
    349d:	e9 ea fa ff ff       	jmp    2f8c <e1000_xmit_frame+0x2ec>
    34a2:	44 89 e0             	mov    %r12d,%eax
    34a5:	41 81 c8 00 00 00 40 	or     $0x40000000,%r8d
    34ac:	66 31 c0             	xor    %ax,%ax
    34af:	09 c7                	or     %eax,%edi
    34b1:	e9 b5 fb ff ff       	jmp    306b <e1000_xmit_frame+0x3cb>
    34b6:	41 b8 00 00 00 02    	mov    $0x2000000,%r8d
    34bc:	e9 8d fb ff ff       	jmp    304e <e1000_xmit_frame+0x3ae>
    34c1:	48 8b 15 00 00 00 00 	mov    0x0(%rip),%rdx        # 34c8 <e1000_xmit_frame+0x828>
    34c8:	48 89 90 c8 00 00 00 	mov    %rdx,0xc8(%rax)
    34cf:	f0 80 88 d0 00 00 00 	lock orb $0x2,0xd0(%rax)
    34d6:	02 
    34d7:	f0 83 44 24 fc 00    	lock addl $0x0,-0x4(%rsp)
    34dd:	8b 88 04 01 00 00    	mov    0x104(%rax),%ecx
    34e3:	8b 90 00 01 00 00    	mov    0x100(%rax),%edx
    34e9:	39 d1                	cmp    %edx,%ecx
    34eb:	0f 88 17 fb ff ff    	js     3008 <e1000_xmit_frame+0x368>
    34f1:	f0 80 a0 d0 00 00 00 	lock andb $0xfd,0xd0(%rax)
    34f8:	fd 
    34f9:	e9 0a fb ff ff       	jmp    3008 <e1000_xmit_frame+0x368>
    34fe:	0f 0b                	ud2    
    3500:	e9 ef fa ff ff       	jmp    2ff4 <e1000_xmit_frame+0x354>
    3505:	8b 73 70             	mov    0x70(%rbx),%esi
    3508:	e9 6f fc ff ff       	jmp    317c <e1000_xmit_frame+0x4dc>
    350d:	0f 0b                	ud2    
    350f:	0f b7 83 b8 00 00 00 	movzwl 0xb8(%rbx),%eax
    3516:	48 8b 93 c8 00 00 00 	mov    0xc8(%rbx),%rdx
    351d:	b9 00 00 00 20       	mov    $0x20000000,%ecx
    3522:	80 7c 02 06 06       	cmpb   $0x6,0x6(%rdx,%rax,1)
    3527:	b8 00 00 00 21       	mov    $0x21000000,%eax
    352c:	0f 45 c1             	cmovne %ecx,%eax
    352f:	41 89 c0             	mov    %eax,%r8d
    3532:	e9 f4 fe ff ff       	jmp    342b <e1000_xmit_frame+0x78b>
    3537:	0f b7 83 b8 00 00 00 	movzwl 0xb8(%rbx),%eax
    353e:	48 8b 93 c8 00 00 00 	mov    0xc8(%rbx),%rdx
    3545:	b9 00 00 00 20       	mov    $0x20000000,%ecx
    354a:	80 7c 02 09 06       	cmpb   $0x6,0x9(%rdx,%rax,1)
    354f:	b8 00 00 00 21       	mov    $0x21000000,%eax
    3554:	0f 45 c1             	cmovne %ecx,%eax
    3557:	41 89 c0             	mov    %eax,%r8d
    355a:	e9 cc fe ff ff       	jmp    342b <e1000_xmit_frame+0x78b>
    355f:	48 89 c6             	mov    %rax,%rsi
    3562:	48 c7 c7 00 00 00 00 	mov    $0x0,%rdi
    3569:	44 89 45 9c          	mov    %r8d,-0x64(%rbp)
    356d:	89 4d a0             	mov    %ecx,-0x60(%rbp)
    3570:	44 89 4d a4          	mov    %r9d,-0x5c(%rbp)
    3574:	44 89 5d a8          	mov    %r11d,-0x58(%rbp)
    3578:	48 89 55 b0          	mov    %rdx,-0x50(%rbp)
    357c:	48 89 45 c0          	mov    %rax,-0x40(%rbp)
    3580:	e8 00 00 00 00       	call   3585 <e1000_xmit_frame+0x8e5>
    3585:	44 8b 45 9c          	mov    -0x64(%rbp),%r8d
    3589:	8b 4d a0             	mov    -0x60(%rbp),%ecx
    358c:	44 8b 4d a4          	mov    -0x5c(%rbp),%r9d
    3590:	44 8b 5d a8          	mov    -0x58(%rbp),%r11d
    3594:	48 8b 55 b0          	mov    -0x50(%rbp),%rdx
    3598:	48 8b 45 c0          	mov    -0x40(%rbp),%rax
    359c:	e9 27 f9 ff ff       	jmp    2ec8 <e1000_xmit_frame+0x228>
    35a1:	31 d2                	xor    %edx,%edx
    35a3:	e9 ed fe ff ff       	jmp    3495 <e1000_xmit_frame+0x7f5>
    35a8:	48 8b 35 00 00 00 00 	mov    0x0(%rip),%rsi        # 35af <e1000_xmit_frame+0x90f>
    35af:	b9 01 00 00 00       	mov    $0x1,%ecx
    35b4:	bf 00 20 00 00       	mov    $0x2000,%edi
    35b9:	49 8d 97 e0 12 00 00 	lea    0x12e0(%r15),%rdx
    35c0:	e8 00 00 00 00       	call   35c5 <e1000_xmit_frame+0x925>
    35c5:	e9 f5 fd ff ff       	jmp    33bf <e1000_xmit_frame+0x71f>
    35ca:	e8 00 00 00 00       	call   35cf <e1000_xmit_frame+0x92f>
    35cf:	41 f6 87 48 12 00 00 	testb  $0x1,0x1248(%r15)
    35d6:	01 
    35d7:	0f 84 41 fe ff ff    	je     341e <e1000_xmit_frame+0x77e>
    35dd:	0f b7 93 b4 00 00 00 	movzwl 0xb4(%rbx),%edx
    35e4:	49 8b bf 58 0e 00 00 	mov    0xe58(%r15),%rdi
    35eb:	48 c7 c6 00 00 00 00 	mov    $0x0,%rsi
    35f2:	44 89 4d b0          	mov    %r9d,-0x50(%rbp)
    35f6:	e8 00 00 00 00       	call   35fb <e1000_xmit_frame+0x95b>
    35fb:	48 8b 93 c8 00 00 00 	mov    0xc8(%rbx),%rdx
    3602:	44 8b 4d b0          	mov    -0x50(%rbp),%r9d
    3606:	41 b8 00 00 00 20    	mov    $0x20000000,%r8d
    360c:	e9 1a fe ff ff       	jmp    342b <e1000_xmit_frame+0x78b>
    3611:	66 66 2e 0f 1f 84 00 	data16 cs nopw 0x0(%rax,%rax,1)
    3618:	00 00 00 00 
    361c:	0f 1f 40 00          	nopl   0x0(%rax)

0000000000003620 <__pfx_e1000_intr>:
    3620:	90                   	nop
    3621:	90                   	nop
    3622:	90                   	nop
    3623:	90                   	nop
    3624:	90                   	nop
    3625:	90                   	nop
    3626:	90                   	nop
    3627:	90                   	nop
    3628:	90                   	nop
    3629:	90                   	nop
    362a:	90                   	nop
    362b:	90                   	nop
    362c:	90                   	nop
    362d:	90                   	nop
    362e:	90                   	nop
    362f:	90                   	nop

0000000000003630 <e1000_intr>:
    3630:	e8 00 00 00 00       	call   3635 <e1000_intr+0x5>
    3635:	48 8b 86 68 0e 00 00 	mov    0xe68(%rsi),%rax
    363c:	48 05 c0 00 00 00    	add    $0xc0,%rax
    3642:	8b 00                	mov    (%rax),%eax
    3644:	85 c0                	test   %eax,%eax
    3646:	0f 84 80 00 00 00    	je     36cc <e1000_intr+0x9c>
    364c:	55                   	push   %rbp
    364d:	48 89 e5             	mov    %rsp,%rbp
    3650:	41 54                	push   %r12
    3652:	53                   	push   %rbx
    3653:	48 8b 96 50 12 00 00 	mov    0x1250(%rsi),%rdx
    365a:	48 89 f3             	mov    %rsi,%rbx
    365d:	83 e2 04             	and    $0x4,%edx
    3660:	75 54                	jne    36b6 <e1000_intr+0x86>
    3662:	a8 0c                	test   $0xc,%al
    3664:	75 73                	jne    36d9 <e1000_intr+0xa9>
    3666:	48 8b 83 68 0e 00 00 	mov    0xe68(%rbx),%rax
    366d:	ba ff ff ff ff       	mov    $0xffffffff,%edx
    3672:	89 90 d8 00 00 00    	mov    %edx,0xd8(%rax)
    3678:	48 8b 83 68 0e 00 00 	mov    0xe68(%rbx),%rax
    367f:	48 83 c0 08          	add    $0x8,%rax
    3683:	8b 00                	mov    (%rax),%eax
    3685:	4c 8d a3 90 0c 00 00 	lea    0xc90(%rbx),%r12
    368c:	4c 89 e7             	mov    %r12,%rdi
    368f:	e8 00 00 00 00       	call   3694 <e1000_intr+0x64>
    3694:	84 c0                	test   %al,%al
    3696:	74 79                	je     3711 <e1000_intr+0xe1>
    3698:	48 c7 83 00 0c 00 00 	movq   $0x0,0xc00(%rbx)
    369f:	00 00 00 00 
    36a3:	4c 89 e7             	mov    %r12,%rdi
    36a6:	48 c7 83 08 0c 00 00 	movq   $0x0,0xc08(%rbx)
    36ad:	00 00 00 00 
    36b1:	e8 00 00 00 00       	call   36b6 <e1000_intr+0x86>
    36b6:	5b                   	pop    %rbx
    36b7:	b8 01 00 00 00       	mov    $0x1,%eax
    36bc:	41 5c                	pop    %r12
    36be:	5d                   	pop    %rbp
    36bf:	31 d2                	xor    %edx,%edx
    36c1:	31 c9                	xor    %ecx,%ecx
    36c3:	31 f6                	xor    %esi,%esi
    36c5:	31 ff                	xor    %edi,%edi
    36c7:	e9 00 00 00 00       	jmp    36cc <e1000_intr+0x9c>
    36cc:	31 d2                	xor    %edx,%edx
    36ce:	31 c9                	xor    %ecx,%ecx
    36d0:	31 f6                	xor    %esi,%esi
    36d2:	31 ff                	xor    %edi,%edi
    36d4:	e9 00 00 00 00       	jmp    36d9 <e1000_intr+0xa9>
    36d9:	48 8b 86 50 12 00 00 	mov    0x1250(%rsi),%rax
    36e0:	c6 86 74 0f 00 00 01 	movb   $0x1,0xf74(%rsi)
    36e7:	a8 04                	test   $0x4,%al
    36e9:	0f 85 77 ff ff ff    	jne    3666 <e1000_intr+0x36>
    36ef:	48 8d 96 88 12 00 00 	lea    0x1288(%rsi),%rdx
    36f6:	b9 01 00 00 00       	mov    $0x1,%ecx
    36fb:	bf 00 20 00 00       	mov    $0x2000,%edi
    3700:	48 8b 35 00 00 00 00 	mov    0x0(%rip),%rsi        # 3707 <e1000_intr+0xd7>
    3707:	e8 00 00 00 00       	call   370c <e1000_intr+0xdc>
    370c:	e9 55 ff ff ff       	jmp    3666 <e1000_intr+0x36>
    3711:	48 8b 83 50 12 00 00 	mov    0x1250(%rbx),%rax
    3718:	a8 04                	test   $0x4,%al
    371a:	75 9a                	jne    36b6 <e1000_intr+0x86>
    371c:	48 8b 83 68 0e 00 00 	mov    0xe68(%rbx),%rax
    3723:	ba 9d 00 00 00       	mov    $0x9d,%edx
    3728:	89 90 d0 00 00 00    	mov    %edx,0xd0(%rax)
    372e:	48 8b 83 68 0e 00 00 	mov    0xe68(%rbx),%rax
    3735:	8b 40 08             	mov    0x8(%rax),%eax
    3738:	e9 79 ff ff ff       	jmp    36b6 <e1000_intr+0x86>
    373d:	0f 1f 00             	nopl   (%rax)

0000000000003740 <__pfx_e1000_netpoll>:
    3740:	90                   	nop
    3741:	90                   	nop
    3742:	90                   	nop
    3743:	90                   	nop
    3744:	90                   	nop
    3745:	90                   	nop
    3746:	90                   	nop
    3747:	90                   	nop
    3748:	90                   	nop
    3749:	90                   	nop
    374a:	90                   	nop
    374b:	90                   	nop
    374c:	90                   	nop
    374d:	90                   	nop
    374e:	90                   	nop
    374f:	90                   	nop

0000000000003750 <e1000_netpoll>:
    3750:	e8 00 00 00 00       	call   3755 <e1000_netpoll+0x5>
    3755:	55                   	push   %rbp
    3756:	48 89 e5             	mov    %rsp,%rbp
    3759:	53                   	push   %rbx
    375a:	48 8b 87 60 0e 00 00 	mov    0xe60(%rdi),%rax
    3761:	48 89 fb             	mov    %rdi,%rbx
    3764:	8b b8 cc 03 00 00    	mov    0x3cc(%rax),%edi
    376a:	e8 00 00 00 00       	call   376f <e1000_netpoll+0x1f>
    376f:	84 c0                	test   %al,%al
    3771:	75 22                	jne    3795 <e1000_netpoll+0x45>
    3773:	48 8b 83 60 0e 00 00 	mov    0xe60(%rbx),%rax
    377a:	8b b8 cc 03 00 00    	mov    0x3cc(%rax),%edi
    3780:	e8 00 00 00 00       	call   3785 <e1000_netpoll+0x35>
    3785:	48 8b 5d f8          	mov    -0x8(%rbp),%rbx
    3789:	c9                   	leave  
    378a:	31 c0                	xor    %eax,%eax
    378c:	31 f6                	xor    %esi,%esi
    378e:	31 ff                	xor    %edi,%edi
    3790:	e9 00 00 00 00       	jmp    3795 <e1000_netpoll+0x45>
    3795:	48 8b 83 60 0e 00 00 	mov    0xe60(%rbx),%rax
    379c:	48 89 de             	mov    %rbx,%rsi
    379f:	8b b8 cc 03 00 00    	mov    0x3cc(%rax),%edi
    37a5:	e8 86 fe ff ff       	call   3630 <e1000_intr>
    37aa:	eb c7                	jmp    3773 <e1000_netpoll+0x23>
    37ac:	0f 1f 40 00          	nopl   0x0(%rax)

00000000000037b0 <__pfx_e1000_leave_82542_rst>:
    37b0:	90                   	nop
    37b1:	90                   	nop
    37b2:	90                   	nop
    37b3:	90                   	nop
    37b4:	90                   	nop
    37b5:	90                   	nop
    37b6:	90                   	nop
    37b7:	90                   	nop
    37b8:	90                   	nop
    37b9:	90                   	nop
    37ba:	90                   	nop
    37bb:	90                   	nop
    37bc:	90                   	nop
    37bd:	90                   	nop
    37be:	90                   	nop
    37bf:	90                   	nop

00000000000037c0 <e1000_leave_82542_rst>:
    37c0:	e8 00 00 00 00       	call   37c5 <e1000_leave_82542_rst+0x5>
    37c5:	55                   	push   %rbp
    37c6:	48 89 e5             	mov    %rsp,%rbp
    37c9:	41 55                	push   %r13
    37cb:	41 54                	push   %r12
    37cd:	53                   	push   %rbx
    37ce:	48 8b 87 88 04 00 00 	mov    0x488(%rdi),%rax
    37d5:	48 89 fb             	mov    %rdi,%rbx
    37d8:	4c 8b a7 78 04 00 00 	mov    0x478(%rdi),%r12
    37df:	48 05 00 01 00 00    	add    $0x100,%rax
    37e5:	8b 00                	mov    (%rax),%eax
    37e7:	48 8b b7 88 04 00 00 	mov    0x488(%rdi),%rsi
    37ee:	83 e0 fe             	and    $0xfffffffe,%eax
    37f1:	89 86 00 01 00 00    	mov    %eax,0x100(%rsi)
    37f7:	48 8b 87 88 04 00 00 	mov    0x488(%rdi),%rax
    37fe:	48 83 c0 08          	add    $0x8,%rax
    3802:	8b 00                	mov    (%rax),%eax
    3804:	bf b8 ae 47 01       	mov    $0x147aeb8,%edi
    3809:	e8 00 00 00 00       	call   380e <e1000_leave_82542_rst+0x4e>
    380e:	f6 83 5c 05 00 00 10 	testb  $0x10,0x55c(%rbx)
    3815:	75 24                	jne    383b <e1000_leave_82542_rst+0x7b>
    3817:	49 8b 84 24 a8 00 00 	mov    0xa8(%r12),%rax
    381e:	00 
    381f:	a8 01                	test   $0x1,%al
    3821:	75 4e                	jne    3871 <e1000_leave_82542_rst+0xb1>
    3823:	5b                   	pop    %rbx
    3824:	41 5c                	pop    %r12
    3826:	41 5d                	pop    %r13
    3828:	5d                   	pop    %rbp
    3829:	31 c0                	xor    %eax,%eax
    382b:	31 d2                	xor    %edx,%edx
    382d:	31 c9                	xor    %ecx,%ecx
    382f:	31 f6                	xor    %esi,%esi
    3831:	31 ff                	xor    %edi,%edi
    3833:	45 31 c0             	xor    %r8d,%r8d
    3836:	e9 00 00 00 00       	jmp    383b <e1000_leave_82542_rst+0x7b>
    383b:	4c 8b ab b0 04 00 00 	mov    0x4b0(%rbx),%r13
    3842:	49 8b bd 80 04 00 00 	mov    0x480(%r13),%rdi
    3849:	e8 00 00 00 00       	call   384e <e1000_leave_82542_rst+0x8e>
    384e:	85 c0                	test   %eax,%eax
    3850:	74 c5                	je     3817 <e1000_leave_82542_rst+0x57>
    3852:	41 f6 85 68 08 00 00 	testb  $0x2,0x868(%r13)
    3859:	02 
    385a:	74 bb                	je     3817 <e1000_leave_82542_rst+0x57>
    385c:	49 8b bd 78 04 00 00 	mov    0x478(%r13),%rdi
    3863:	48 c7 c6 00 00 00 00 	mov    $0x0,%rsi
    386a:	e8 00 00 00 00       	call   386f <e1000_leave_82542_rst+0xaf>
    386f:	eb a6                	jmp    3817 <e1000_leave_82542_rst+0x57>
    3871:	4c 8b a3 a8 02 00 00 	mov    0x2a8(%rbx),%r12
    3878:	48 89 df             	mov    %rbx,%rdi
    387b:	e8 d0 d7 ff ff       	call   1050 <e1000_configure_rx>
    3880:	4c 8b 83 a0 02 00 00 	mov    0x2a0(%rbx),%r8
    3887:	41 8b 54 24 1c       	mov    0x1c(%r12),%edx
    388c:	41 8b 44 24 18       	mov    0x18(%r12),%eax
    3891:	31 c9                	xor    %ecx,%ecx
    3893:	39 d0                	cmp    %edx,%eax
    3895:	72 05                	jb     389c <e1000_leave_82542_rst+0xdc>
    3897:	41 8b 4c 24 14       	mov    0x14(%r12),%ecx
    389c:	83 ea 01             	sub    $0x1,%edx
    389f:	4c 89 e6             	mov    %r12,%rsi
    38a2:	48 89 df             	mov    %rbx,%rdi
    38a5:	29 c2                	sub    %eax,%edx
    38a7:	01 ca                	add    %ecx,%edx
    38a9:	2e e8 00 00 00 00    	cs call 38af <e1000_leave_82542_rst+0xef>
    38af:	5b                   	pop    %rbx
    38b0:	41 5c                	pop    %r12
    38b2:	41 5d                	pop    %r13
    38b4:	5d                   	pop    %rbp
    38b5:	31 c0                	xor    %eax,%eax
    38b7:	31 d2                	xor    %edx,%edx
    38b9:	31 c9                	xor    %ecx,%ecx
    38bb:	31 f6                	xor    %esi,%esi
    38bd:	31 ff                	xor    %edi,%edi
    38bf:	45 31 c0             	xor    %r8d,%r8d
    38c2:	e9 00 00 00 00       	jmp    38c7 <e1000_leave_82542_rst+0x107>
    38c7:	66 0f 1f 84 00 00 00 	nopw   0x0(%rax,%rax,1)
    38ce:	00 00 

00000000000038d0 <__pfx_e1000_sw_init>:
    38d0:	90                   	nop
    38d1:	90                   	nop
    38d2:	90                   	nop
    38d3:	90                   	nop
    38d4:	90                   	nop
    38d5:	90                   	nop
    38d6:	90                   	nop
    38d7:	90                   	nop
    38d8:	90                   	nop
    38d9:	90                   	nop
    38da:	90                   	nop
    38db:	90                   	nop
    38dc:	90                   	nop
    38dd:	90                   	nop
    38de:	90                   	nop
    38df:	90                   	nop

00000000000038e0 <e1000_sw_init>:
    38e0:	e8 00 00 00 00       	call   38e5 <e1000_sw_init+0x5>
    38e5:	48 b8 01 00 00 00 01 	movabs $0x100000001,%rax
    38ec:	00 00 00 
    38ef:	55                   	push   %rbp
    38f0:	be c0 0d 00 00       	mov    $0xdc0,%esi
    38f5:	48 89 e5             	mov    %rsp,%rbp
    38f8:	53                   	push   %rbx
    38f9:	48 89 fb             	mov    %rdi,%rbx
    38fc:	c7 87 08 02 00 00 f2 	movl   $0x5f2,0x208(%rdi)
    3903:	05 00 00 
    3906:	48 89 87 40 04 00 00 	mov    %rax,0x440(%rdi)
    390d:	bf 30 00 00 00       	mov    $0x30,%edi
    3912:	e8 00 00 00 00       	call   3917 <e1000_sw_init+0x37>
    3917:	48 89 83 40 02 00 00 	mov    %rax,0x240(%rbx)
    391e:	48 85 c0             	test   %rax,%rax
    3921:	0f 84 9c 00 00 00    	je     39c3 <e1000_sw_init+0xe3>
    3927:	48 63 bb 44 04 00 00 	movslq 0x444(%rbx),%rdi
    392e:	48 89 c1             	mov    %rax,%rcx
    3931:	ba 38 00 00 00       	mov    $0x38,%edx
    3936:	48 89 f8             	mov    %rdi,%rax
    3939:	48 f7 e2             	mul    %rdx
    393c:	48 89 c7             	mov    %rax,%rdi
    393f:	70 71                	jo     39b2 <e1000_sw_init+0xd2>
    3941:	be c0 0d 00 00       	mov    $0xdc0,%esi
    3946:	e8 00 00 00 00       	call   394b <e1000_sw_init+0x6b>
    394b:	48 89 83 a8 02 00 00 	mov    %rax,0x2a8(%rbx)
    3952:	48 85 c0             	test   %rax,%rax
    3955:	0f 84 8d 00 00 00    	je     39e8 <e1000_sw_init+0x108>
    395b:	48 8b 83 88 04 00 00 	mov    0x488(%rbx),%rax
    3962:	ba ff ff ff ff       	mov    $0xffffffff,%edx
    3967:	89 90 d8 00 00 00    	mov    %edx,0xd8(%rax)
    396d:	48 8b 83 88 04 00 00 	mov    0x488(%rbx),%rax
    3974:	48 83 c0 08          	add    $0x8,%rax
    3978:	8b 00                	mov    (%rax),%eax
    397a:	48 8b 83 80 04 00 00 	mov    0x480(%rbx),%rax
    3981:	8b b8 cc 03 00 00    	mov    0x3cc(%rax),%edi
    3987:	e8 00 00 00 00       	call   398c <e1000_sw_init+0xac>
    398c:	c7 83 1c 02 00 00 00 	movl   $0x0,0x21c(%rbx)
    3993:	00 00 00 
    3996:	f0 80 8b 70 08 00 00 	lock orb $0x4,0x870(%rbx)
    399d:	04 
    399e:	31 c0                	xor    %eax,%eax
    39a0:	48 8b 5d f8          	mov    -0x8(%rbp),%rbx
    39a4:	c9                   	leave  
    39a5:	31 d2                	xor    %edx,%edx
    39a7:	31 c9                	xor    %ecx,%ecx
    39a9:	31 f6                	xor    %esi,%esi
    39ab:	31 ff                	xor    %edi,%edi
    39ad:	e9 00 00 00 00       	jmp    39b2 <e1000_sw_init+0xd2>
    39b2:	31 c0                	xor    %eax,%eax
    39b4:	48 89 83 a8 02 00 00 	mov    %rax,0x2a8(%rbx)
    39bb:	48 89 cf             	mov    %rcx,%rdi
    39be:	e8 00 00 00 00       	call   39c3 <e1000_sw_init+0xe3>
    39c3:	f6 83 68 08 00 00 02 	testb  $0x2,0x868(%rbx)
    39ca:	75 07                	jne    39d3 <e1000_sw_init+0xf3>
    39cc:	b8 f4 ff ff ff       	mov    $0xfffffff4,%eax
    39d1:	eb cd                	jmp    39a0 <e1000_sw_init+0xc0>
    39d3:	48 8b bb 78 04 00 00 	mov    0x478(%rbx),%rdi
    39da:	48 c7 c6 00 00 00 00 	mov    $0x0,%rsi
    39e1:	e8 00 00 00 00       	call   39e6 <e1000_sw_init+0x106>
    39e6:	eb e4                	jmp    39cc <e1000_sw_init+0xec>
    39e8:	48 8b 8b 40 02 00 00 	mov    0x240(%rbx),%rcx
    39ef:	eb ca                	jmp    39bb <e1000_sw_init+0xdb>
    39f1:	66 66 2e 0f 1f 84 00 	data16 cs nopw 0x0(%rax,%rax,1)
    39f8:	00 00 00 00 
    39fc:	0f 1f 40 00          	nopl   0x0(%rax)

0000000000003a00 <__pfx_e1000_clean_tx_irq>:
    3a00:	90                   	nop
    3a01:	90                   	nop
    3a02:	90                   	nop
    3a03:	90                   	nop
    3a04:	90                   	nop
    3a05:	90                   	nop
    3a06:	90                   	nop
    3a07:	90                   	nop
    3a08:	90                   	nop
    3a09:	90                   	nop
    3a0a:	90                   	nop
    3a0b:	90                   	nop
    3a0c:	90                   	nop
    3a0d:	90                   	nop
    3a0e:	90                   	nop
    3a0f:	90                   	nop

0000000000003a10 <e1000_clean_tx_irq>:
    3a10:	e8 00 00 00 00       	call   3a15 <e1000_clean_tx_irq+0x5>
    3a15:	55                   	push   %rbp
    3a16:	48 89 e5             	mov    %rsp,%rbp
    3a19:	41 57                	push   %r15
    3a1b:	41 56                	push   %r14
    3a1d:	41 55                	push   %r13
    3a1f:	41 54                	push   %r12
    3a21:	49 89 f4             	mov    %rsi,%r12
    3a24:	53                   	push   %rbx
    3a25:	48 83 ec 38          	sub    $0x38,%rsp
    3a29:	8b 56 1c             	mov    0x1c(%rsi),%edx
    3a2c:	48 8b 4e 20          	mov    0x20(%rsi),%rcx
    3a30:	48 89 7d c0          	mov    %rdi,-0x40(%rbp)
    3a34:	48 8b 87 78 04 00 00 	mov    0x478(%rdi),%rax
    3a3b:	31 ff                	xor    %edi,%edi
    3a3d:	c7 45 b8 00 00 00 00 	movl   $0x0,-0x48(%rbp)
    3a44:	49 89 d6             	mov    %rdx,%r14
    3a47:	48 8d 14 92          	lea    (%rdx,%rdx,4),%rdx
    3a4b:	c7 45 bc 00 00 00 00 	movl   $0x0,-0x44(%rbp)
    3a52:	48 8d 14 d1          	lea    (%rcx,%rdx,8),%rdx
    3a56:	48 89 45 a8          	mov    %rax,-0x58(%rbp)
    3a5a:	44 0f b7 6a 1a       	movzwl 0x1a(%rdx),%r13d
    3a5f:	4c 89 ea             	mov    %r13,%rdx
    3a62:	48 c1 e2 04          	shl    $0x4,%rdx
    3a66:	48 03 16             	add    (%rsi),%rdx
    3a69:	8b 42 0c             	mov    0xc(%rdx),%eax
    3a6c:	83 e0 01             	and    $0x1,%eax
    3a6f:	89 45 c8             	mov    %eax,-0x38(%rbp)
    3a72:	0f 84 46 03 00 00    	je     3dbe <e1000_clean_tx_irq+0x3ae>
    3a78:	89 7d b0             	mov    %edi,-0x50(%rbp)
    3a7b:	31 db                	xor    %ebx,%ebx
    3a7d:	49 89 f7             	mov    %rsi,%r15
    3a80:	41 3b 5f 14          	cmp    0x14(%r15),%ebx
    3a84:	0f 83 c2 00 00 00    	jae    3b4c <e1000_clean_tx_irq+0x13c>
    3a8a:	eb 36                	jmp    3ac2 <e1000_clean_tx_irq+0xb2>
    3a8c:	48 8b 7d c0          	mov    -0x40(%rbp),%rdi
    3a90:	ba 40 00 00 00       	mov    $0x40,%edx
    3a95:	48 89 4d c8          	mov    %rcx,-0x38(%rbp)
    3a99:	e8 52 da ff ff       	call   14f0 <e1000_unmap_and_free_tx_resource>
    3a9e:	48 8b 4d c8          	mov    -0x38(%rbp),%rcx
    3aa2:	c7 41 0c 00 00 00 00 	movl   $0x0,0xc(%rcx)
    3aa9:	45 39 67 14          	cmp    %r12d,0x14(%r15)
    3aad:	0f 84 0b 02 00 00    	je     3cbe <e1000_clean_tx_irq+0x2ae>
    3ab3:	83 c3 01             	add    $0x1,%ebx
    3ab6:	45 39 ee             	cmp    %r13d,%r14d
    3ab9:	0f 84 8e 03 00 00    	je     3e4d <e1000_clean_tx_irq+0x43d>
    3abf:	45 89 e6             	mov    %r12d,%r14d
    3ac2:	44 89 f2             	mov    %r14d,%edx
    3ac5:	45 8d 66 01          	lea    0x1(%r14),%r12d
    3ac9:	48 89 d1             	mov    %rdx,%rcx
    3acc:	48 8d 34 92          	lea    (%rdx,%rdx,4),%rsi
    3ad0:	49 8b 57 20          	mov    0x20(%r15),%rdx
    3ad4:	48 c1 e1 04          	shl    $0x4,%rcx
    3ad8:	49 03 0f             	add    (%r15),%rcx
    3adb:	48 8d 34 f2          	lea    (%rdx,%rsi,8),%rsi
    3adf:	45 39 ee             	cmp    %r13d,%r14d
    3ae2:	75 a8                	jne    3a8c <e1000_clean_tx_irq+0x7c>
    3ae4:	0f b7 56 1e          	movzwl 0x1e(%rsi),%edx
    3ae8:	01 55 b8             	add    %edx,-0x48(%rbp)
    3aeb:	48 8b 16             	mov    (%rsi),%rdx
    3aee:	8b 7e 20             	mov    0x20(%rsi),%edi
    3af1:	48 89 4d c8          	mov    %rcx,-0x38(%rbp)
    3af5:	01 7d bc             	add    %edi,-0x44(%rbp)
    3af8:	48 85 d2             	test   %rdx,%rdx
    3afb:	0f 84 84 01 00 00    	je     3c85 <e1000_clean_tx_irq+0x275>
    3b01:	8b 7a 70             	mov    0x70(%rdx),%edi
    3b04:	01 7d b0             	add    %edi,-0x50(%rbp)
    3b07:	ba 40 00 00 00       	mov    $0x40,%edx
    3b0c:	48 8b 7d c0          	mov    -0x40(%rbp),%rdi
    3b10:	e8 db d9 ff ff       	call   14f0 <e1000_unmap_and_free_tx_resource>
    3b15:	48 8b 4d c8          	mov    -0x38(%rbp),%rcx
    3b19:	c7 41 0c 00 00 00 00 	movl   $0x0,0xc(%rcx)
    3b20:	45 39 67 14          	cmp    %r12d,0x14(%r15)
    3b24:	75 8d                	jne    3ab3 <e1000_clean_tx_irq+0xa3>
    3b26:	83 c3 01             	add    $0x1,%ebx
    3b29:	31 d2                	xor    %edx,%edx
    3b2b:	45 31 f6             	xor    %r14d,%r14d
    3b2e:	49 8b 4f 20          	mov    0x20(%r15),%rcx
    3b32:	44 0f b7 6c 11 1a    	movzwl 0x1a(%rcx,%rdx,1),%r13d
    3b38:	4c 89 ea             	mov    %r13,%rdx
    3b3b:	48 c1 e2 04          	shl    $0x4,%rdx
    3b3f:	49 03 17             	add    (%r15),%rdx
    3b42:	f6 42 0c 01          	testb  $0x1,0xc(%rdx)
    3b46:	0f 85 34 ff ff ff    	jne    3a80 <e1000_clean_tx_irq+0x70>
    3b4c:	89 5d c8             	mov    %ebx,-0x38(%rbp)
    3b4f:	4d 89 fc             	mov    %r15,%r12
    3b52:	8b 7d b0             	mov    -0x50(%rbp),%edi
    3b55:	44 8b 7d bc          	mov    -0x44(%rbp),%r15d
    3b59:	8b 5d b8             	mov    -0x48(%rbp),%ebx
    3b5c:	48 8b 45 a8          	mov    -0x58(%rbp),%rax
    3b60:	45 89 74 24 1c       	mov    %r14d,0x1c(%r12)
    3b65:	4c 8b 40 18          	mov    0x18(%rax),%r8
    3b69:	85 ff                	test   %edi,%edi
    3b6b:	74 49                	je     3bb6 <e1000_clean_tx_irq+0x1a6>
    3b6d:	4d 8d 88 00 01 00 00 	lea    0x100(%r8),%r9
    3b74:	89 fe                	mov    %edi,%esi
    3b76:	48 89 55 a0          	mov    %rdx,-0x60(%rbp)
    3b7a:	4c 89 cf             	mov    %r9,%rdi
    3b7d:	4c 89 45 b0          	mov    %r8,-0x50(%rbp)
    3b81:	e8 00 00 00 00       	call   3b86 <e1000_clean_tx_irq+0x176>
    3b86:	f0 83 44 24 fc 00    	lock addl $0x0,-0x4(%rsp)
    3b8c:	4c 8b 45 b0          	mov    -0x50(%rbp),%r8
    3b90:	48 8b 55 a0          	mov    -0x60(%rbp),%rdx
    3b94:	41 8b b8 04 01 00 00 	mov    0x104(%r8),%edi
    3b9b:	41 8b b0 00 01 00 00 	mov    0x100(%r8),%esi
    3ba2:	39 f7                	cmp    %esi,%edi
    3ba4:	78 10                	js     3bb6 <e1000_clean_tx_irq+0x1a6>
    3ba6:	f0 49 0f ba b0 d0 00 	lock btrq $0x1,0xd0(%r8)
    3bad:	00 00 01 
    3bb0:	0f 82 13 01 00 00    	jb     3cc9 <e1000_clean_tx_irq+0x2b9>
    3bb6:	8b 45 c8             	mov    -0x38(%rbp),%eax
    3bb9:	85 c0                	test   %eax,%eax
    3bbb:	0f 85 23 01 00 00    	jne    3ce4 <e1000_clean_tx_irq+0x2d4>
    3bc1:	48 8b 45 c0          	mov    -0x40(%rbp),%rax
    3bc5:	44 0f b6 80 91 02 00 	movzbl 0x291(%rax),%r8d
    3bcc:	00 
    3bcd:	41 80 f8 01          	cmp    $0x1,%r8b
    3bd1:	0f 87 00 00 00 00    	ja     3bd7 <e1000_clean_tx_irq+0x1c7>
    3bd7:	41 83 e0 01          	and    $0x1,%r8d
    3bdb:	74 4e                	je     3c2b <e1000_clean_tx_irq+0x21b>
    3bdd:	48 8b 45 c0          	mov    -0x40(%rbp),%rax
    3be1:	44 89 ee             	mov    %r13d,%esi
    3be4:	48 8d 34 b6          	lea    (%rsi,%rsi,4),%rsi
    3be8:	c6 80 91 02 00 00 00 	movb   $0x0,0x291(%rax)
    3bef:	49 8b 7c 24 20       	mov    0x20(%r12),%rdi
    3bf4:	48 c1 e6 03          	shl    $0x3,%rsi
    3bf8:	4c 8b 44 37 10       	mov    0x10(%rdi,%rsi,1),%r8
    3bfd:	4d 85 c0             	test   %r8,%r8
    3c00:	74 29                	je     3c2b <e1000_clean_tx_irq+0x21b>
    3c02:	0f b6 b8 88 02 00 00 	movzbl 0x288(%rax),%edi
    3c09:	48 c7 45 d0 00 00 00 	movq   $0x0,-0x30(%rbp)
    3c10:	00 
    3c11:	4c 8b 0d 00 00 00 00 	mov    0x0(%rip),%r9        # 3c18 <e1000_clean_tx_irq+0x208>
    3c18:	48 69 ff e8 03 00 00 	imul   $0x3e8,%rdi,%rdi
    3c1f:	4c 29 cf             	sub    %r9,%rdi
    3c22:	4c 01 c7             	add    %r8,%rdi
    3c25:	0f 88 44 01 00 00    	js     3d6f <e1000_clean_tx_irq+0x35f>
    3c2b:	48 8b 45 c0          	mov    -0x40(%rbp),%rax
    3c2f:	8b 7d bc             	mov    -0x44(%rbp),%edi
    3c32:	01 b8 20 02 00 00    	add    %edi,0x220(%rax)
    3c38:	8b 7d b8             	mov    -0x48(%rbp),%edi
    3c3b:	01 b8 24 02 00 00    	add    %edi,0x224(%rax)
    3c41:	48 8b 45 a8          	mov    -0x58(%rbp),%rax
    3c45:	4c 01 b8 48 02 00 00 	add    %r15,0x248(%rax)
    3c4c:	48 01 98 38 02 00 00 	add    %rbx,0x238(%rax)
    3c53:	8b 45 c8             	mov    -0x38(%rbp),%eax
    3c56:	41 3b 44 24 14       	cmp    0x14(%r12),%eax
    3c5b:	0f 92 c0             	setb   %al
    3c5e:	48 8d 65 d8          	lea    -0x28(%rbp),%rsp
    3c62:	5b                   	pop    %rbx
    3c63:	41 5c                	pop    %r12
    3c65:	41 5d                	pop    %r13
    3c67:	41 5e                	pop    %r14
    3c69:	41 5f                	pop    %r15
    3c6b:	5d                   	pop    %rbp
    3c6c:	31 d2                	xor    %edx,%edx
    3c6e:	31 c9                	xor    %ecx,%ecx
    3c70:	31 f6                	xor    %esi,%esi
    3c72:	31 ff                	xor    %edi,%edi
    3c74:	45 31 c0             	xor    %r8d,%r8d
    3c77:	45 31 c9             	xor    %r9d,%r9d
    3c7a:	45 31 d2             	xor    %r10d,%r10d
    3c7d:	45 31 db             	xor    %r11d,%r11d
    3c80:	e9 00 00 00 00       	jmp    3c85 <e1000_clean_tx_irq+0x275>
    3c85:	48 8b 7d c0          	mov    -0x40(%rbp),%rdi
    3c89:	ba 40 00 00 00       	mov    $0x40,%edx
    3c8e:	e8 5d d8 ff ff       	call   14f0 <e1000_unmap_and_free_tx_resource>
    3c93:	48 8b 4d c8          	mov    -0x38(%rbp),%rcx
    3c97:	c7 41 0c 00 00 00 00 	movl   $0x0,0xc(%rcx)
    3c9e:	45 39 67 14          	cmp    %r12d,0x14(%r15)
    3ca2:	0f 84 7e fe ff ff    	je     3b26 <e1000_clean_tx_irq+0x116>
    3ca8:	44 89 e0             	mov    %r12d,%eax
    3cab:	83 c3 01             	add    $0x1,%ebx
    3cae:	45 89 e6             	mov    %r12d,%r14d
    3cb1:	48 8d 14 80          	lea    (%rax,%rax,4),%rdx
    3cb5:	48 c1 e2 03          	shl    $0x3,%rdx
    3cb9:	e9 70 fe ff ff       	jmp    3b2e <e1000_clean_tx_irq+0x11e>
    3cbe:	83 c3 01             	add    $0x1,%ebx
    3cc1:	45 31 e4             	xor    %r12d,%r12d
    3cc4:	e9 f6 fd ff ff       	jmp    3abf <e1000_clean_tx_irq+0xaf>
    3cc9:	4c 89 c7             	mov    %r8,%rdi
    3ccc:	48 89 55 b0          	mov    %rdx,-0x50(%rbp)
    3cd0:	e8 00 00 00 00       	call   3cd5 <e1000_clean_tx_irq+0x2c5>
    3cd5:	8b 45 c8             	mov    -0x38(%rbp),%eax
    3cd8:	48 8b 55 b0          	mov    -0x50(%rbp),%rdx
    3cdc:	85 c0                	test   %eax,%eax
    3cde:	0f 84 dd fe ff ff    	je     3bc1 <e1000_clean_tx_irq+0x1b1>
    3ce4:	48 8b 45 a8          	mov    -0x58(%rbp),%rax
    3ce8:	48 8b b0 a8 00 00 00 	mov    0xa8(%rax),%rsi
    3cef:	83 e6 04             	and    $0x4,%esi
    3cf2:	0f 85 c9 fe ff ff    	jne    3bc1 <e1000_clean_tx_irq+0x1b1>
    3cf8:	41 8b 74 24 1c       	mov    0x1c(%r12),%esi
    3cfd:	45 8b 44 24 18       	mov    0x18(%r12),%r8d
    3d02:	31 ff                	xor    %edi,%edi
    3d04:	41 39 f0             	cmp    %esi,%r8d
    3d07:	72 05                	jb     3d0e <e1000_clean_tx_irq+0x2fe>
    3d09:	41 8b 7c 24 14       	mov    0x14(%r12),%edi
    3d0e:	83 ee 01             	sub    $0x1,%esi
    3d11:	44 29 c6             	sub    %r8d,%esi
    3d14:	01 fe                	add    %edi,%esi
    3d16:	83 fe 1f             	cmp    $0x1f,%esi
    3d19:	0f 86 a2 fe ff ff    	jbe    3bc1 <e1000_clean_tx_irq+0x1b1>
    3d1f:	f0 83 44 24 fc 00    	lock addl $0x0,-0x4(%rsp)
    3d25:	48 8b 45 a8          	mov    -0x58(%rbp),%rax
    3d29:	48 8b 78 18          	mov    0x18(%rax),%rdi
    3d2d:	48 8b b7 d0 00 00 00 	mov    0xd0(%rdi),%rsi
    3d34:	83 e6 01             	and    $0x1,%esi
    3d37:	0f 84 84 fe ff ff    	je     3bc1 <e1000_clean_tx_irq+0x1b1>
    3d3d:	48 8b 45 c0          	mov    -0x40(%rbp),%rax
    3d41:	48 8b b0 70 08 00 00 	mov    0x870(%rax),%rsi
    3d48:	40 80 e6 04          	and    $0x4,%sil
    3d4c:	0f 85 6f fe ff ff    	jne    3bc1 <e1000_clean_tx_irq+0x1b1>
    3d52:	48 89 55 b0          	mov    %rdx,-0x50(%rbp)
    3d56:	e8 00 00 00 00       	call   3d5b <e1000_clean_tx_irq+0x34b>
    3d5b:	48 8b 45 c0          	mov    -0x40(%rbp),%rax
    3d5f:	48 8b 55 b0          	mov    -0x50(%rbp),%rdx
    3d63:	83 80 48 02 00 00 01 	addl   $0x1,0x248(%rax)
    3d6a:	e9 52 fe ff ff       	jmp    3bc1 <e1000_clean_tx_irq+0x1b1>
    3d6f:	48 8b b8 88 04 00 00 	mov    0x488(%rax),%rdi
    3d76:	48 89 7d b0          	mov    %rdi,-0x50(%rbp)
    3d7a:	48 83 c7 08          	add    $0x8,%rdi
    3d7e:	8b 3f                	mov    (%rdi),%edi
    3d80:	83 e7 10             	and    $0x10,%edi
    3d83:	0f 85 a2 fe ff ff    	jne    3c2b <e1000_clean_tx_irq+0x21b>
    3d89:	f6 80 68 08 00 00 01 	testb  $0x1,0x868(%rax)
    3d90:	75 36                	jne    3dc8 <e1000_clean_tx_irq+0x3b8>
    3d92:	48 8b 7d c0          	mov    -0x40(%rbp),%rdi
    3d96:	e8 45 c7 ff ff       	call   4e0 <e1000_dump>
    3d9b:	48 8b 45 a8          	mov    -0x58(%rbp),%rax
    3d9f:	48 8b 0d 00 00 00 00 	mov    0x0(%rip),%rcx        # 3da6 <e1000_clean_tx_irq+0x396>
    3da6:	48 8b 50 18          	mov    0x18(%rax),%rdx
    3daa:	48 89 8a c8 00 00 00 	mov    %rcx,0xc8(%rdx)
    3db1:	f0 80 8a d0 00 00 00 	lock orb $0x1,0xd0(%rdx)
    3db8:	01 
    3db9:	e9 6d fe ff ff       	jmp    3c2b <e1000_clean_tx_irq+0x21b>
    3dbe:	31 db                	xor    %ebx,%ebx
    3dc0:	45 31 ff             	xor    %r15d,%r15d
    3dc3:	e9 94 fd ff ff       	jmp    3b5c <e1000_clean_tx_irq+0x14c>
    3dc8:	44 0f b6 5a 0c       	movzbl 0xc(%rdx),%r11d
    3dcd:	4c 8b 75 c0          	mov    -0x40(%rbp),%r14
    3dd1:	49 8b 54 24 20       	mov    0x20(%r12),%rdx
    3dd6:	48 8b 0d 00 00 00 00 	mov    0x0(%rip),%rcx        # 3ddd <e1000_clean_tx_irq+0x3cd>
    3ddd:	41 8b 44 24 1c       	mov    0x1c(%r12),%eax
    3de2:	45 8b 4c 24 18       	mov    0x18(%r12),%r9d
    3de7:	4c 8b 54 32 10       	mov    0x10(%rdx,%rsi,1),%r10
    3dec:	41 0f b7 54 24 2a    	movzwl 0x2a(%r12),%edx
    3df2:	49 03 96 88 04 00 00 	add    0x488(%r14),%rdx
    3df9:	44 8b 02             	mov    (%rdx),%r8d
    3dfc:	41 0f b7 54 24 28    	movzwl 0x28(%r12),%edx
    3e02:	49 03 96 88 04 00 00 	add    0x488(%r14),%rdx
    3e09:	8b 32                	mov    (%rdx),%esi
    3e0b:	48 bf ab aa aa aa aa 	movabs $0xaaaaaaaaaaaaaaab,%rdi
    3e12:	aa aa aa 
    3e15:	4c 89 e2             	mov    %r12,%rdx
    3e18:	49 2b 96 40 02 00 00 	sub    0x240(%r14),%rdx
    3e1f:	48 c1 fa 04          	sar    $0x4,%rdx
    3e23:	48 0f af d7          	imul   %rdi,%rdx
    3e27:	49 8b be 78 04 00 00 	mov    0x478(%r14),%rdi
    3e2e:	41 53                	push   %r11
    3e30:	51                   	push   %rcx
    3e31:	89 f1                	mov    %esi,%ecx
    3e33:	48 c7 c6 00 00 00 00 	mov    $0x0,%rsi
    3e3a:	41 55                	push   %r13
    3e3c:	41 52                	push   %r10
    3e3e:	50                   	push   %rax
    3e3f:	e8 00 00 00 00       	call   3e44 <e1000_clean_tx_irq+0x434>
    3e44:	48 83 c4 28          	add    $0x28,%rsp
    3e48:	e9 45 ff ff ff       	jmp    3d92 <e1000_clean_tx_irq+0x382>
    3e4d:	44 89 e2             	mov    %r12d,%edx
    3e50:	45 89 e6             	mov    %r12d,%r14d
    3e53:	48 6b d2 28          	imul   $0x28,%rdx,%rdx
    3e57:	e9 d2 fc ff ff       	jmp    3b2e <e1000_clean_tx_irq+0x11e>
    3e5c:	0f 1f 40 00          	nopl   0x0(%rax)

0000000000003e60 <__pfx_e1000_clean>:
    3e60:	90                   	nop
    3e61:	90                   	nop
    3e62:	90                   	nop
    3e63:	90                   	nop
    3e64:	90                   	nop
    3e65:	90                   	nop
    3e66:	90                   	nop
    3e67:	90                   	nop
    3e68:	90                   	nop
    3e69:	90                   	nop
    3e6a:	90                   	nop
    3e6b:	90                   	nop
    3e6c:	90                   	nop
    3e6d:	90                   	nop
    3e6e:	90                   	nop
    3e6f:	90                   	nop

0000000000003e70 <e1000_clean>:
    3e70:	e8 00 00 00 00       	call   3e75 <e1000_clean+0x5>
    3e75:	55                   	push   %rbp
    3e76:	48 89 e5             	mov    %rsp,%rbp
    3e79:	41 57                	push   %r15
    3e7b:	41 56                	push   %r14
    3e7d:	4c 8d b7 50 fd ff ff 	lea    -0x2b0(%rdi),%r14
    3e84:	41 55                	push   %r13
    3e86:	41 54                	push   %r12
    3e88:	41 89 f4             	mov    %esi,%r12d
    3e8b:	53                   	push   %rbx
    3e8c:	48 89 fb             	mov    %rdi,%rbx
    3e8f:	48 83 ec 18          	sub    $0x18,%rsp
    3e93:	48 8b 77 90          	mov    -0x70(%rdi),%rsi
    3e97:	4c 89 f7             	mov    %r14,%rdi
    3e9a:	65 48 8b 04 25 28 00 	mov    %gs:0x28,%rax
    3ea1:	00 00 
    3ea3:	48 89 45 d0          	mov    %rax,-0x30(%rbp)
    3ea7:	31 c0                	xor    %eax,%eax
    3ea9:	c7 45 cc 00 00 00 00 	movl   $0x0,-0x34(%rbp)
    3eb0:	e8 5b fb ff ff       	call   3a10 <e1000_clean_tx_irq>
    3eb5:	48 8b 73 f8          	mov    -0x8(%rbx),%rsi
    3eb9:	44 89 e1             	mov    %r12d,%ecx
    3ebc:	48 8d 55 cc          	lea    -0x34(%rbp),%rdx
    3ec0:	41 89 c5             	mov    %eax,%r13d
    3ec3:	4c 89 f7             	mov    %r14,%rdi
    3ec6:	48 8b 43 e8          	mov    -0x18(%rbx),%rax
    3eca:	e8 00 00 00 00       	call   3ecf <e1000_clean+0x5f>
    3ecf:	45 84 ed             	test   %r13b,%r13b
    3ed2:	0f 84 0d 01 00 00    	je     3fe5 <e1000_clean+0x175>
    3ed8:	8b 75 cc             	mov    -0x34(%rbp),%esi
    3edb:	44 39 e6             	cmp    %r12d,%esi
    3ede:	0f 84 01 01 00 00    	je     3fe5 <e1000_clean+0x175>
    3ee4:	48 89 df             	mov    %rbx,%rdi
    3ee7:	e8 00 00 00 00       	call   3eec <e1000_clean+0x7c>
    3eec:	84 c0                	test   %al,%al
    3eee:	0f 84 ed 00 00 00    	je     3fe1 <e1000_clean+0x171>
    3ef4:	44 8b 43 84          	mov    -0x7c(%rbx),%r8d
    3ef8:	41 f6 c0 03          	test   $0x3,%r8b
    3efc:	44 89 45 c4          	mov    %r8d,-0x3c(%rbp)
    3f00:	0f 84 b4 00 00 00    	je     3fba <e1000_clean+0x14a>
    3f06:	83 bb f0 01 00 00 04 	cmpl   $0x4,0x1f0(%rbx)
    3f0d:	44 8b 6b 80          	mov    -0x80(%rbx),%r13d
    3f11:	0f 86 a3 00 00 00    	jbe    3fba <e1000_clean+0x14a>
    3f17:	66 81 bb 68 ff ff ff 	cmpw   $0x3e8,-0x98(%rbx)
    3f1e:	e8 03 
    3f20:	0f 85 58 01 00 00    	jne    407e <e1000_clean+0x20e>
    3f26:	0f b7 73 88          	movzwl -0x78(%rbx),%esi
    3f2a:	8b 8b 70 ff ff ff    	mov    -0x90(%rbx),%ecx
    3f30:	4c 89 f7             	mov    %r14,%rdi
    3f33:	8b 93 74 ff ff ff    	mov    -0x8c(%rbx),%edx
    3f39:	e8 82 c8 ff ff       	call   7c0 <e1000_update_itr>
    3f3e:	44 8b 45 c4          	mov    -0x3c(%rbp),%r8d
    3f42:	66 89 43 88          	mov    %ax,-0x78(%rbx)
    3f46:	41 89 c4             	mov    %eax,%r12d
    3f49:	41 89 c7             	mov    %eax,%r15d
    3f4c:	41 83 f8 03          	cmp    $0x3,%r8d
    3f50:	41 0f 94 c0          	sete   %r8b
    3f54:	66 85 c0             	test   %ax,%ax
    3f57:	75 09                	jne    3f62 <e1000_clean+0xf2>
    3f59:	45 84 c0             	test   %r8b,%r8b
    3f5c:	0f 85 33 01 00 00    	jne    4095 <e1000_clean+0x225>
    3f62:	8b 93 7c ff ff ff    	mov    -0x84(%rbx),%edx
    3f68:	0f b7 73 8a          	movzwl -0x76(%rbx),%esi
    3f6c:	4c 89 f7             	mov    %r14,%rdi
    3f6f:	44 88 45 c4          	mov    %r8b,-0x3c(%rbp)
    3f73:	8b 8b 78 ff ff ff    	mov    -0x88(%rbx),%ecx
    3f79:	e8 42 c8 ff ff       	call   7c0 <e1000_update_itr>
    3f7e:	66 89 43 8a          	mov    %ax,-0x76(%rbx)
    3f82:	89 c2                	mov    %eax,%edx
    3f84:	66 85 c0             	test   %ax,%ax
    3f87:	75 0e                	jne    3f97 <e1000_clean+0x127>
    3f89:	44 0f b6 45 c4       	movzbl -0x3c(%rbp),%r8d
    3f8e:	45 84 c0             	test   %r8b,%r8b
    3f91:	0f 85 cc 00 00 00    	jne    4063 <e1000_clean+0x1f3>
    3f97:	66 41 39 d7          	cmp    %dx,%r15w
    3f9b:	89 d0                	mov    %edx,%eax
    3f9d:	41 0f 43 c7          	cmovae %r15d,%eax
    3fa1:	66 83 f8 01          	cmp    $0x1,%ax
    3fa5:	0f 84 e3 00 00 00    	je     408e <e1000_clean+0x21e>
    3fab:	66 83 f8 02          	cmp    $0x2,%ax
    3faf:	0f 84 c9 00 00 00    	je     407e <e1000_clean+0x20e>
    3fb5:	66 85 c0             	test   %ax,%ax
    3fb8:	74 5f                	je     4019 <e1000_clean+0x1a9>
    3fba:	48 8b 83 c0 05 00 00 	mov    0x5c0(%rbx),%rax
    3fc1:	a8 04                	test   $0x4,%al
    3fc3:	75 1c                	jne    3fe1 <e1000_clean+0x171>
    3fc5:	48 8b 83 d8 01 00 00 	mov    0x1d8(%rbx),%rax
    3fcc:	ba 9d 00 00 00       	mov    $0x9d,%edx
    3fd1:	89 90 d0 00 00 00    	mov    %edx,0xd0(%rax)
    3fd7:	48 8b 83 d8 01 00 00 	mov    0x1d8(%rbx),%rax
    3fde:	8b 40 08             	mov    0x8(%rax),%eax
    3fe1:	44 8b 65 cc          	mov    -0x34(%rbp),%r12d
    3fe5:	48 8b 45 d0          	mov    -0x30(%rbp),%rax
    3fe9:	65 48 2b 04 25 28 00 	sub    %gs:0x28,%rax
    3ff0:	00 00 
    3ff2:	0f 85 d4 00 00 00    	jne    40cc <e1000_clean+0x25c>
    3ff8:	48 83 c4 18          	add    $0x18,%rsp
    3ffc:	44 89 e0             	mov    %r12d,%eax
    3fff:	5b                   	pop    %rbx
    4000:	41 5c                	pop    %r12
    4002:	41 5d                	pop    %r13
    4004:	41 5e                	pop    %r14
    4006:	41 5f                	pop    %r15
    4008:	5d                   	pop    %rbp
    4009:	31 d2                	xor    %edx,%edx
    400b:	31 c9                	xor    %ecx,%ecx
    400d:	31 f6                	xor    %esi,%esi
    400f:	31 ff                	xor    %edi,%edi
    4011:	45 31 c0             	xor    %r8d,%r8d
    4014:	e9 00 00 00 00       	jmp    4019 <e1000_clean+0x1a9>
    4019:	b8 70 11 01 00       	mov    $0x11170,%eax
    401e:	41 39 c5             	cmp    %eax,%r13d
    4021:	74 97                	je     3fba <e1000_clean+0x14a>
    4023:	73 0d                	jae    4032 <e1000_clean+0x1c2>
    4025:	89 c2                	mov    %eax,%edx
    4027:	c1 ea 02             	shr    $0x2,%edx
    402a:	44 01 ea             	add    %r13d,%edx
    402d:	39 d0                	cmp    %edx,%eax
    402f:	0f 47 c2             	cmova  %edx,%eax
    4032:	48 8b 8b d8 01 00 00 	mov    0x1d8(%rbx),%rcx
    4039:	89 43 80             	mov    %eax,-0x80(%rbx)
    403c:	c1 e0 08             	shl    $0x8,%eax
    403f:	31 d2                	xor    %edx,%edx
    4041:	48 8d b1 c4 00 00 00 	lea    0xc4(%rcx),%rsi
    4048:	89 c1                	mov    %eax,%ecx
    404a:	b8 00 ca 9a 3b       	mov    $0x3b9aca00,%eax
    404f:	f7 f1                	div    %ecx
    4051:	89 06                	mov    %eax,(%rsi)
    4053:	48 8b 83 c0 05 00 00 	mov    0x5c0(%rbx),%rax
    405a:	a8 04                	test   $0x4,%al
    405c:	75 83                	jne    3fe1 <e1000_clean+0x171>
    405e:	e9 62 ff ff ff       	jmp    3fc5 <e1000_clean+0x155>
    4063:	ba 01 00 00 00       	mov    $0x1,%edx
    4068:	66 89 53 8a          	mov    %dx,-0x76(%rbx)
    406c:	66 41 83 fc 01       	cmp    $0x1,%r12w
    4071:	76 1b                	jbe    408e <e1000_clean+0x21e>
    4073:	66 41 83 fc 02       	cmp    $0x2,%r12w
    4078:	0f 85 3c ff ff ff    	jne    3fba <e1000_clean+0x14a>
    407e:	b8 a0 0f 00 00       	mov    $0xfa0,%eax
    4083:	eb 99                	jmp    401e <e1000_clean+0x1ae>
    4085:	b8 01 00 00 00       	mov    $0x1,%eax
    408a:	66 89 43 8a          	mov    %ax,-0x76(%rbx)
    408e:	b8 20 4e 00 00       	mov    $0x4e20,%eax
    4093:	eb 89                	jmp    401e <e1000_clean+0x1ae>
    4095:	b9 01 00 00 00       	mov    $0x1,%ecx
    409a:	8b 93 7c ff ff ff    	mov    -0x84(%rbx),%edx
    40a0:	0f b7 73 8a          	movzwl -0x76(%rbx),%esi
    40a4:	4c 89 f7             	mov    %r14,%rdi
    40a7:	66 89 4b 88          	mov    %cx,-0x78(%rbx)
    40ab:	8b 8b 78 ff ff ff    	mov    -0x88(%rbx),%ecx
    40b1:	e8 0a c7 ff ff       	call   7c0 <e1000_update_itr>
    40b6:	66 89 43 8a          	mov    %ax,-0x76(%rbx)
    40ba:	89 c2                	mov    %eax,%edx
    40bc:	66 85 c0             	test   %ax,%ax
    40bf:	74 c4                	je     4085 <e1000_clean+0x215>
    40c1:	41 bf 01 00 00 00    	mov    $0x1,%r15d
    40c7:	e9 cb fe ff ff       	jmp    3f97 <e1000_clean+0x127>
    40cc:	e8 00 00 00 00       	call   40d1 <e1000_clean+0x261>
    40d1:	66 66 2e 0f 1f 84 00 	data16 cs nopw 0x0(%rax,%rax,1)
    40d8:	00 00 00 00 
    40dc:	0f 1f 40 00          	nopl   0x0(%rax)

00000000000040e0 <__pfx_e1000_alloc_rx_buffers>:
    40e0:	90                   	nop
    40e1:	90                   	nop
    40e2:	90                   	nop
    40e3:	90                   	nop
    40e4:	90                   	nop
    40e5:	90                   	nop
    40e6:	90                   	nop
    40e7:	90                   	nop
    40e8:	90                   	nop
    40e9:	90                   	nop
    40ea:	90                   	nop
    40eb:	90                   	nop
    40ec:	90                   	nop
    40ed:	90                   	nop
    40ee:	90                   	nop
    40ef:	90                   	nop

00000000000040f0 <e1000_alloc_rx_buffers>:
    40f0:	e8 00 00 00 00       	call   40f5 <e1000_alloc_rx_buffers+0x5>
    40f5:	55                   	push   %rbp
    40f6:	48 89 e5             	mov    %rsp,%rbp
    40f9:	41 57                	push   %r15
    40fb:	41 56                	push   %r14
    40fd:	41 55                	push   %r13
    40ff:	41 54                	push   %r12
    4101:	53                   	push   %rbx
    4102:	48 83 ec 28          	sub    $0x28,%rsp
    4106:	8b 5e 18             	mov    0x18(%rsi),%ebx
    4109:	4c 8b 97 80 04 00 00 	mov    0x480(%rdi),%r10
    4110:	44 8b 87 08 02 00 00 	mov    0x208(%rdi),%r8d
    4117:	49 89 dc             	mov    %rbx,%r12
    411a:	48 c1 e3 04          	shl    $0x4,%rbx
    411e:	48 03 5e 20          	add    0x20(%rsi),%rbx
    4122:	85 d2                	test   %edx,%edx
    4124:	0f 84 51 02 00 00    	je     437b <e1000_alloc_rx_buffers+0x28b>
    412a:	89 55 d0             	mov    %edx,-0x30(%rbp)
    412d:	49 89 ff             	mov    %rdi,%r15
    4130:	49 89 f6             	mov    %rsi,%r14
    4133:	4c 89 55 b8          	mov    %r10,-0x48(%rbp)
    4137:	44 89 45 b4          	mov    %r8d,-0x4c(%rbp)
    413b:	eb 34                	jmp    4171 <e1000_alloc_rx_buffers+0x81>
    413d:	48 8b 73 08          	mov    0x8(%rbx),%rsi
    4141:	44 89 e0             	mov    %r12d,%eax
    4144:	41 83 c4 01          	add    $0x1,%r12d
    4148:	48 c1 e0 04          	shl    $0x4,%rax
    414c:	49 03 06             	add    (%r14),%rax
    414f:	48 89 30             	mov    %rsi,(%rax)
    4152:	45 39 66 14          	cmp    %r12d,0x14(%r14)
    4156:	0f 84 45 02 00 00    	je     43a1 <e1000_alloc_rx_buffers+0x2b1>
    415c:	44 89 e3             	mov    %r12d,%ebx
    415f:	48 c1 e3 04          	shl    $0x4,%rbx
    4163:	49 03 5e 20          	add    0x20(%r14),%rbx
    4167:	83 6d d0 01          	subl   $0x1,-0x30(%rbp)
    416b:	0f 84 e4 01 00 00    	je     4355 <e1000_alloc_rx_buffers+0x265>
    4171:	48 83 3b 00          	cmpq   $0x0,(%rbx)
    4175:	75 c6                	jne    413d <e1000_alloc_rx_buffers+0x4d>
    4177:	41 8b 87 08 02 00 00 	mov    0x208(%r15),%eax
    417e:	be ff ff ff ff       	mov    $0xffffffff,%esi
    4183:	8d 78 7f             	lea    0x7f(%rax),%edi
    4186:	83 e7 c0             	and    $0xffffffc0,%edi
    4189:	81 c7 40 01 00 00    	add    $0x140,%edi
    418f:	e8 00 00 00 00       	call   4194 <e1000_alloc_rx_buffers+0xa4>
    4194:	49 89 c5             	mov    %rax,%r13
    4197:	48 85 c0             	test   %rax,%rax
    419a:	0f 84 dc 02 00 00    	je     447c <e1000_alloc_rx_buffers+0x38c>
    41a0:	49 83 c5 40          	add    $0x40,%r13
    41a4:	0f 84 d2 02 00 00    	je     447c <e1000_alloc_rx_buffers+0x38c>
    41aa:	41 8b 87 a0 04 00 00 	mov    0x4a0(%r15),%eax
    41b1:	8d 50 f8             	lea    -0x8(%rax),%edx
    41b4:	83 fa 01             	cmp    $0x1,%edx
    41b7:	0f 86 bb 00 00 00    	jbe    4278 <e1000_alloc_rx_buffers+0x188>
    41bd:	83 f8 06             	cmp    $0x6,%eax
    41c0:	0f 84 b2 00 00 00    	je     4278 <e1000_alloc_rx_buffers+0x188>
    41c6:	48 8b 45 b8          	mov    -0x48(%rbp),%rax
    41ca:	41 8b 8f 08 02 00 00 	mov    0x208(%r15),%ecx
    41d1:	4c 89 ef             	mov    %r13,%rdi
    41d4:	48 05 c8 00 00 00    	add    $0xc8,%rax
    41da:	48 89 4d c0          	mov    %rcx,-0x40(%rbp)
    41de:	48 89 45 c8          	mov    %rax,-0x38(%rbp)
    41e2:	e8 00 00 00 00       	call   41e7 <e1000_alloc_rx_buffers+0xf7>
    41e7:	48 8b 4d c0          	mov    -0x40(%rbp),%rcx
    41eb:	84 c0                	test   %al,%al
    41ed:	0f 85 07 02 00 00    	jne    43fa <e1000_alloc_rx_buffers+0x30a>
    41f3:	4c 89 ea             	mov    %r13,%rdx
    41f6:	be 00 00 00 80       	mov    $0x80000000,%esi
    41fb:	81 e2 ff 0f 00 00    	and    $0xfff,%edx
    4201:	4c 01 ee             	add    %r13,%rsi
    4204:	0f 82 b4 02 00 00    	jb     44be <e1000_alloc_rx_buffers+0x3ce>
    420a:	48 c7 c0 00 00 00 80 	mov    $0xffffffff80000000,%rax
    4211:	48 2b 05 00 00 00 00 	sub    0x0(%rip),%rax        # 4218 <e1000_alloc_rx_buffers+0x128>
    4218:	48 01 c6             	add    %rax,%rsi
    421b:	48 8b 7d c8          	mov    -0x38(%rbp),%rdi
    421f:	45 31 c9             	xor    %r9d,%r9d
    4222:	41 b8 02 00 00 00    	mov    $0x2,%r8d
    4228:	48 c1 ee 0c          	shr    $0xc,%rsi
    422c:	48 c1 e6 06          	shl    $0x6,%rsi
    4230:	48 03 35 00 00 00 00 	add    0x0(%rip),%rsi        # 4237 <e1000_alloc_rx_buffers+0x147>
    4237:	e8 00 00 00 00       	call   423c <e1000_alloc_rx_buffers+0x14c>
    423c:	48 89 43 08          	mov    %rax,0x8(%rbx)
    4240:	48 89 c6             	mov    %rax,%rsi
    4243:	48 83 f8 ff          	cmp    $0xffffffffffffffff,%rax
    4247:	0f 84 cc 01 00 00    	je     4419 <e1000_alloc_rx_buffers+0x329>
    424d:	41 8b 87 a0 04 00 00 	mov    0x4a0(%r15),%eax
    4254:	45 8b 8f 08 02 00 00 	mov    0x208(%r15),%r9d
    425b:	8d 50 f8             	lea    -0x8(%rax),%edx
    425e:	83 fa 01             	cmp    $0x1,%edx
    4261:	0f 86 9b 00 00 00    	jbe    4302 <e1000_alloc_rx_buffers+0x212>
    4267:	83 f8 06             	cmp    $0x6,%eax
    426a:	0f 84 92 00 00 00    	je     4302 <e1000_alloc_rx_buffers+0x212>
    4270:	4c 89 2b             	mov    %r13,(%rbx)
    4273:	e9 c9 fe ff ff       	jmp    4141 <e1000_alloc_rx_buffers+0x51>
    4278:	8b 45 b4             	mov    -0x4c(%rbp),%eax
    427b:	48 83 e8 01          	sub    $0x1,%rax
    427f:	48 89 45 c8          	mov    %rax,-0x38(%rbp)
    4283:	4c 01 e8             	add    %r13,%rax
    4286:	4c 31 e8             	xor    %r13,%rax
    4289:	48 c1 e8 10          	shr    $0x10,%rax
    428d:	0f 84 33 ff ff ff    	je     41c6 <e1000_alloc_rx_buffers+0xd6>
    4293:	41 f6 87 68 08 00 00 	testb  $0x40,0x868(%r15)
    429a:	40 
    429b:	0f 85 3b 01 00 00    	jne    43dc <e1000_alloc_rx_buffers+0x2ec>
    42a1:	41 8b 87 08 02 00 00 	mov    0x208(%r15),%eax
    42a8:	be ff ff ff ff       	mov    $0xffffffff,%esi
    42ad:	8d 78 7f             	lea    0x7f(%rax),%edi
    42b0:	83 e7 c0             	and    $0xffffffc0,%edi
    42b3:	81 c7 40 01 00 00    	add    $0x140,%edi
    42b9:	e8 00 00 00 00       	call   42be <e1000_alloc_rx_buffers+0x1ce>
    42be:	48 85 c0             	test   %rax,%rax
    42c1:	0f 84 ad 01 00 00    	je     4474 <e1000_alloc_rx_buffers+0x384>
    42c7:	48 83 c0 40          	add    $0x40,%rax
    42cb:	0f 84 a3 01 00 00    	je     4474 <e1000_alloc_rx_buffers+0x384>
    42d1:	41 8b 97 a0 04 00 00 	mov    0x4a0(%r15),%edx
    42d8:	8d 4a f8             	lea    -0x8(%rdx),%ecx
    42db:	83 f9 01             	cmp    $0x1,%ecx
    42de:	0f 86 c7 00 00 00    	jbe    43ab <e1000_alloc_rx_buffers+0x2bb>
    42e4:	83 fa 06             	cmp    $0x6,%edx
    42e7:	0f 84 be 00 00 00    	je     43ab <e1000_alloc_rx_buffers+0x2bb>
    42ed:	4c 89 ef             	mov    %r13,%rdi
    42f0:	48 89 45 c8          	mov    %rax,-0x38(%rbp)
    42f4:	e8 00 00 00 00       	call   42f9 <e1000_alloc_rx_buffers+0x209>
    42f9:	4c 8b 6d c8          	mov    -0x38(%rbp),%r13
    42fd:	e9 c4 fe ff ff       	jmp    41c6 <e1000_alloc_rx_buffers+0xd6>
    4302:	44 89 ca             	mov    %r9d,%edx
    4305:	48 8d 44 32 ff       	lea    -0x1(%rdx,%rsi,1),%rax
    430a:	48 31 f0             	xor    %rsi,%rax
    430d:	48 c1 e8 10          	shr    $0x10,%rax
    4311:	0f 84 59 ff ff ff    	je     4270 <e1000_alloc_rx_buffers+0x180>
    4317:	41 f6 87 68 08 00 00 	testb  $0x40,0x868(%r15)
    431e:	40 
    431f:	0f 85 70 01 00 00    	jne    4495 <e1000_alloc_rx_buffers+0x3a5>
    4325:	48 8b 7d c8          	mov    -0x38(%rbp),%rdi
    4329:	45 31 c0             	xor    %r8d,%r8d
    432c:	b9 02 00 00 00       	mov    $0x2,%ecx
    4331:	e8 00 00 00 00       	call   4336 <e1000_alloc_rx_buffers+0x246>
    4336:	4c 89 ef             	mov    %r13,%rdi
    4339:	e8 00 00 00 00       	call   433e <e1000_alloc_rx_buffers+0x24e>
    433e:	48 c7 03 00 00 00 00 	movq   $0x0,(%rbx)
    4345:	48 c7 43 08 00 00 00 	movq   $0x0,0x8(%rbx)
    434c:	00 
    434d:	41 83 87 58 04 00 00 	addl   $0x1,0x458(%r15)
    4354:	01 
    4355:	45 39 66 18          	cmp    %r12d,0x18(%r14)
    4359:	74 20                	je     437b <e1000_alloc_rx_buffers+0x28b>
    435b:	45 89 66 18          	mov    %r12d,0x18(%r14)
    435f:	41 8d 54 24 ff       	lea    -0x1(%r12),%edx
    4364:	45 85 e4             	test   %r12d,%r12d
    4367:	0f 84 1c 01 00 00    	je     4489 <e1000_alloc_rx_buffers+0x399>
    436d:	41 0f b7 46 36       	movzwl 0x36(%r14),%eax
    4372:	49 03 87 88 04 00 00 	add    0x488(%r15),%rax
    4379:	89 10                	mov    %edx,(%rax)
    437b:	48 83 c4 28          	add    $0x28,%rsp
    437f:	5b                   	pop    %rbx
    4380:	41 5c                	pop    %r12
    4382:	41 5d                	pop    %r13
    4384:	41 5e                	pop    %r14
    4386:	41 5f                	pop    %r15
    4388:	5d                   	pop    %rbp
    4389:	31 c0                	xor    %eax,%eax
    438b:	31 d2                	xor    %edx,%edx
    438d:	31 c9                	xor    %ecx,%ecx
    438f:	31 f6                	xor    %esi,%esi
    4391:	31 ff                	xor    %edi,%edi
    4393:	45 31 c0             	xor    %r8d,%r8d
    4396:	45 31 c9             	xor    %r9d,%r9d
    4399:	45 31 d2             	xor    %r10d,%r10d
    439c:	e9 00 00 00 00       	jmp    43a1 <e1000_alloc_rx_buffers+0x2b1>
    43a1:	31 db                	xor    %ebx,%ebx
    43a3:	45 31 e4             	xor    %r12d,%r12d
    43a6:	e9 b8 fd ff ff       	jmp    4163 <e1000_alloc_rx_buffers+0x73>
    43ab:	48 8b 55 c8          	mov    -0x38(%rbp),%rdx
    43af:	48 01 c2             	add    %rax,%rdx
    43b2:	48 31 c2             	xor    %rax,%rdx
    43b5:	48 c1 ea 10          	shr    $0x10,%rdx
    43b9:	0f 84 2e ff ff ff    	je     42ed <e1000_alloc_rx_buffers+0x1fd>
    43bf:	48 89 c7             	mov    %rax,%rdi
    43c2:	e8 00 00 00 00       	call   43c7 <e1000_alloc_rx_buffers+0x2d7>
