
nf_conntrack_netlink.ko:     file format elf64-x86-64


Disassembly of section .text:

0000000000000000 <expect_iter_all>:
       0:	e8 00 00 00 00       	call   5 <expect_iter_all+0x5>
       5:	55                   	push   %rbp
       6:	b8 01 00 00 00       	mov    $0x1,%eax
       b:	48 89 e5             	mov    %rsp,%rbp
       e:	5d                   	pop    %rbp
       f:	e9 00 00 00 00       	jmp    14 <expect_iter_all+0x14>
      14:	66 66 2e 0f 1f 84 00 	data16 cs nopw 0x0(%rax,%rax,1)
      1b:	00 00 00 00 
      1f:	90                   	nop

0000000000000020 <ctnetlink_glue_seqadj>:
      20:	e8 00 00 00 00       	call   25 <ctnetlink_glue_seqadj+0x5>
      25:	f6 86 80 00 00 00 30 	testb  $0x30,0x80(%rsi)
      2c:	75 05                	jne    33 <ctnetlink_glue_seqadj+0x13>
      2e:	e9 00 00 00 00       	jmp    33 <ctnetlink_glue_seqadj+0x13>
      33:	55                   	push   %rbp
      34:	48 89 e5             	mov    %rsp,%rbp
      37:	e8 00 00 00 00       	call   3c <ctnetlink_glue_seqadj+0x1c>
      3c:	5d                   	pop    %rbp
      3d:	e9 00 00 00 00       	jmp    42 <ctnetlink_glue_seqadj+0x22>
      42:	66 66 2e 0f 1f 84 00 	data16 cs nopw 0x0(%rax,%rax,1)
      49:	00 00 00 00 
      4d:	0f 1f 00             	nopl   (%rax)

0000000000000050 <ctnetlink_exp_done>:
      50:	e8 00 00 00 00       	call   55 <ctnetlink_exp_done+0x5>
      55:	48 8b 7f 58          	mov    0x58(%rdi),%rdi
      59:	48 85 ff             	test   %rdi,%rdi
      5c:	75 07                	jne    65 <ctnetlink_exp_done+0x15>
      5e:	31 c0                	xor    %eax,%eax
      60:	e9 00 00 00 00       	jmp    65 <ctnetlink_exp_done+0x15>
      65:	55                   	push   %rbp
      66:	48 89 e5             	mov    %rsp,%rbp
      69:	e8 00 00 00 00       	call   6e <ctnetlink_exp_done+0x1e>
      6e:	31 c0                	xor    %eax,%eax
      70:	5d                   	pop    %rbp
      71:	e9 00 00 00 00       	jmp    76 <ctnetlink_exp_done+0x26>
      76:	66 2e 0f 1f 84 00 00 	cs nopw 0x0(%rax,%rax,1)
      7d:	00 00 00 

0000000000000080 <ctnetlink_change_protoinfo>:
      80:	e8 00 00 00 00       	call   85 <ctnetlink_change_protoinfo+0x5>
      85:	55                   	push   %rbp
      86:	45 31 c9             	xor    %r9d,%r9d
      89:	49 c7 c0 00 00 00 00 	mov    $0x0,%r8
      90:	48 89 e5             	mov    %rsp,%rbp
      93:	41 55                	push   %r13
      95:	49 89 fd             	mov    %rdi,%r13
      98:	41 54                	push   %r12
      9a:	48 8d 7d c8          	lea    -0x38(%rbp),%rdi
      9e:	48 83 ec 28          	sub    $0x28,%rsp
      a2:	48 8b 56 20          	mov    0x20(%rsi),%rdx
      a6:	be 03 00 00 00       	mov    $0x3,%esi
      ab:	65 48 8b 04 25 28 00 	mov    %gs:0x28,%rax
      b2:	00 00 
      b4:	48 89 45 e8          	mov    %rax,-0x18(%rbp)
      b8:	31 c0                	xor    %eax,%eax
      ba:	0f b7 0a             	movzwl (%rdx),%ecx
      bd:	6a 00                	push   $0x0
      bf:	48 83 c2 04          	add    $0x4,%rdx
      c3:	83 e9 04             	sub    $0x4,%ecx
      c6:	e8 00 00 00 00       	call   cb <ctnetlink_change_protoinfo+0x4b>
      cb:	5a                   	pop    %rdx
      cc:	41 89 c4             	mov    %eax,%r12d
      cf:	85 c0                	test   %eax,%eax
      d1:	78 22                	js     f5 <ctnetlink_change_protoinfo+0x75>
      d3:	41 0f b6 7d 46       	movzbl 0x46(%r13),%edi
      d8:	e8 00 00 00 00       	call   dd <ctnetlink_change_protoinfo+0x5d>
      dd:	48 8b 40 18          	mov    0x18(%rax),%rax
      e1:	48 85 c0             	test   %rax,%rax
      e4:	74 0f                	je     f5 <ctnetlink_change_protoinfo+0x75>
      e6:	4c 89 ee             	mov    %r13,%rsi
      e9:	48 8d 7d c8          	lea    -0x38(%rbp),%rdi
      ed:	e8 00 00 00 00       	call   f2 <ctnetlink_change_protoinfo+0x72>
      f2:	41 89 c4             	mov    %eax,%r12d
      f5:	48 8b 45 e8          	mov    -0x18(%rbp),%rax
      f9:	65 48 33 04 25 28 00 	xor    %gs:0x28,%rax
     100:	00 00 
     102:	75 11                	jne    115 <ctnetlink_change_protoinfo+0x95>
     104:	48 8d 65 f0          	lea    -0x10(%rbp),%rsp
     108:	44 89 e0             	mov    %r12d,%eax
     10b:	41 5c                	pop    %r12
     10d:	41 5d                	pop    %r13
     10f:	5d                   	pop    %rbp
     110:	e9 00 00 00 00       	jmp    115 <ctnetlink_change_protoinfo+0x95>
     115:	e8 00 00 00 00       	call   11a <ctnetlink_change_protoinfo+0x9a>
     11a:	66 0f 1f 44 00 00    	nopw   0x0(%rax,%rax,1)

0000000000000120 <ctnetlink_parse_tuple_proto>:
     120:	e8 00 00 00 00       	call   125 <ctnetlink_parse_tuple_proto+0x5>
     125:	55                   	push   %rbp
     126:	45 31 c9             	xor    %r9d,%r9d
     129:	49 c7 c0 00 00 00 00 	mov    $0x0,%r8
     130:	48 89 e5             	mov    %rsp,%rbp
     133:	41 57                	push   %r15
     135:	4c 8d 7f 04          	lea    0x4(%rdi),%r15
     139:	41 56                	push   %r14
     13b:	41 89 d6             	mov    %edx,%r14d
     13e:	4c 89 fa             	mov    %r15,%rdx
     141:	41 55                	push   %r13
     143:	49 89 f5             	mov    %rsi,%r13
     146:	be 09 00 00 00       	mov    $0x9,%esi
     14b:	41 54                	push   %r12
     14d:	53                   	push   %rbx
     14e:	48 89 fb             	mov    %rdi,%rbx
     151:	48 83 ec 60          	sub    $0x60,%rsp
     155:	0f b7 0f             	movzwl (%rdi),%ecx
     158:	48 8d 7d 80          	lea    -0x80(%rbp),%rdi
     15c:	65 48 8b 04 25 28 00 	mov    %gs:0x28,%rax
     163:	00 00 
     165:	48 89 45 d0          	mov    %rax,-0x30(%rbp)
     169:	31 c0                	xor    %eax,%eax
     16b:	6a 00                	push   $0x0
     16d:	83 e9 04             	sub    $0x4,%ecx
     170:	e8 00 00 00 00       	call   175 <ctnetlink_parse_tuple_proto+0x55>
     175:	5a                   	pop    %rdx
     176:	41 89 c4             	mov    %eax,%r12d
     179:	85 c0                	test   %eax,%eax
     17b:	78 7d                	js     1fa <ctnetlink_parse_tuple_proto+0xda>
     17d:	41 f6 c6 08          	test   $0x8,%r14b
     181:	0f 84 98 00 00 00    	je     21f <ctnetlink_parse_tuple_proto+0xff>
     187:	48 8b 45 88          	mov    -0x78(%rbp),%rax
     18b:	48 85 c0             	test   %rax,%rax
     18e:	0f 84 90 00 00 00    	je     224 <ctnetlink_parse_tuple_proto+0x104>
     194:	0f b6 40 04          	movzbl 0x4(%rax),%eax
     198:	41 88 45 26          	mov    %al,0x26(%r13)
     19c:	41 0f b6 7d 26       	movzbl 0x26(%r13),%edi
     1a1:	e8 00 00 00 00       	call   1a6 <ctnetlink_parse_tuple_proto+0x86>
     1a6:	48 83 78 30 00       	cmpq   $0x0,0x30(%rax)
     1ab:	74 48                	je     1f5 <ctnetlink_parse_tuple_proto+0xd5>
     1ad:	0f b7 33             	movzwl (%rbx),%esi
     1b0:	48 8b 48 38          	mov    0x38(%rax),%rcx
     1b4:	45 31 c9             	xor    %r9d,%r9d
     1b7:	45 31 c0             	xor    %r8d,%r8d
     1ba:	ba 09 00 00 00       	mov    $0x9,%edx
     1bf:	4c 89 ff             	mov    %r15,%rdi
     1c2:	48 89 85 78 ff ff ff 	mov    %rax,-0x88(%rbp)
     1c9:	83 ee 04             	sub    $0x4,%esi
     1cc:	e8 00 00 00 00       	call   1d1 <ctnetlink_parse_tuple_proto+0xb1>
     1d1:	41 89 c4             	mov    %eax,%r12d
     1d4:	85 c0                	test   %eax,%eax
     1d6:	75 1d                	jne    1f5 <ctnetlink_parse_tuple_proto+0xd5>
     1d8:	4c 8b 95 78 ff ff ff 	mov    -0x88(%rbp),%r10
     1df:	44 89 f2             	mov    %r14d,%edx
     1e2:	4c 89 ee             	mov    %r13,%rsi
     1e5:	48 8d 7d 80          	lea    -0x80(%rbp),%rdi
     1e9:	49 8b 42 30          	mov    0x30(%r10),%rax
     1ed:	e8 00 00 00 00       	call   1f2 <ctnetlink_parse_tuple_proto+0xd2>
     1f2:	41 89 c4             	mov    %eax,%r12d
     1f5:	e8 00 00 00 00       	call   1fa <ctnetlink_parse_tuple_proto+0xda>
     1fa:	48 8b 45 d0          	mov    -0x30(%rbp),%rax
     1fe:	65 48 33 04 25 28 00 	xor    %gs:0x28,%rax
     205:	00 00 
     207:	75 23                	jne    22c <ctnetlink_parse_tuple_proto+0x10c>
     209:	48 8d 65 d8          	lea    -0x28(%rbp),%rsp
     20d:	44 89 e0             	mov    %r12d,%eax
     210:	5b                   	pop    %rbx
     211:	41 5c                	pop    %r12
     213:	41 5d                	pop    %r13
     215:	41 5e                	pop    %r14
     217:	41 5f                	pop    %r15
     219:	5d                   	pop    %rbp
     21a:	e9 00 00 00 00       	jmp    21f <ctnetlink_parse_tuple_proto+0xff>
     21f:	45 31 e4             	xor    %r12d,%r12d
     222:	eb d6                	jmp    1fa <ctnetlink_parse_tuple_proto+0xda>
     224:	41 bc ea ff ff ff    	mov    $0xffffffea,%r12d
     22a:	eb ce                	jmp    1fa <ctnetlink_parse_tuple_proto+0xda>
     22c:	e8 00 00 00 00       	call   231 <ctnetlink_parse_tuple_proto+0x111>
     231:	66 66 2e 0f 1f 84 00 	data16 cs nopw 0x0(%rax,%rax,1)
     238:	00 00 00 00 
     23c:	0f 1f 40 00          	nopl   0x0(%rax)

0000000000000240 <change_seq_adj>:
     240:	e8 00 00 00 00       	call   245 <change_seq_adj+0x5>
     245:	55                   	push   %rbp
     246:	48 8d 56 04          	lea    0x4(%rsi),%rdx
     24a:	45 31 c9             	xor    %r9d,%r9d
     24d:	49 c7 c0 00 00 00 00 	mov    $0x0,%r8
     254:	48 89 e5             	mov    %rsp,%rbp
     257:	53                   	push   %rbx
     258:	48 89 fb             	mov    %rdi,%rbx
     25b:	48 8d 7d d0          	lea    -0x30(%rbp),%rdi
     25f:	48 83 ec 28          	sub    $0x28,%rsp
     263:	0f b7 0e             	movzwl (%rsi),%ecx
     266:	be 03 00 00 00       	mov    $0x3,%esi
     26b:	65 48 8b 04 25 28 00 	mov    %gs:0x28,%rax
     272:	00 00 
     274:	48 89 45 f0          	mov    %rax,-0x10(%rbp)
     278:	31 c0                	xor    %eax,%eax
     27a:	6a 00                	push   $0x0
     27c:	83 e9 04             	sub    $0x4,%ecx
     27f:	e8 00 00 00 00       	call   284 <change_seq_adj+0x44>
     284:	5a                   	pop    %rdx
     285:	85 c0                	test   %eax,%eax
     287:	78 34                	js     2bd <change_seq_adj+0x7d>
     289:	48 8b 45 d8          	mov    -0x28(%rbp),%rax
     28d:	48 85 c0             	test   %rax,%rax
     290:	74 44                	je     2d6 <change_seq_adj+0x96>
     292:	8b 40 04             	mov    0x4(%rax),%eax
     295:	0f c8                	bswap  %eax
     297:	89 03                	mov    %eax,(%rbx)
     299:	48 8b 45 e0          	mov    -0x20(%rbp),%rax
     29d:	48 85 c0             	test   %rax,%rax
     2a0:	74 34                	je     2d6 <change_seq_adj+0x96>
     2a2:	8b 40 04             	mov    0x4(%rax),%eax
     2a5:	0f c8                	bswap  %eax
     2a7:	89 43 04             	mov    %eax,0x4(%rbx)
     2aa:	48 8b 45 e8          	mov    -0x18(%rbp),%rax
     2ae:	48 85 c0             	test   %rax,%rax
     2b1:	74 23                	je     2d6 <change_seq_adj+0x96>
     2b3:	8b 40 04             	mov    0x4(%rax),%eax
     2b6:	0f c8                	bswap  %eax
     2b8:	89 43 08             	mov    %eax,0x8(%rbx)
     2bb:	31 c0                	xor    %eax,%eax
     2bd:	48 8b 55 f0          	mov    -0x10(%rbp),%rdx
     2c1:	65 48 33 14 25 28 00 	xor    %gs:0x28,%rdx
     2c8:	00 00 
     2ca:	75 11                	jne    2dd <change_seq_adj+0x9d>
     2cc:	48 8b 5d f8          	mov    -0x8(%rbp),%rbx
     2d0:	c9                   	leave  
     2d1:	e9 00 00 00 00       	jmp    2d6 <change_seq_adj+0x96>
     2d6:	b8 ea ff ff ff       	mov    $0xffffffea,%eax
     2db:	eb e0                	jmp    2bd <change_seq_adj+0x7d>
     2dd:	e8 00 00 00 00       	call   2e2 <change_seq_adj+0xa2>
     2e2:	66 66 2e 0f 1f 84 00 	data16 cs nopw 0x0(%rax,%rax,1)
     2e9:	00 00 00 00 
     2ed:	0f 1f 00             	nopl   (%rax)

00000000000002f0 <ctnetlink_change_seq_adj>:
     2f0:	e8 00 00 00 00       	call   2f5 <ctnetlink_change_seq_adj+0x5>
     2f5:	55                   	push   %rbp
     2f6:	31 c0                	xor    %eax,%eax
     2f8:	48 89 e5             	mov    %rsp,%rbp
     2fb:	41 56                	push   %r14
     2fd:	41 55                	push   %r13
     2ff:	41 54                	push   %r12
     301:	49 89 fc             	mov    %rdi,%r12
     304:	53                   	push   %rbx
     305:	48 83 ec 08          	sub    $0x8,%rsp
     309:	48 8b bf b8 00 00 00 	mov    0xb8(%rdi),%rdi
     310:	48 85 ff             	test   %rdi,%rdi
     313:	74 69                	je     37e <ctnetlink_change_seq_adj+0x8e>
     315:	0f b6 5f 02          	movzbl 0x2(%rdi),%ebx
     319:	84 db                	test   %bl,%bl
     31b:	74 61                	je     37e <ctnetlink_change_seq_adj+0x8e>
     31d:	48 01 fb             	add    %rdi,%rbx
     320:	74 5c                	je     37e <ctnetlink_change_seq_adj+0x8e>
     322:	4d 8d 74 24 04       	lea    0x4(%r12),%r14
     327:	49 89 f5             	mov    %rsi,%r13
     32a:	4c 89 f7             	mov    %r14,%rdi
     32d:	e8 00 00 00 00       	call   332 <ctnetlink_change_seq_adj+0x42>
     332:	49 8b 75 78          	mov    0x78(%r13),%rsi
     336:	48 85 f6             	test   %rsi,%rsi
     339:	74 16                	je     351 <ctnetlink_change_seq_adj+0x61>
     33b:	48 89 df             	mov    %rbx,%rdi
     33e:	e8 fd fe ff ff       	call   240 <change_seq_adj>
     343:	85 c0                	test   %eax,%eax
     345:	78 48                	js     38f <ctnetlink_change_seq_adj+0x9f>
     347:	f0 41 80 8c 24 80 00 	lock orb $0x40,0x80(%r12)
     34e:	00 00 40 
     351:	49 8b b5 80 00 00 00 	mov    0x80(%r13),%rsi
     358:	48 85 f6             	test   %rsi,%rsi
     35b:	74 17                	je     374 <ctnetlink_change_seq_adj+0x84>
     35d:	48 8d 7b 0c          	lea    0xc(%rbx),%rdi
     361:	e8 da fe ff ff       	call   240 <change_seq_adj>
     366:	85 c0                	test   %eax,%eax
     368:	78 25                	js     38f <ctnetlink_change_seq_adj+0x9f>
     36a:	f0 41 80 8c 24 80 00 	lock orb $0x40,0x80(%r12)
     371:	00 00 40 
     374:	4c 89 f7             	mov    %r14,%rdi
     377:	e8 00 00 00 00       	call   37c <ctnetlink_change_seq_adj+0x8c>
     37c:	31 c0                	xor    %eax,%eax
     37e:	48 83 c4 08          	add    $0x8,%rsp
     382:	5b                   	pop    %rbx
     383:	41 5c                	pop    %r12
     385:	41 5d                	pop    %r13
     387:	41 5e                	pop    %r14
     389:	5d                   	pop    %rbp
     38a:	e9 00 00 00 00       	jmp    38f <ctnetlink_change_seq_adj+0x9f>
     38f:	4c 89 f7             	mov    %r14,%rdi
     392:	89 45 dc             	mov    %eax,-0x24(%rbp)
     395:	e8 00 00 00 00       	call   39a <ctnetlink_change_seq_adj+0xaa>
     39a:	8b 45 dc             	mov    -0x24(%rbp),%eax
     39d:	48 83 c4 08          	add    $0x8,%rsp
     3a1:	5b                   	pop    %rbx
     3a2:	41 5c                	pop    %r12
     3a4:	41 5d                	pop    %r13
     3a6:	41 5e                	pop    %r14
     3a8:	5d                   	pop    %rbp
     3a9:	e9 00 00 00 00       	jmp    3ae <ctnetlink_change_seq_adj+0xbe>
     3ae:	66 90                	xchg   %ax,%ax

00000000000003b0 <ctnetlink_change_synproxy>:
     3b0:	e8 00 00 00 00       	call   3b5 <ctnetlink_change_synproxy+0x5>
     3b5:	55                   	push   %rbp
     3b6:	48 89 e5             	mov    %rsp,%rbp
     3b9:	53                   	push   %rbx
     3ba:	48 83 ec 28          	sub    $0x28,%rsp
     3be:	48 8b 97 b8 00 00 00 	mov    0xb8(%rdi),%rdx
     3c5:	65 48 8b 04 25 28 00 	mov    %gs:0x28,%rax
     3cc:	00 00 
     3ce:	48 89 45 f0          	mov    %rax,-0x10(%rbp)
     3d2:	31 c0                	xor    %eax,%eax
     3d4:	48 85 d2             	test   %rdx,%rdx
     3d7:	74 75                	je     44e <ctnetlink_change_synproxy+0x9e>
     3d9:	0f b6 5a 08          	movzbl 0x8(%rdx),%ebx
     3dd:	84 db                	test   %bl,%bl
     3df:	74 6d                	je     44e <ctnetlink_change_synproxy+0x9e>
     3e1:	48 01 d3             	add    %rdx,%rbx
     3e4:	74 68                	je     44e <ctnetlink_change_synproxy+0x9e>
     3e6:	48 8b 96 c0 00 00 00 	mov    0xc0(%rsi),%rdx
     3ed:	45 31 c9             	xor    %r9d,%r9d
     3f0:	be 03 00 00 00       	mov    $0x3,%esi
     3f5:	48 8d 7d d0          	lea    -0x30(%rbp),%rdi
     3f9:	49 c7 c0 00 00 00 00 	mov    $0x0,%r8
     400:	0f b7 0a             	movzwl (%rdx),%ecx
     403:	6a 00                	push   $0x0
     405:	48 83 c2 04          	add    $0x4,%rdx
     409:	83 e9 04             	sub    $0x4,%ecx
     40c:	e8 00 00 00 00       	call   411 <ctnetlink_change_synproxy+0x61>
     411:	5a                   	pop    %rdx
     412:	85 c0                	test   %eax,%eax
     414:	78 38                	js     44e <ctnetlink_change_synproxy+0x9e>
     416:	48 8b 45 d8          	mov    -0x28(%rbp),%rax
     41a:	48 85 c0             	test   %rax,%rax
     41d:	74 48                	je     467 <ctnetlink_change_synproxy+0xb7>
     41f:	48 83 7d e0 00       	cmpq   $0x0,-0x20(%rbp)
     424:	74 41                	je     467 <ctnetlink_change_synproxy+0xb7>
     426:	48 83 7d e8 00       	cmpq   $0x0,-0x18(%rbp)
     42b:	74 3a                	je     467 <ctnetlink_change_synproxy+0xb7>
     42d:	8b 40 04             	mov    0x4(%rax),%eax
     430:	0f c8                	bswap  %eax
     432:	89 03                	mov    %eax,(%rbx)
     434:	48 8b 45 e0          	mov    -0x20(%rbp),%rax
     438:	8b 40 04             	mov    0x4(%rax),%eax
     43b:	0f c8                	bswap  %eax
     43d:	89 43 04             	mov    %eax,0x4(%rbx)
     440:	48 8b 45 e8          	mov    -0x18(%rbp),%rax
     444:	8b 40 04             	mov    0x4(%rax),%eax
     447:	0f c8                	bswap  %eax
     449:	89 43 08             	mov    %eax,0x8(%rbx)
     44c:	31 c0                	xor    %eax,%eax
     44e:	48 8b 4d f0          	mov    -0x10(%rbp),%rcx
     452:	65 48 33 0c 25 28 00 	xor    %gs:0x28,%rcx
     459:	00 00 
     45b:	75 11                	jne    46e <ctnetlink_change_synproxy+0xbe>
     45d:	48 8b 5d f8          	mov    -0x8(%rbp),%rbx
     461:	c9                   	leave  
     462:	e9 00 00 00 00       	jmp    467 <ctnetlink_change_synproxy+0xb7>
     467:	b8 ea ff ff ff       	mov    $0xffffffea,%eax
     46c:	eb e0                	jmp    44e <ctnetlink_change_synproxy+0x9e>
     46e:	e8 00 00 00 00       	call   473 <ctnetlink_change_synproxy+0xc3>
     473:	66 66 2e 0f 1f 84 00 	data16 cs nopw 0x0(%rax,%rax,1)
     47a:	00 00 00 00 
     47e:	66 90                	xchg   %ax,%ax

0000000000000480 <expect_iter_name>:
     480:	e8 00 00 00 00       	call   485 <expect_iter_name+0x5>
     485:	55                   	push   %rbp
     486:	48 8b 47 70          	mov    0x70(%rdi),%rax
     48a:	48 8b 80 b8 00 00 00 	mov    0xb8(%rax),%rax
     491:	48 89 e5             	mov    %rsp,%rbp
     494:	48 85 c0             	test   %rax,%rax
     497:	74 11                	je     4aa <expect_iter_name+0x2a>
     499:	0f b6 08             	movzbl (%rax),%ecx
     49c:	ba 00 00 00 00       	mov    $0x0,%edx
     4a1:	48 01 c8             	add    %rcx,%rax
     4a4:	84 c9                	test   %cl,%cl
     4a6:	48 0f 44 c2          	cmove  %rdx,%rax
     4aa:	48 8b 38             	mov    (%rax),%rdi
     4ad:	48 83 c7 10          	add    $0x10,%rdi
     4b1:	e8 00 00 00 00       	call   4b6 <expect_iter_name+0x36>
     4b6:	5d                   	pop    %rbp
     4b7:	85 c0                	test   %eax,%eax
     4b9:	0f 94 c0             	sete   %al
     4bc:	e9 00 00 00 00       	jmp    4c1 <expect_iter_name+0x41>
     4c1:	66 66 2e 0f 1f 84 00 	data16 cs nopw 0x0(%rax,%rax,1)
     4c8:	00 00 00 00 
     4cc:	0f 1f 40 00          	nopl   0x0(%rax)

00000000000004d0 <ctnetlink_attach_labels>:
     4d0:	e8 00 00 00 00       	call   4d5 <ctnetlink_attach_labels+0x5>
     4d5:	48 8b 86 b0 00 00 00 	mov    0xb0(%rsi),%rax
     4dc:	48 8b 96 b8 00 00 00 	mov    0xb8(%rsi),%rdx
     4e3:	0f b7 08             	movzwl (%rax),%ecx
     4e6:	41 89 c8             	mov    %ecx,%r8d
     4e9:	83 e9 04             	sub    $0x4,%ecx
     4ec:	41 f6 c0 03          	test   $0x3,%r8b
     4f0:	75 32                	jne    524 <ctnetlink_attach_labels+0x54>
     4f2:	48 63 c9             	movslq %ecx,%rcx
     4f5:	48 85 d2             	test   %rdx,%rdx
     4f8:	74 13                	je     50d <ctnetlink_attach_labels+0x3d>
     4fa:	0f b7 32             	movzwl (%rdx),%esi
     4fd:	66 83 fe 04          	cmp    $0x4,%si
     501:	74 21                	je     524 <ctnetlink_attach_labels+0x54>
     503:	66 41 39 f0          	cmp    %si,%r8w
     507:	75 1b                	jne    524 <ctnetlink_attach_labels+0x54>
     509:	48 83 c2 04          	add    $0x4,%rdx
     50d:	55                   	push   %rbp
     50e:	48 c1 e9 02          	shr    $0x2,%rcx
     512:	48 8d 70 04          	lea    0x4(%rax),%rsi
     516:	48 89 e5             	mov    %rsp,%rbp
     519:	e8 00 00 00 00       	call   51e <ctnetlink_attach_labels+0x4e>
     51e:	5d                   	pop    %rbp
     51f:	e9 00 00 00 00       	jmp    524 <ctnetlink_attach_labels+0x54>
     524:	b8 ea ff ff ff       	mov    $0xffffffea,%eax
     529:	e9 00 00 00 00       	jmp    52e <ctnetlink_attach_labels+0x5e>
     52e:	66 90                	xchg   %ax,%ax

0000000000000530 <ctnetlink_dump_protoinfo>:
     530:	e8 00 00 00 00       	call   535 <ctnetlink_dump_protoinfo+0x5>
     535:	55                   	push   %rbp
     536:	48 89 e5             	mov    %rsp,%rbp
     539:	41 57                	push   %r15
     53b:	41 56                	push   %r14
     53d:	41 55                	push   %r13
     53f:	49 89 f5             	mov    %rsi,%r13
     542:	41 54                	push   %r12
     544:	41 89 d4             	mov    %edx,%r12d
     547:	53                   	push   %rbx
     548:	48 89 fb             	mov    %rdi,%rbx
     54b:	0f b6 7e 46          	movzbl 0x46(%rsi),%edi
     54f:	e8 00 00 00 00       	call   554 <ctnetlink_dump_protoinfo+0x24>
     554:	49 89 c6             	mov    %rax,%r14
     557:	31 c0                	xor    %eax,%eax
     559:	49 83 7e 10 00       	cmpq   $0x0,0x10(%r14)
     55e:	74 52                	je     5b2 <ctnetlink_dump_protoinfo+0x82>
     560:	44 8b bb b8 00 00 00 	mov    0xb8(%rbx),%r15d
     567:	31 c9                	xor    %ecx,%ecx
     569:	31 d2                	xor    %edx,%edx
     56b:	be 04 80 00 00       	mov    $0x8004,%esi
     570:	4c 03 bb c0 00 00 00 	add    0xc0(%rbx),%r15
     577:	48 89 df             	mov    %rbx,%rdi
     57a:	e8 00 00 00 00       	call   57f <ctnetlink_dump_protoinfo+0x4f>
     57f:	4d 85 ff             	test   %r15,%r15
     582:	74 3d                	je     5c1 <ctnetlink_dump_protoinfo+0x91>
     584:	85 c0                	test   %eax,%eax
     586:	78 39                	js     5c1 <ctnetlink_dump_protoinfo+0x91>
     588:	4c 89 ea             	mov    %r13,%rdx
     58b:	49 8b 46 10          	mov    0x10(%r14),%rax
     58f:	41 0f b6 cc          	movzbl %r12b,%ecx
     593:	4c 89 fe             	mov    %r15,%rsi
     596:	48 89 df             	mov    %rbx,%rdi
     599:	e8 00 00 00 00       	call   59e <ctnetlink_dump_protoinfo+0x6e>
     59e:	8b 93 b8 00 00 00    	mov    0xb8(%rbx),%edx
     5a4:	48 03 93 c0 00 00 00 	add    0xc0(%rbx),%rdx
     5ab:	4c 29 fa             	sub    %r15,%rdx
     5ae:	66 41 89 17          	mov    %dx,(%r15)
     5b2:	5b                   	pop    %rbx
     5b3:	41 5c                	pop    %r12
     5b5:	41 5d                	pop    %r13
     5b7:	41 5e                	pop    %r14
     5b9:	41 5f                	pop    %r15
     5bb:	5d                   	pop    %rbp
     5bc:	e9 00 00 00 00       	jmp    5c1 <ctnetlink_dump_protoinfo+0x91>
     5c1:	b8 ff ff ff ff       	mov    $0xffffffff,%eax
     5c6:	eb ea                	jmp    5b2 <ctnetlink_dump_protoinfo+0x82>
     5c8:	0f 1f 84 00 00 00 00 	nopl   0x0(%rax,%rax,1)
     5cf:	00 

00000000000005d0 <ctnetlink_dump_labels>:
     5d0:	e8 00 00 00 00       	call   5d5 <ctnetlink_dump_labels+0x5>
     5d5:	48 8b 8e b8 00 00 00 	mov    0xb8(%rsi),%rcx
     5dc:	31 c0                	xor    %eax,%eax
     5de:	48 85 c9             	test   %rcx,%rcx
     5e1:	74 1a                	je     5fd <ctnetlink_dump_labels+0x2d>
     5e3:	0f b6 51 07          	movzbl 0x7(%rcx),%edx
     5e7:	84 d2                	test   %dl,%dl
     5e9:	74 17                	je     602 <ctnetlink_dump_labels+0x32>
     5eb:	48 01 d1             	add    %rdx,%rcx
     5ee:	74 30                	je     620 <ctnetlink_dump_labels+0x50>
     5f0:	48 83 39 00          	cmpq   $0x0,(%rcx)
     5f4:	75 11                	jne    607 <ctnetlink_dump_labels+0x37>
     5f6:	48 83 79 08 00       	cmpq   $0x0,0x8(%rcx)
     5fb:	75 0a                	jne    607 <ctnetlink_dump_labels+0x37>
     5fd:	e9 00 00 00 00       	jmp    602 <ctnetlink_dump_labels+0x32>
     602:	e9 00 00 00 00       	jmp    607 <ctnetlink_dump_labels+0x37>
     607:	55                   	push   %rbp
     608:	ba 10 00 00 00       	mov    $0x10,%edx
     60d:	be 16 00 00 00       	mov    $0x16,%esi
     612:	48 89 e5             	mov    %rsp,%rbp
     615:	e8 00 00 00 00       	call   61a <ctnetlink_dump_labels+0x4a>
     61a:	5d                   	pop    %rbp
     61b:	e9 00 00 00 00       	jmp    620 <ctnetlink_dump_labels+0x50>
     620:	e9 00 00 00 00       	jmp    625 <ctnetlink_dump_labels+0x55>
     625:	66 66 2e 0f 1f 84 00 	data16 cs nopw 0x0(%rax,%rax,1)
     62c:	00 00 00 00 

0000000000000630 <ctnetlink_dump_timeout>:
     630:	e8 00 00 00 00       	call   635 <ctnetlink_dump_timeout+0x5>
     635:	55                   	push   %rbp
     636:	48 89 e5             	mov    %rsp,%rbp
     639:	48 83 ec 10          	sub    $0x10,%rsp
     63d:	65 48 8b 04 25 28 00 	mov    %gs:0x28,%rax
     644:	00 00 
     646:	48 89 45 f8          	mov    %rax,-0x8(%rbp)
     64a:	31 c0                	xor    %eax,%eax
     64c:	8b 46 08             	mov    0x8(%rsi),%eax
     64f:	48 8b 0d 00 00 00 00 	mov    0x0(%rip),%rcx        # 656 <ctnetlink_dump_timeout+0x26>
     656:	29 c8                	sub    %ecx,%eax
     658:	b9 00 00 00 00       	mov    $0x0,%ecx
     65d:	0f 48 c1             	cmovs  %ecx,%eax
     660:	48 98                	cltq   
     662:	48 3d f9 00 00 00    	cmp    $0xf9,%rax
     668:	77 1f                	ja     689 <ctnetlink_dump_timeout+0x59>
     66a:	45 31 c0             	xor    %r8d,%r8d
     66d:	84 d2                	test   %dl,%dl
     66f:	74 18                	je     689 <ctnetlink_dump_timeout+0x59>
     671:	48 8b 45 f8          	mov    -0x8(%rbp),%rax
     675:	65 48 33 04 25 28 00 	xor    %gs:0x28,%rax
     67c:	00 00 
     67e:	75 43                	jne    6c3 <ctnetlink_dump_timeout+0x93>
     680:	c9                   	leave  
     681:	44 89 c0             	mov    %r8d,%eax
     684:	e9 00 00 00 00       	jmp    689 <ctnetlink_dump_timeout+0x59>
     689:	48 d1 e8             	shr    %rax
     68c:	48 8d 4d f4          	lea    -0xc(%rbp),%rcx
     690:	be 07 00 00 00       	mov    $0x7,%esi
     695:	48 ba cf f7 53 e3 a5 	movabs $0x20c49ba5e353f7cf,%rdx
     69c:	9b c4 20 
     69f:	48 f7 e2             	mul    %rdx
     6a2:	48 c1 ea 04          	shr    $0x4,%rdx
     6a6:	0f ca                	bswap  %edx
     6a8:	89 55 f4             	mov    %edx,-0xc(%rbp)
     6ab:	ba 04 00 00 00       	mov    $0x4,%edx
     6b0:	e8 00 00 00 00       	call   6b5 <ctnetlink_dump_timeout+0x85>
     6b5:	45 31 c0             	xor    %r8d,%r8d
     6b8:	85 c0                	test   %eax,%eax
     6ba:	41 0f 95 c0          	setne  %r8b
     6be:	41 f7 d8             	neg    %r8d
     6c1:	eb ae                	jmp    671 <ctnetlink_dump_timeout+0x41>
     6c3:	e8 00 00 00 00       	call   6c8 <ctnetlink_dump_timeout+0x98>
     6c8:	0f 1f 84 00 00 00 00 	nopl   0x0(%rax,%rax,1)
     6cf:	00 

00000000000006d0 <dump_ct_seq_adj>:
     6d0:	e8 00 00 00 00       	call   6d5 <dump_ct_seq_adj+0x5>
     6d5:	55                   	push   %rbp
     6d6:	31 c9                	xor    %ecx,%ecx
     6d8:	48 89 e5             	mov    %rsp,%rbp
     6db:	41 55                	push   %r13
     6dd:	49 89 f5             	mov    %rsi,%r13
     6e0:	89 d6                	mov    %edx,%esi
     6e2:	41 54                	push   %r12
     6e4:	81 ce 00 80 00 00    	or     $0x8000,%esi
     6ea:	31 d2                	xor    %edx,%edx
     6ec:	53                   	push   %rbx
     6ed:	48 89 fb             	mov    %rdi,%rbx
     6f0:	48 83 ec 10          	sub    $0x10,%rsp
     6f4:	44 8b a7 b8 00 00 00 	mov    0xb8(%rdi),%r12d
     6fb:	4c 03 a7 c0 00 00 00 	add    0xc0(%rdi),%r12
     702:	65 48 8b 04 25 28 00 	mov    %gs:0x28,%rax
     709:	00 00 
     70b:	48 89 45 e0          	mov    %rax,-0x20(%rbp)
     70f:	31 c0                	xor    %eax,%eax
     711:	e8 00 00 00 00       	call   716 <dump_ct_seq_adj+0x46>
     716:	4d 85 e4             	test   %r12,%r12
     719:	0f 84 a4 00 00 00    	je     7c3 <dump_ct_seq_adj+0xf3>
     71f:	85 c0                	test   %eax,%eax
     721:	0f 88 9c 00 00 00    	js     7c3 <dump_ct_seq_adj+0xf3>
     727:	41 8b 45 00          	mov    0x0(%r13),%eax
     72b:	48 8d 4d dc          	lea    -0x24(%rbp),%rcx
     72f:	ba 04 00 00 00       	mov    $0x4,%edx
     734:	48 89 df             	mov    %rbx,%rdi
     737:	be 01 00 00 00       	mov    $0x1,%esi
     73c:	0f c8                	bswap  %eax
     73e:	89 45 dc             	mov    %eax,-0x24(%rbp)
     741:	e8 00 00 00 00       	call   746 <dump_ct_seq_adj+0x76>
     746:	85 c0                	test   %eax,%eax
     748:	75 79                	jne    7c3 <dump_ct_seq_adj+0xf3>
     74a:	41 8b 45 04          	mov    0x4(%r13),%eax
     74e:	48 8d 4d dc          	lea    -0x24(%rbp),%rcx
     752:	ba 04 00 00 00       	mov    $0x4,%edx
     757:	48 89 df             	mov    %rbx,%rdi
     75a:	be 02 00 00 00       	mov    $0x2,%esi
     75f:	0f c8                	bswap  %eax
     761:	89 45 dc             	mov    %eax,-0x24(%rbp)
     764:	e8 00 00 00 00       	call   769 <dump_ct_seq_adj+0x99>
     769:	85 c0                	test   %eax,%eax
     76b:	75 56                	jne    7c3 <dump_ct_seq_adj+0xf3>
     76d:	41 8b 45 08          	mov    0x8(%r13),%eax
     771:	48 8d 4d dc          	lea    -0x24(%rbp),%rcx
     775:	ba 04 00 00 00       	mov    $0x4,%edx
     77a:	48 89 df             	mov    %rbx,%rdi
     77d:	be 03 00 00 00       	mov    $0x3,%esi
     782:	0f c8                	bswap  %eax
     784:	89 45 dc             	mov    %eax,-0x24(%rbp)
     787:	e8 00 00 00 00       	call   78c <dump_ct_seq_adj+0xbc>
     78c:	85 c0                	test   %eax,%eax
     78e:	75 33                	jne    7c3 <dump_ct_seq_adj+0xf3>
     790:	8b 93 b8 00 00 00    	mov    0xb8(%rbx),%edx
     796:	48 03 93 c0 00 00 00 	add    0xc0(%rbx),%rdx
     79d:	4c 29 e2             	sub    %r12,%rdx
     7a0:	66 41 89 14 24       	mov    %dx,(%r12)
     7a5:	48 8b 7d e0          	mov    -0x20(%rbp),%rdi
     7a9:	65 48 33 3c 25 28 00 	xor    %gs:0x28,%rdi
     7b0:	00 00 
     7b2:	75 16                	jne    7ca <dump_ct_seq_adj+0xfa>
     7b4:	48 83 c4 10          	add    $0x10,%rsp
     7b8:	5b                   	pop    %rbx
     7b9:	41 5c                	pop    %r12
     7bb:	41 5d                	pop    %r13
     7bd:	5d                   	pop    %rbp
     7be:	e9 00 00 00 00       	jmp    7c3 <dump_ct_seq_adj+0xf3>
     7c3:	b8 ff ff ff ff       	mov    $0xffffffff,%eax
     7c8:	eb db                	jmp    7a5 <dump_ct_seq_adj+0xd5>
     7ca:	e8 00 00 00 00       	call   7cf <dump_ct_seq_adj+0xff>
     7cf:	90                   	nop

00000000000007d0 <ctnetlink_dump_ct_seq_adj>:
     7d0:	e8 00 00 00 00       	call   7d5 <ctnetlink_dump_ct_seq_adj+0x5>
     7d5:	55                   	push   %rbp
     7d6:	48 89 e5             	mov    %rsp,%rbp
     7d9:	41 56                	push   %r14
     7db:	41 55                	push   %r13
     7dd:	45 31 ed             	xor    %r13d,%r13d
     7e0:	41 54                	push   %r12
     7e2:	53                   	push   %rbx
     7e3:	48 8b 86 b8 00 00 00 	mov    0xb8(%rsi),%rax
     7ea:	48 85 c0             	test   %rax,%rax
     7ed:	74 5b                	je     84a <ctnetlink_dump_ct_seq_adj+0x7a>
     7ef:	0f b6 58 02          	movzbl 0x2(%rax),%ebx
     7f3:	84 db                	test   %bl,%bl
     7f5:	74 53                	je     84a <ctnetlink_dump_ct_seq_adj+0x7a>
     7f7:	48 01 c3             	add    %rax,%rbx
     7fa:	f6 86 80 00 00 00 40 	testb  $0x40,0x80(%rsi)
     801:	74 57                	je     85a <ctnetlink_dump_ct_seq_adj+0x8a>
     803:	48 85 db             	test   %rbx,%rbx
     806:	74 52                	je     85a <ctnetlink_dump_ct_seq_adj+0x8a>
     808:	4c 8d 66 04          	lea    0x4(%rsi),%r12
     80c:	49 89 fe             	mov    %rdi,%r14
     80f:	4c 89 e7             	mov    %r12,%rdi
     812:	e8 00 00 00 00       	call   817 <ctnetlink_dump_ct_seq_adj+0x47>
     817:	ba 0f 00 00 00       	mov    $0xf,%edx
     81c:	48 89 de             	mov    %rbx,%rsi
     81f:	4c 89 f7             	mov    %r14,%rdi
     822:	e8 a9 fe ff ff       	call   6d0 <dump_ct_seq_adj>
     827:	83 f8 ff             	cmp    $0xffffffff,%eax
     82a:	74 41                	je     86d <ctnetlink_dump_ct_seq_adj+0x9d>
     82c:	48 8d 73 0c          	lea    0xc(%rbx),%rsi
     830:	ba 10 00 00 00       	mov    $0x10,%edx
     835:	4c 89 f7             	mov    %r14,%rdi
     838:	e8 93 fe ff ff       	call   6d0 <dump_ct_seq_adj>
     83d:	83 f8 ff             	cmp    $0xffffffff,%eax
     840:	74 2b                	je     86d <ctnetlink_dump_ct_seq_adj+0x9d>
     842:	4c 89 e7             	mov    %r12,%rdi
     845:	e8 00 00 00 00       	call   84a <ctnetlink_dump_ct_seq_adj+0x7a>
     84a:	5b                   	pop    %rbx
     84b:	44 89 e8             	mov    %r13d,%eax
     84e:	41 5c                	pop    %r12
     850:	41 5d                	pop    %r13
     852:	41 5e                	pop    %r14
     854:	5d                   	pop    %rbp
     855:	e9 00 00 00 00       	jmp    85a <ctnetlink_dump_ct_seq_adj+0x8a>
     85a:	45 31 ed             	xor    %r13d,%r13d
     85d:	5b                   	pop    %rbx
     85e:	41 5c                	pop    %r12
     860:	44 89 e8             	mov    %r13d,%eax
     863:	41 5d                	pop    %r13
     865:	41 5e                	pop    %r14
     867:	5d                   	pop    %rbp
     868:	e9 00 00 00 00       	jmp    86d <ctnetlink_dump_ct_seq_adj+0x9d>
     86d:	4c 89 e7             	mov    %r12,%rdi
     870:	41 bd ff ff ff ff    	mov    $0xffffffff,%r13d
     876:	e8 00 00 00 00       	call   87b <ctnetlink_dump_ct_seq_adj+0xab>
     87b:	eb cd                	jmp    84a <ctnetlink_dump_ct_seq_adj+0x7a>
     87d:	0f 1f 00             	nopl   (%rax)

0000000000000880 <ctnetlink_dump_ct_synproxy>:
     880:	e8 00 00 00 00       	call   885 <ctnetlink_dump_ct_synproxy+0x5>
     885:	55                   	push   %rbp
     886:	48 89 e5             	mov    %rsp,%rbp
     889:	41 55                	push   %r13
     88b:	41 54                	push   %r12
     88d:	53                   	push   %rbx
     88e:	48 83 ec 10          	sub    $0x10,%rsp
     892:	48 8b 96 b8 00 00 00 	mov    0xb8(%rsi),%rdx
     899:	65 48 8b 04 25 28 00 	mov    %gs:0x28,%rax
     8a0:	00 00 
     8a2:	48 89 45 e0          	mov    %rax,-0x20(%rbp)
     8a6:	31 c0                	xor    %eax,%eax
     8a8:	48 85 d2             	test   %rdx,%rdx
     8ab:	0f 84 c7 00 00 00    	je     978 <ctnetlink_dump_ct_synproxy+0xf8>
     8b1:	44 0f b6 62 08       	movzbl 0x8(%rdx),%r12d
     8b6:	45 84 e4             	test   %r12b,%r12b
     8b9:	0f 84 b9 00 00 00    	je     978 <ctnetlink_dump_ct_synproxy+0xf8>
     8bf:	49 01 d4             	add    %rdx,%r12
     8c2:	0f 84 b0 00 00 00    	je     978 <ctnetlink_dump_ct_synproxy+0xf8>
     8c8:	44 8b af b8 00 00 00 	mov    0xb8(%rdi),%r13d
     8cf:	31 c9                	xor    %ecx,%ecx
     8d1:	31 d2                	xor    %edx,%edx
     8d3:	be 18 80 00 00       	mov    $0x8018,%esi
     8d8:	4c 03 af c0 00 00 00 	add    0xc0(%rdi),%r13
     8df:	48 89 fb             	mov    %rdi,%rbx
     8e2:	e8 00 00 00 00       	call   8e7 <ctnetlink_dump_ct_synproxy+0x67>
     8e7:	4d 85 ed             	test   %r13,%r13
     8ea:	0f 84 a6 00 00 00    	je     996 <ctnetlink_dump_ct_synproxy+0x116>
     8f0:	85 c0                	test   %eax,%eax
     8f2:	0f 88 9e 00 00 00    	js     996 <ctnetlink_dump_ct_synproxy+0x116>
     8f8:	41 8b 04 24          	mov    (%r12),%eax
     8fc:	48 8d 4d dc          	lea    -0x24(%rbp),%rcx
     900:	ba 04 00 00 00       	mov    $0x4,%edx
     905:	48 89 df             	mov    %rbx,%rdi
     908:	be 01 00 00 00       	mov    $0x1,%esi
     90d:	0f c8                	bswap  %eax
     90f:	89 45 dc             	mov    %eax,-0x24(%rbp)
     912:	e8 00 00 00 00       	call   917 <ctnetlink_dump_ct_synproxy+0x97>
     917:	85 c0                	test   %eax,%eax
     919:	75 7b                	jne    996 <ctnetlink_dump_ct_synproxy+0x116>
     91b:	41 8b 44 24 04       	mov    0x4(%r12),%eax
     920:	48 8d 4d dc          	lea    -0x24(%rbp),%rcx
     924:	ba 04 00 00 00       	mov    $0x4,%edx
     929:	48 89 df             	mov    %rbx,%rdi
     92c:	be 02 00 00 00       	mov    $0x2,%esi
     931:	0f c8                	bswap  %eax
     933:	89 45 dc             	mov    %eax,-0x24(%rbp)
     936:	e8 00 00 00 00       	call   93b <ctnetlink_dump_ct_synproxy+0xbb>
     93b:	85 c0                	test   %eax,%eax
     93d:	75 57                	jne    996 <ctnetlink_dump_ct_synproxy+0x116>
     93f:	41 8b 44 24 08       	mov    0x8(%r12),%eax
     944:	48 8d 4d dc          	lea    -0x24(%rbp),%rcx
     948:	ba 04 00 00 00       	mov    $0x4,%edx
     94d:	48 89 df             	mov    %rbx,%rdi
     950:	be 03 00 00 00       	mov    $0x3,%esi
     955:	0f c8                	bswap  %eax
     957:	89 45 dc             	mov    %eax,-0x24(%rbp)
     95a:	e8 00 00 00 00       	call   95f <ctnetlink_dump_ct_synproxy+0xdf>
     95f:	85 c0                	test   %eax,%eax
     961:	75 33                	jne    996 <ctnetlink_dump_ct_synproxy+0x116>
     963:	8b 93 b8 00 00 00    	mov    0xb8(%rbx),%edx
     969:	48 03 93 c0 00 00 00 	add    0xc0(%rbx),%rdx
     970:	4c 29 ea             	sub    %r13,%rdx
     973:	66 41 89 55 00       	mov    %dx,0x0(%r13)
     978:	48 8b 4d e0          	mov    -0x20(%rbp),%rcx
     97c:	65 48 33 0c 25 28 00 	xor    %gs:0x28,%rcx
     983:	00 00 
     985:	75 16                	jne    99d <ctnetlink_dump_ct_synproxy+0x11d>
     987:	48 83 c4 10          	add    $0x10,%rsp
     98b:	5b                   	pop    %rbx
     98c:	41 5c                	pop    %r12
     98e:	41 5d                	pop    %r13
     990:	5d                   	pop    %rbp
     991:	e9 00 00 00 00       	jmp    996 <ctnetlink_dump_ct_synproxy+0x116>
     996:	b8 ff ff ff ff       	mov    $0xffffffff,%eax
     99b:	eb db                	jmp    978 <ctnetlink_dump_ct_synproxy+0xf8>
     99d:	e8 00 00 00 00       	call   9a2 <ctnetlink_dump_ct_synproxy+0x122>
     9a2:	66 66 2e 0f 1f 84 00 	data16 cs nopw 0x0(%rax,%rax,1)
     9a9:	00 00 00 00 
     9ad:	0f 1f 00             	nopl   (%rax)

00000000000009b0 <ctnetlink_dump_mark>:
     9b0:	e8 00 00 00 00       	call   9b5 <ctnetlink_dump_mark+0x5>
     9b5:	55                   	push   %rbp
     9b6:	48 89 e5             	mov    %rsp,%rbp
     9b9:	48 83 ec 10          	sub    $0x10,%rsp
     9bd:	65 48 8b 04 25 28 00 	mov    %gs:0x28,%rax
     9c4:	00 00 
     9c6:	48 89 45 f8          	mov    %rax,-0x8(%rbp)
     9ca:	31 c0                	xor    %eax,%eax
     9cc:	8b 8e b0 00 00 00    	mov    0xb0(%rsi),%ecx
     9d2:	85 c9                	test   %ecx,%ecx
     9d4:	75 1a                	jne    9f0 <ctnetlink_dump_mark+0x40>
     9d6:	80 fa 01             	cmp    $0x1,%dl
     9d9:	74 15                	je     9f0 <ctnetlink_dump_mark+0x40>
     9db:	48 8b 4d f8          	mov    -0x8(%rbp),%rcx
     9df:	65 48 33 0c 25 28 00 	xor    %gs:0x28,%rcx
     9e6:	00 00 
     9e8:	75 2a                	jne    a14 <ctnetlink_dump_mark+0x64>
     9ea:	c9                   	leave  
     9eb:	e9 00 00 00 00       	jmp    9f0 <ctnetlink_dump_mark+0x40>
     9f0:	0f c9                	bswap  %ecx
     9f2:	ba 04 00 00 00       	mov    $0x4,%edx
     9f7:	89 4d f4             	mov    %ecx,-0xc(%rbp)
     9fa:	be 08 00 00 00       	mov    $0x8,%esi
     9ff:	48 8d 4d f4          	lea    -0xc(%rbp),%rcx
     a03:	e8 00 00 00 00       	call   a08 <ctnetlink_dump_mark+0x58>
     a08:	85 c0                	test   %eax,%eax
     a0a:	0f 95 c0             	setne  %al
     a0d:	0f b6 c0             	movzbl %al,%eax
     a10:	f7 d8                	neg    %eax
     a12:	eb c7                	jmp    9db <ctnetlink_dump_mark+0x2b>
     a14:	e8 00 00 00 00       	call   a19 <ctnetlink_dump_mark+0x69>
     a19:	0f 1f 80 00 00 00 00 	nopl   0x0(%rax)

0000000000000a20 <ctnetlink_dump_id>:
     a20:	e8 00 00 00 00       	call   a25 <ctnetlink_dump_id+0x5>
     a25:	55                   	push   %rbp
     a26:	48 89 e5             	mov    %rsp,%rbp
     a29:	41 54                	push   %r12
     a2b:	49 89 fc             	mov    %rdi,%r12
     a2e:	48 89 f7             	mov    %rsi,%rdi
     a31:	48 83 ec 10          	sub    $0x10,%rsp
     a35:	65 48 8b 04 25 28 00 	mov    %gs:0x28,%rax
     a3c:	00 00 
     a3e:	48 89 45 f0          	mov    %rax,-0x10(%rbp)
     a42:	31 c0                	xor    %eax,%eax
     a44:	e8 00 00 00 00       	call   a49 <ctnetlink_dump_id+0x29>
     a49:	ba 04 00 00 00       	mov    $0x4,%edx
     a4e:	48 8d 4d ec          	lea    -0x14(%rbp),%rcx
     a52:	4c 89 e7             	mov    %r12,%rdi
     a55:	be 0c 00 00 00       	mov    $0xc,%esi
     a5a:	89 45 ec             	mov    %eax,-0x14(%rbp)
     a5d:	e8 00 00 00 00       	call   a62 <ctnetlink_dump_id+0x42>
     a62:	85 c0                	test   %eax,%eax
     a64:	0f 95 c0             	setne  %al
     a67:	0f b6 c0             	movzbl %al,%eax
     a6a:	f7 d8                	neg    %eax
     a6c:	48 8b 55 f0          	mov    -0x10(%rbp),%rdx
     a70:	65 48 33 14 25 28 00 	xor    %gs:0x28,%rdx
     a77:	00 00 
     a79:	75 0c                	jne    a87 <ctnetlink_dump_id+0x67>
     a7b:	48 83 c4 10          	add    $0x10,%rsp
     a7f:	41 5c                	pop    %r12
     a81:	5d                   	pop    %rbp
     a82:	e9 00 00 00 00       	jmp    a87 <ctnetlink_dump_id+0x67>
     a87:	e8 00 00 00 00       	call   a8c <ctnetlink_dump_id+0x6c>
     a8c:	0f 1f 40 00          	nopl   0x0(%rax)

0000000000000a90 <dump_counters>:
     a90:	e8 00 00 00 00       	call   a95 <dump_counters+0x5>
     a95:	55                   	push   %rbp
     a96:	48 89 e5             	mov    %rsp,%rbp
     a99:	41 56                	push   %r14
     a9b:	41 55                	push   %r13
     a9d:	41 54                	push   %r12
     a9f:	53                   	push   %rbx
     aa0:	48 89 fb             	mov    %rdi,%rbx
     aa3:	48 83 ec 10          	sub    $0x10,%rsp
     aa7:	65 48 8b 04 25 28 00 	mov    %gs:0x28,%rax
     aae:	00 00 
     ab0:	48 89 45 d8          	mov    %rax,-0x28(%rbp)
     ab4:	31 c0                	xor    %eax,%eax
     ab6:	8d 42 09             	lea    0x9(%rdx),%eax
     ab9:	89 d2                	mov    %edx,%edx
     abb:	48 c1 e2 04          	shl    $0x4,%rdx
     abf:	48 01 f2             	add    %rsi,%rdx
     ac2:	83 f9 03             	cmp    $0x3,%ecx
     ac5:	0f 84 ba 00 00 00    	je     b85 <dump_counters+0xf5>
     acb:	4c 8b 32             	mov    (%rdx),%r14
     ace:	4c 8b 62 08          	mov    0x8(%rdx),%r12
     ad2:	80 cc 80             	or     $0x80,%ah
     ad5:	31 c9                	xor    %ecx,%ecx
     ad7:	31 d2                	xor    %edx,%edx
     ad9:	48 89 df             	mov    %rbx,%rdi
     adc:	89 c6                	mov    %eax,%esi
     ade:	44 8b ab b8 00 00 00 	mov    0xb8(%rbx),%r13d
     ae5:	4c 03 ab c0 00 00 00 	add    0xc0(%rbx),%r13
     aec:	e8 00 00 00 00       	call   af1 <dump_counters+0x61>
     af1:	85 c0                	test   %eax,%eax
     af3:	0f 88 9e 00 00 00    	js     b97 <dump_counters+0x107>
     af9:	4d 85 ed             	test   %r13,%r13
     afc:	0f 84 95 00 00 00    	je     b97 <dump_counters+0x107>
     b02:	41 b8 05 00 00 00    	mov    $0x5,%r8d
     b08:	48 8d 4d d0          	lea    -0x30(%rbp),%rcx
     b0c:	ba 08 00 00 00       	mov    $0x8,%edx
     b11:	48 89 df             	mov    %rbx,%rdi
     b14:	be 01 00 00 00       	mov    $0x1,%esi
     b19:	49 0f ce             	bswap  %r14
     b1c:	4c 89 75 d0          	mov    %r14,-0x30(%rbp)
     b20:	e8 00 00 00 00       	call   b25 <dump_counters+0x95>
     b25:	85 c0                	test   %eax,%eax
     b27:	75 6e                	jne    b97 <dump_counters+0x107>
     b29:	41 b8 05 00 00 00    	mov    $0x5,%r8d
     b2f:	48 8d 4d d0          	lea    -0x30(%rbp),%rcx
     b33:	ba 08 00 00 00       	mov    $0x8,%edx
     b38:	48 89 df             	mov    %rbx,%rdi
     b3b:	be 02 00 00 00       	mov    $0x2,%esi
     b40:	49 0f cc             	bswap  %r12
     b43:	4c 89 65 d0          	mov    %r12,-0x30(%rbp)
     b47:	e8 00 00 00 00       	call   b4c <dump_counters+0xbc>
     b4c:	85 c0                	test   %eax,%eax
     b4e:	75 47                	jne    b97 <dump_counters+0x107>
     b50:	8b 93 b8 00 00 00    	mov    0xb8(%rbx),%edx
     b56:	48 03 93 c0 00 00 00 	add    0xc0(%rbx),%rdx
     b5d:	4c 29 ea             	sub    %r13,%rdx
     b60:	66 41 89 55 00       	mov    %dx,0x0(%r13)
     b65:	48 8b 7d d8          	mov    -0x28(%rbp),%rdi
     b69:	65 48 33 3c 25 28 00 	xor    %gs:0x28,%rdi
     b70:	00 00 
     b72:	75 2a                	jne    b9e <dump_counters+0x10e>
     b74:	48 83 c4 10          	add    $0x10,%rsp
     b78:	5b                   	pop    %rbx
     b79:	41 5c                	pop    %r12
     b7b:	41 5d                	pop    %r13
     b7d:	41 5e                	pop    %r14
     b7f:	5d                   	pop    %rbp
     b80:	e9 00 00 00 00       	jmp    b85 <dump_counters+0xf5>
     b85:	45 31 e4             	xor    %r12d,%r12d
     b88:	4d 89 e6             	mov    %r12,%r14
     b8b:	4c 87 32             	xchg   %r14,(%rdx)
     b8e:	4c 87 62 08          	xchg   %r12,0x8(%rdx)
     b92:	e9 3b ff ff ff       	jmp    ad2 <dump_counters+0x42>
     b97:	b8 ff ff ff ff       	mov    $0xffffffff,%eax
     b9c:	eb c7                	jmp    b65 <dump_counters+0xd5>
     b9e:	e8 00 00 00 00       	call   ba3 <dump_counters+0x113>
     ba3:	66 66 2e 0f 1f 84 00 	data16 cs nopw 0x0(%rax,%rax,1)
     baa:	00 00 00 00 
     bae:	66 90                	xchg   %ax,%ax

0000000000000bb0 <ctnetlink_dump_acct>:
     bb0:	e8 00 00 00 00       	call   bb5 <ctnetlink_dump_acct+0x5>
     bb5:	48 8b b6 b8 00 00 00 	mov    0xb8(%rsi),%rsi
     bbc:	31 c0                	xor    %eax,%eax
     bbe:	48 85 f6             	test   %rsi,%rsi
     bc1:	74 51                	je     c14 <ctnetlink_dump_acct+0x64>
     bc3:	55                   	push   %rbp
     bc4:	48 89 e5             	mov    %rsp,%rbp
     bc7:	41 56                	push   %r14
     bc9:	41 55                	push   %r13
     bcb:	41 54                	push   %r12
     bcd:	44 0f b6 66 03       	movzbl 0x3(%rsi),%r12d
     bd2:	45 84 e4             	test   %r12b,%r12b
     bd5:	74 31                	je     c08 <ctnetlink_dump_acct+0x58>
     bd7:	49 01 f4             	add    %rsi,%r12
     bda:	74 2c                	je     c08 <ctnetlink_dump_acct+0x58>
     bdc:	41 89 d6             	mov    %edx,%r14d
     bdf:	89 d1                	mov    %edx,%ecx
     be1:	4c 89 e6             	mov    %r12,%rsi
     be4:	31 d2                	xor    %edx,%edx
     be6:	49 89 fd             	mov    %rdi,%r13
     be9:	e8 a2 fe ff ff       	call   a90 <dump_counters>
     bee:	85 c0                	test   %eax,%eax
     bf0:	78 27                	js     c19 <ctnetlink_dump_acct+0x69>
     bf2:	44 89 f1             	mov    %r14d,%ecx
     bf5:	ba 01 00 00 00       	mov    $0x1,%edx
     bfa:	4c 89 e6             	mov    %r12,%rsi
     bfd:	4c 89 ef             	mov    %r13,%rdi
     c00:	e8 8b fe ff ff       	call   a90 <dump_counters>
     c05:	c1 f8 1f             	sar    $0x1f,%eax
     c08:	41 5c                	pop    %r12
     c0a:	41 5d                	pop    %r13
     c0c:	41 5e                	pop    %r14
     c0e:	5d                   	pop    %rbp
     c0f:	e9 00 00 00 00       	jmp    c14 <ctnetlink_dump_acct+0x64>
     c14:	e9 00 00 00 00       	jmp    c19 <ctnetlink_dump_acct+0x69>
     c19:	b8 ff ff ff ff       	mov    $0xffffffff,%eax
     c1e:	eb e8                	jmp    c08 <ctnetlink_dump_acct+0x58>

0000000000000c20 <ctnetlink_dump_timestamp>:
     c20:	e8 00 00 00 00       	call   c25 <ctnetlink_dump_timestamp+0x5>
     c25:	55                   	push   %rbp
     c26:	48 89 e5             	mov    %rsp,%rbp
     c29:	41 56                	push   %r14
     c2b:	41 55                	push   %r13
     c2d:	45 31 ed             	xor    %r13d,%r13d
     c30:	41 54                	push   %r12
     c32:	53                   	push   %rbx
     c33:	48 83 ec 10          	sub    $0x10,%rsp
     c37:	65 48 8b 04 25 28 00 	mov    %gs:0x28,%rax
     c3e:	00 00 
     c40:	48 89 45 d8          	mov    %rax,-0x28(%rbp)
     c44:	31 c0                	xor    %eax,%eax
     c46:	48 8b 86 b8 00 00 00 	mov    0xb8(%rsi),%rax
     c4d:	48 85 c0             	test   %rax,%rax
     c50:	0f 84 8f 00 00 00    	je     ce5 <ctnetlink_dump_timestamp+0xc5>
     c56:	44 0f b6 60 05       	movzbl 0x5(%rax),%r12d
     c5b:	45 84 e4             	test   %r12b,%r12b
     c5e:	0f 84 81 00 00 00    	je     ce5 <ctnetlink_dump_timestamp+0xc5>
     c64:	49 01 c4             	add    %rax,%r12
     c67:	74 7c                	je     ce5 <ctnetlink_dump_timestamp+0xc5>
     c69:	44 8b b7 b8 00 00 00 	mov    0xb8(%rdi),%r14d
     c70:	31 c9                	xor    %ecx,%ecx
     c72:	31 d2                	xor    %edx,%edx
     c74:	be 14 80 00 00       	mov    $0x8014,%esi
     c79:	4c 03 b7 c0 00 00 00 	add    0xc0(%rdi),%r14
     c80:	48 89 fb             	mov    %rdi,%rbx
     c83:	e8 00 00 00 00       	call   c88 <ctnetlink_dump_timestamp+0x68>
     c88:	4d 85 f6             	test   %r14,%r14
     c8b:	0f 84 9e 00 00 00    	je     d2f <ctnetlink_dump_timestamp+0x10f>
     c91:	85 c0                	test   %eax,%eax
     c93:	0f 88 96 00 00 00    	js     d2f <ctnetlink_dump_timestamp+0x10f>
     c99:	49 8b 04 24          	mov    (%r12),%rax
     c9d:	48 8d 4d d0          	lea    -0x30(%rbp),%rcx
     ca1:	ba 08 00 00 00       	mov    $0x8,%edx
     ca6:	48 89 df             	mov    %rbx,%rdi
     ca9:	41 b8 03 00 00 00    	mov    $0x3,%r8d
     caf:	be 01 00 00 00       	mov    $0x1,%esi
     cb4:	48 0f c8             	bswap  %rax
     cb7:	48 89 45 d0          	mov    %rax,-0x30(%rbp)
     cbb:	e8 00 00 00 00       	call   cc0 <ctnetlink_dump_timestamp+0xa0>
     cc0:	41 89 c5             	mov    %eax,%r13d
     cc3:	85 c0                	test   %eax,%eax
     cc5:	75 68                	jne    d2f <ctnetlink_dump_timestamp+0x10f>
     cc7:	49 8b 44 24 08       	mov    0x8(%r12),%rax
     ccc:	48 85 c0             	test   %rax,%rax
     ccf:	75 37                	jne    d08 <ctnetlink_dump_timestamp+0xe8>
     cd1:	8b 83 b8 00 00 00    	mov    0xb8(%rbx),%eax
     cd7:	48 03 83 c0 00 00 00 	add    0xc0(%rbx),%rax
     cde:	4c 29 f0             	sub    %r14,%rax
     ce1:	66 41 89 06          	mov    %ax,(%r14)
     ce5:	48 8b 45 d8          	mov    -0x28(%rbp),%rax
     ce9:	65 48 33 04 25 28 00 	xor    %gs:0x28,%rax
     cf0:	00 00 
     cf2:	75 43                	jne    d37 <ctnetlink_dump_timestamp+0x117>
     cf4:	48 83 c4 10          	add    $0x10,%rsp
     cf8:	44 89 e8             	mov    %r13d,%eax
     cfb:	5b                   	pop    %rbx
     cfc:	41 5c                	pop    %r12
     cfe:	41 5d                	pop    %r13
     d00:	41 5e                	pop    %r14
     d02:	5d                   	pop    %rbp
     d03:	e9 00 00 00 00       	jmp    d08 <ctnetlink_dump_timestamp+0xe8>
     d08:	41 b8 03 00 00 00    	mov    $0x3,%r8d
     d0e:	48 8d 4d d0          	lea    -0x30(%rbp),%rcx
     d12:	ba 08 00 00 00       	mov    $0x8,%edx
     d17:	48 89 df             	mov    %rbx,%rdi
     d1a:	be 02 00 00 00       	mov    $0x2,%esi
     d1f:	48 0f c8             	bswap  %rax
     d22:	48 89 45 d0          	mov    %rax,-0x30(%rbp)
     d26:	e8 00 00 00 00       	call   d2b <ctnetlink_dump_timestamp+0x10b>
     d2b:	85 c0                	test   %eax,%eax
     d2d:	74 a2                	je     cd1 <ctnetlink_dump_timestamp+0xb1>
     d2f:	41 bd ff ff ff ff    	mov    $0xffffffff,%r13d
     d35:	eb ae                	jmp    ce5 <ctnetlink_dump_timestamp+0xc5>
     d37:	e8 00 00 00 00       	call   d3c <ctnetlink_dump_timestamp+0x11c>
     d3c:	0f 1f 40 00          	nopl   0x0(%rax)

0000000000000d40 <ctnetlink_proto_size>:
     d40:	e8 00 00 00 00       	call   d45 <ctnetlink_proto_size+0x5>
     d45:	55                   	push   %rbp
     d46:	be 05 00 00 00       	mov    $0x5,%esi
     d4b:	48 89 e5             	mov    %rsp,%rbp
     d4e:	41 55                	push   %r13
     d50:	41 54                	push   %r12
     d52:	53                   	push   %rbx
     d53:	48 89 fb             	mov    %rdi,%rbx
     d56:	48 c7 c7 00 00 00 00 	mov    $0x0,%rdi
     d5d:	e8 00 00 00 00       	call   d62 <ctnetlink_proto_size+0x22>
     d62:	0f b6 7b 46          	movzbl 0x46(%rbx),%edi
     d66:	48 98                	cltq   
     d68:	4c 8d 2c 40          	lea    (%rax,%rax,2),%r13
     d6c:	e8 00 00 00 00       	call   d71 <ctnetlink_proto_size+0x31>
     d71:	44 0f b7 60 02       	movzwl 0x2(%rax),%r12d
     d76:	48 8b 40 28          	mov    0x28(%rax),%rax
     d7a:	4d 01 ec             	add    %r13,%r12
     d7d:	48 85 c0             	test   %rax,%rax
     d80:	74 0e                	je     d90 <ctnetlink_proto_size+0x50>
     d82:	e8 00 00 00 00       	call   d87 <ctnetlink_proto_size+0x47>
     d87:	89 c0                	mov    %eax,%eax
     d89:	48 8d 04 40          	lea    (%rax,%rax,2),%rax
     d8d:	49 01 c4             	add    %rax,%r12
     d90:	5b                   	pop    %rbx
     d91:	4c 89 e0             	mov    %r12,%rax
     d94:	41 5c                	pop    %r12
     d96:	41 5d                	pop    %r13
     d98:	5d                   	pop    %rbp
     d99:	e9 00 00 00 00       	jmp    d9e <ctnetlink_proto_size+0x5e>
     d9e:	66 90                	xchg   %ax,%ax

0000000000000da0 <ctnetlink_net_pre_exit>:
     da0:	e8 00 00 00 00       	call   da5 <ctnetlink_net_pre_exit+0x5>
     da5:	55                   	push   %rbp
     da6:	48 89 e5             	mov    %rsp,%rbp
     da9:	e8 00 00 00 00       	call   dae <ctnetlink_net_pre_exit+0xe>
     dae:	5d                   	pop    %rbp
     daf:	e9 00 00 00 00       	jmp    db4 <ctnetlink_net_pre_exit+0x14>
     db4:	66 66 2e 0f 1f 84 00 	data16 cs nopw 0x0(%rax,%rax,1)
     dbb:	00 00 00 00 
     dbf:	90                   	nop

0000000000000dc0 <ctnetlink_net_init>:
     dc0:	e8 00 00 00 00       	call   dc5 <ctnetlink_net_init+0x5>
     dc5:	55                   	push   %rbp
     dc6:	48 c7 c6 00 00 00 00 	mov    $0x0,%rsi
     dcd:	48 89 e5             	mov    %rsp,%rbp
     dd0:	e8 00 00 00 00       	call   dd5 <ctnetlink_net_init+0x15>
     dd5:	31 c0                	xor    %eax,%eax
     dd7:	5d                   	pop    %rbp
     dd8:	e9 00 00 00 00       	jmp    ddd <ctnetlink_net_init+0x1d>
     ddd:	0f 1f 00             	nopl   (%rax)

0000000000000de0 <nf_expect_get_id>:
     de0:	e8 00 00 00 00       	call   de5 <nf_expect_get_id+0x5>
     de5:	55                   	push   %rbp
     de6:	48 89 e5             	mov    %rsp,%rbp
     de9:	41 56                	push   %r14
     deb:	41 55                	push   %r13
     ded:	41 54                	push   %r12
     def:	49 89 fc             	mov    %rdi,%r12
     df2:	48 83 ec 10          	sub    $0x10,%rsp
     df6:	65 48 8b 04 25 28 00 	mov    %gs:0x28,%rax
     dfd:	00 00 
     dff:	48 89 45 e0          	mov    %rax,-0x20(%rbp)
     e03:	31 c0                	xor    %eax,%eax
     e05:	eb 57                	jmp    e5e <nf_expect_get_id+0x7e>
     e07:	4d 8b 6c 24 68       	mov    0x68(%r12),%r13
     e0c:	4d 8b 74 24 70       	mov    0x70(%r12),%r14
     e11:	49 8d 7c 24 20       	lea    0x20(%r12),%rdi
     e16:	48 c7 c2 00 00 00 00 	mov    $0x0,%rdx
     e1d:	be 28 00 00 00       	mov    $0x28,%esi
     e22:	e8 00 00 00 00       	call   e27 <nf_expect_get_id+0x47>
     e27:	4c 89 f2             	mov    %r14,%rdx
     e2a:	4c 89 ee             	mov    %r13,%rsi
     e2d:	4c 89 e7             	mov    %r12,%rdi
     e30:	48 89 c1             	mov    %rax,%rcx
     e33:	49 c7 c0 00 00 00 00 	mov    $0x0,%r8
     e3a:	e8 00 00 00 00       	call   e3f <nf_expect_get_id+0x5f>
     e3f:	48 8b 55 e0          	mov    -0x20(%rbp),%rdx
     e43:	65 48 33 14 25 28 00 	xor    %gs:0x28,%rdx
     e4a:	00 00 
     e4c:	75 58                	jne    ea6 <nf_expect_get_id+0xc6>
     e4e:	48 83 c4 10          	add    $0x10,%rsp
     e52:	41 5c                	pop    %r12
     e54:	41 5d                	pop    %r13
     e56:	41 5e                	pop    %r14
     e58:	5d                   	pop    %rbp
     e59:	e9 00 00 00 00       	jmp    e5e <nf_expect_get_id+0x7e>
     e5e:	48 8d 75 d8          	lea    -0x28(%rbp),%rsi
     e62:	48 c7 c7 00 00 00 00 	mov    $0x0,%rdi
     e69:	e8 00 00 00 00       	call   e6e <nf_expect_get_id+0x8e>
     e6e:	84 c0                	test   %al,%al
     e70:	74 95                	je     e07 <nf_expect_get_id+0x27>
     e72:	be 10 00 00 00       	mov    $0x10,%esi
     e77:	48 c7 c7 00 00 00 00 	mov    $0x0,%rdi
     e7e:	e8 00 00 00 00       	call   e83 <nf_expect_get_id+0xa3>
     e83:	48 c7 c1 00 00 00 00 	mov    $0x0,%rcx
     e8a:	48 8d 55 d8          	lea    -0x28(%rbp),%rdx
     e8e:	48 c7 c6 00 00 00 00 	mov    $0x0,%rsi
     e95:	48 c7 c7 00 00 00 00 	mov    $0x0,%rdi
     e9c:	e8 00 00 00 00       	call   ea1 <nf_expect_get_id+0xc1>
     ea1:	e9 61 ff ff ff       	jmp    e07 <nf_expect_get_id+0x27>
     ea6:	e8 00 00 00 00       	call   eab <nf_expect_get_id+0xcb>
     eab:	0f 1f 44 00 00       	nopl   0x0(%rax,%rax,1)

0000000000000eb0 <ctnetlink_stat_exp_cpu>:
     eb0:	e8 00 00 00 00       	call   eb5 <ctnetlink_stat_exp_cpu+0x5>
     eb5:	55                   	push   %rbp
     eb6:	48 89 e5             	mov    %rsp,%rbp
     eb9:	48 83 ec 38          	sub    $0x38,%rsp
     ebd:	48 8b 56 10          	mov    0x10(%rsi),%rdx
     ec1:	65 48 8b 04 25 28 00 	mov    %gs:0x28,%rax
     ec8:	00 00 
     eca:	48 89 45 f8          	mov    %rax,-0x8(%rbp)
     ece:	31 c0                	xor    %eax,%eax
     ed0:	66 f7 42 06 00 03    	testw  $0x300,0x6(%rdx)
     ed6:	75 15                	jne    eed <ctnetlink_stat_exp_cpu+0x3d>
     ed8:	48 8b 4d f8          	mov    -0x8(%rbp),%rcx
     edc:	65 48 33 0c 25 28 00 	xor    %gs:0x28,%rcx
     ee3:	00 00 
     ee5:	75 39                	jne    f20 <ctnetlink_stat_exp_cpu+0x70>
     ee7:	c9                   	leave  
     ee8:	e9 00 00 00 00       	jmp    eed <ctnetlink_stat_exp_cpu+0x3d>
     eed:	49 89 f8             	mov    %rdi,%r8
     ef0:	31 c0                	xor    %eax,%eax
     ef2:	48 8d 7d c8          	lea    -0x38(%rbp),%rdi
     ef6:	b9 06 00 00 00       	mov    $0x6,%ecx
     efb:	f3 48 ab             	rep stos %rax,%es:(%rdi)
     efe:	48 8b 7e 08          	mov    0x8(%rsi),%rdi
     f02:	48 8d 4d c8          	lea    -0x38(%rbp),%rcx
     f06:	4c 89 c6             	mov    %r8,%rsi
     f09:	48 c7 45 d0 00 00 00 	movq   $0x0,-0x30(%rbp)
     f10:	00 
     f11:	48 c7 45 e8 00 00 00 	movq   $0x0,-0x18(%rbp)
     f18:	00 
     f19:	e8 00 00 00 00       	call   f1e <ctnetlink_stat_exp_cpu+0x6e>
     f1e:	eb b8                	jmp    ed8 <ctnetlink_stat_exp_cpu+0x28>
     f20:	e8 00 00 00 00       	call   f25 <ctnetlink_stat_exp_cpu+0x75>
     f25:	66 66 2e 0f 1f 84 00 	data16 cs nopw 0x0(%rax,%rax,1)
     f2c:	00 00 00 00 

0000000000000f30 <ctnetlink_get_ct_unconfirmed>:
     f30:	e8 00 00 00 00       	call   f35 <ctnetlink_get_ct_unconfirmed+0x5>
     f35:	55                   	push   %rbp
     f36:	48 89 e5             	mov    %rsp,%rbp
     f39:	48 83 ec 38          	sub    $0x38,%rsp
     f3d:	48 8b 56 10          	mov    0x10(%rsi),%rdx
     f41:	65 48 8b 04 25 28 00 	mov    %gs:0x28,%rax
     f48:	00 00 
     f4a:	48 89 45 f8          	mov    %rax,-0x8(%rbp)
     f4e:	31 c0                	xor    %eax,%eax
     f50:	66 f7 42 06 00 03    	testw  $0x300,0x6(%rdx)
     f56:	74 4c                	je     fa4 <ctnetlink_get_ct_unconfirmed+0x74>
     f58:	49 89 f8             	mov    %rdi,%r8
     f5b:	b9 06 00 00 00       	mov    $0x6,%ecx
     f60:	48 8d 7d c8          	lea    -0x38(%rbp),%rdi
     f64:	f3 48 ab             	rep stos %rax,%es:(%rdi)
     f67:	48 8b 7e 08          	mov    0x8(%rsi),%rdi
     f6b:	48 8d 4d c8          	lea    -0x38(%rbp),%rcx
     f6f:	4c 89 c6             	mov    %r8,%rsi
     f72:	48 c7 45 d0 00 00 00 	movq   $0x0,-0x30(%rbp)
     f79:	00 
     f7a:	48 c7 45 d8 00 00 00 	movq   $0x0,-0x28(%rbp)
     f81:	00 
     f82:	48 c7 45 e8 00 00 00 	movq   $0x0,-0x18(%rbp)
     f89:	00 
     f8a:	e8 00 00 00 00       	call   f8f <ctnetlink_get_ct_unconfirmed+0x5f>
     f8f:	48 8b 55 f8          	mov    -0x8(%rbp),%rdx
     f93:	65 48 33 14 25 28 00 	xor    %gs:0x28,%rdx
     f9a:	00 00 
     f9c:	75 0d                	jne    fab <ctnetlink_get_ct_unconfirmed+0x7b>
     f9e:	c9                   	leave  
     f9f:	e9 00 00 00 00       	jmp    fa4 <ctnetlink_get_ct_unconfirmed+0x74>
     fa4:	b8 a1 ff ff ff       	mov    $0xffffffa1,%eax
     fa9:	eb e4                	jmp    f8f <ctnetlink_get_ct_unconfirmed+0x5f>
     fab:	e8 00 00 00 00       	call   fb0 <ctnetlink_get_ct_dying>

0000000000000fb0 <ctnetlink_get_ct_dying>:
     fb0:	e8 00 00 00 00       	call   fb5 <ctnetlink_get_ct_dying+0x5>
     fb5:	55                   	push   %rbp
     fb6:	48 89 e5             	mov    %rsp,%rbp
     fb9:	48 83 ec 38          	sub    $0x38,%rsp
     fbd:	48 8b 56 10          	mov    0x10(%rsi),%rdx
     fc1:	65 48 8b 04 25 28 00 	mov    %gs:0x28,%rax
     fc8:	00 00 
     fca:	48 89 45 f8          	mov    %rax,-0x8(%rbp)
     fce:	31 c0                	xor    %eax,%eax
     fd0:	66 f7 42 06 00 03    	testw  $0x300,0x6(%rdx)
     fd6:	74 4c                	je     1024 <ctnetlink_get_ct_dying+0x74>
     fd8:	49 89 f8             	mov    %rdi,%r8
     fdb:	b9 06 00 00 00       	mov    $0x6,%ecx
     fe0:	48 8d 7d c8          	lea    -0x38(%rbp),%rdi
     fe4:	f3 48 ab             	rep stos %rax,%es:(%rdi)
     fe7:	48 8b 7e 08          	mov    0x8(%rsi),%rdi
     feb:	48 8d 4d c8          	lea    -0x38(%rbp),%rcx
     fef:	4c 89 c6             	mov    %r8,%rsi
     ff2:	48 c7 45 d0 00 00 00 	movq   $0x0,-0x30(%rbp)
     ff9:	00 
     ffa:	48 c7 45 d8 00 00 00 	movq   $0x0,-0x28(%rbp)
    1001:	00 
    1002:	48 c7 45 e8 00 00 00 	movq   $0x0,-0x18(%rbp)
    1009:	00 
    100a:	e8 00 00 00 00       	call   100f <ctnetlink_get_ct_dying+0x5f>
    100f:	48 8b 55 f8          	mov    -0x8(%rbp),%rdx
    1013:	65 48 33 14 25 28 00 	xor    %gs:0x28,%rdx
    101a:	00 00 
    101c:	75 0d                	jne    102b <ctnetlink_get_ct_dying+0x7b>
    101e:	c9                   	leave  
    101f:	e9 00 00 00 00       	jmp    1024 <ctnetlink_get_ct_dying+0x74>
    1024:	b8 a1 ff ff ff       	mov    $0xffffffa1,%eax
    1029:	eb e4                	jmp    100f <ctnetlink_get_ct_dying+0x5f>
    102b:	e8 00 00 00 00       	call   1030 <ctnetlink_stat_ct_cpu>

0000000000001030 <ctnetlink_stat_ct_cpu>:
    1030:	e8 00 00 00 00       	call   1035 <ctnetlink_stat_ct_cpu+0x5>
    1035:	55                   	push   %rbp
    1036:	48 89 e5             	mov    %rsp,%rbp
    1039:	48 83 ec 38          	sub    $0x38,%rsp
    103d:	48 8b 56 10          	mov    0x10(%rsi),%rdx
    1041:	65 48 8b 04 25 28 00 	mov    %gs:0x28,%rax
    1048:	00 00 
    104a:	48 89 45 f8          	mov    %rax,-0x8(%rbp)
    104e:	31 c0                	xor    %eax,%eax
    1050:	66 f7 42 06 00 03    	testw  $0x300,0x6(%rdx)
    1056:	75 15                	jne    106d <ctnetlink_stat_ct_cpu+0x3d>
    1058:	48 8b 4d f8          	mov    -0x8(%rbp),%rcx
    105c:	65 48 33 0c 25 28 00 	xor    %gs:0x28,%rcx
    1063:	00 00 
    1065:	75 39                	jne    10a0 <ctnetlink_stat_ct_cpu+0x70>
    1067:	c9                   	leave  
    1068:	e9 00 00 00 00       	jmp    106d <ctnetlink_stat_ct_cpu+0x3d>
    106d:	49 89 f8             	mov    %rdi,%r8
    1070:	31 c0                	xor    %eax,%eax
    1072:	48 8d 7d c8          	lea    -0x38(%rbp),%rdi
    1076:	b9 06 00 00 00       	mov    $0x6,%ecx
    107b:	f3 48 ab             	rep stos %rax,%es:(%rdi)
    107e:	48 8b 7e 08          	mov    0x8(%rsi),%rdi
    1082:	48 8d 4d c8          	lea    -0x38(%rbp),%rcx
    1086:	4c 89 c6             	mov    %r8,%rsi
    1089:	48 c7 45 d0 00 00 00 	movq   $0x0,-0x30(%rbp)
    1090:	00 
    1091:	48 c7 45 e8 00 00 00 	movq   $0x0,-0x18(%rbp)
    1098:	00 
    1099:	e8 00 00 00 00       	call   109e <ctnetlink_stat_ct_cpu+0x6e>
    109e:	eb b8                	jmp    1058 <ctnetlink_stat_ct_cpu+0x28>
    10a0:	e8 00 00 00 00       	call   10a5 <ctnetlink_stat_ct_cpu+0x75>
    10a5:	66 66 2e 0f 1f 84 00 	data16 cs nopw 0x0(%rax,%rax,1)
    10ac:	00 00 00 00 

00000000000010b0 <__ctnetlink_change_status>:
    10b0:	e8 00 00 00 00       	call   10b5 <__ctnetlink_change_status+0x5>
    10b5:	55                   	push   %rbp
    10b6:	48 81 e6 06 24 ff ff 	and    $0xffffffffffff2406,%rsi
    10bd:	31 c9                	xor    %ecx,%ecx
    10bf:	41 b8 01 00 00 00    	mov    $0x1,%r8d
    10c5:	48 81 e2 06 24 ff ff 	and    $0xffffffffffff2406,%rdx
    10cc:	48 89 e5             	mov    %rsp,%rbp
    10cf:	eb 0f                	jmp    10e0 <__ctnetlink_change_status+0x30>
    10d1:	48 85 d0             	test   %rdx,%rax
    10d4:	75 2f                	jne    1105 <__ctnetlink_change_status+0x55>
    10d6:	48 83 c1 01          	add    $0x1,%rcx
    10da:	48 83 f9 10          	cmp    $0x10,%rcx
    10de:	74 1f                	je     10ff <__ctnetlink_change_status+0x4f>
    10e0:	44 89 c0             	mov    %r8d,%eax
    10e3:	d3 e0                	shl    %cl,%eax
    10e5:	48 98                	cltq   
    10e7:	48 85 f0             	test   %rsi,%rax
    10ea:	74 e5                	je     10d1 <__ctnetlink_change_status+0x21>
    10ec:	f0 48 0f ab 8f 80 00 	lock bts %rcx,0x80(%rdi)
    10f3:	00 00 
    10f5:	48 83 c1 01          	add    $0x1,%rcx
    10f9:	48 83 f9 10          	cmp    $0x10,%rcx
    10fd:	75 e1                	jne    10e0 <__ctnetlink_change_status+0x30>
    10ff:	5d                   	pop    %rbp
    1100:	e9 00 00 00 00       	jmp    1105 <__ctnetlink_change_status+0x55>
    1105:	f0 48 0f b3 8f 80 00 	lock btr %rcx,0x80(%rdi)
    110c:	00 00 
    110e:	eb c6                	jmp    10d6 <__ctnetlink_change_status+0x26>

0000000000001110 <ctnetlink_change_status>:
    1110:	e8 00 00 00 00       	call   1115 <ctnetlink_change_status+0x5>
    1115:	48 8b 46 18          	mov    0x18(%rsi),%rax
    1119:	48 8b 97 80 00 00 00 	mov    0x80(%rdi),%rdx
    1120:	8b 40 04             	mov    0x4(%rax),%eax
    1123:	0f c8                	bswap  %eax
    1125:	89 c6                	mov    %eax,%esi
    1127:	48 31 f2             	xor    %rsi,%rdx
    112a:	f7 c2 09 02 00 00    	test   $0x209,%edx
    1130:	75 25                	jne    1157 <ctnetlink_change_status+0x47>
    1132:	f6 c2 02             	test   $0x2,%dl
    1135:	75 1c                	jne    1153 <ctnetlink_change_status+0x43>
    1137:	83 e2 04             	and    $0x4,%edx
    113a:	74 04                	je     1140 <ctnetlink_change_status+0x30>
    113c:	a8 04                	test   $0x4,%al
    113e:	74 17                	je     1157 <ctnetlink_change_status+0x47>
    1140:	55                   	push   %rbp
    1141:	31 d2                	xor    %edx,%edx
    1143:	48 89 e5             	mov    %rsp,%rbp
    1146:	e8 65 ff ff ff       	call   10b0 <__ctnetlink_change_status>
    114b:	31 c0                	xor    %eax,%eax
    114d:	5d                   	pop    %rbp
    114e:	e9 00 00 00 00       	jmp    1153 <ctnetlink_change_status+0x43>
    1153:	a8 02                	test   $0x2,%al
    1155:	75 e0                	jne    1137 <ctnetlink_change_status+0x27>
    1157:	b8 f0 ff ff ff       	mov    $0xfffffff0,%eax
    115c:	e9 00 00 00 00       	jmp    1161 <ctnetlink_change_status+0x51>
    1161:	66 66 2e 0f 1f 84 00 	data16 cs nopw 0x0(%rax,%rax,1)
    1168:	00 00 00 00 
    116c:	0f 1f 40 00          	nopl   0x0(%rax)

0000000000001170 <ipv6_nlattr_to_tuple.isra.0>:
    1170:	e8 00 00 00 00       	call   1175 <ipv6_nlattr_to_tuple.isra.0+0x5>
    1175:	55                   	push   %rbp
    1176:	48 89 e5             	mov    %rsp,%rbp
    1179:	41 56                	push   %r14
    117b:	49 89 fe             	mov    %rdi,%r14
    117e:	41 55                	push   %r13
    1180:	49 89 d5             	mov    %rdx,%r13
    1183:	41 54                	push   %r12
    1185:	53                   	push   %rbx
    1186:	89 cb                	mov    %ecx,%ebx
    1188:	48 83 e4 f0          	and    $0xfffffffffffffff0,%rsp
    118c:	48 83 ec 20          	sub    $0x20,%rsp
    1190:	65 48 8b 04 25 28 00 	mov    %gs:0x28,%rax
    1197:	00 00 
    1199:	48 89 44 24 18       	mov    %rax,0x18(%rsp)
    119e:	31 c0                	xor    %eax,%eax
    11a0:	83 e1 01             	and    $0x1,%ecx
    11a3:	74 2b                	je     11d0 <ipv6_nlattr_to_tuple.isra.0+0x60>
    11a5:	49 89 f4             	mov    %rsi,%r12
    11a8:	48 8b 77 18          	mov    0x18(%rdi),%rsi
    11ac:	48 85 f6             	test   %rsi,%rsi
    11af:	74 72                	je     1223 <ipv6_nlattr_to_tuple.isra.0+0xb3>
    11b1:	ba 10 00 00 00       	mov    $0x10,%edx
    11b6:	48 89 e7             	mov    %rsp,%rdi
    11b9:	e8 00 00 00 00       	call   11be <ipv6_nlattr_to_tuple.isra.0+0x4e>
    11be:	48 8b 04 24          	mov    (%rsp),%rax
    11c2:	48 8b 54 24 08       	mov    0x8(%rsp),%rdx
    11c7:	49 89 04 24          	mov    %rax,(%r12)
    11cb:	49 89 54 24 08       	mov    %rdx,0x8(%r12)
    11d0:	45 31 e4             	xor    %r12d,%r12d
    11d3:	83 e3 02             	and    $0x2,%ebx
    11d6:	74 27                	je     11ff <ipv6_nlattr_to_tuple.isra.0+0x8f>
    11d8:	49 8b 76 20          	mov    0x20(%r14),%rsi
    11dc:	48 85 f6             	test   %rsi,%rsi
    11df:	74 42                	je     1223 <ipv6_nlattr_to_tuple.isra.0+0xb3>
    11e1:	ba 10 00 00 00       	mov    $0x10,%edx
    11e6:	48 89 e7             	mov    %rsp,%rdi
    11e9:	e8 00 00 00 00       	call   11ee <ipv6_nlattr_to_tuple.isra.0+0x7e>
    11ee:	48 8b 04 24          	mov    (%rsp),%rax
    11f2:	48 8b 54 24 08       	mov    0x8(%rsp),%rdx
    11f7:	49 89 45 00          	mov    %rax,0x0(%r13)
    11fb:	49 89 55 08          	mov    %rdx,0x8(%r13)
    11ff:	48 8b 44 24 18       	mov    0x18(%rsp),%rax
    1204:	65 48 33 04 25 28 00 	xor    %gs:0x28,%rax
    120b:	00 00 
    120d:	75 1c                	jne    122b <ipv6_nlattr_to_tuple.isra.0+0xbb>
    120f:	48 8d 65 e0          	lea    -0x20(%rbp),%rsp
    1213:	44 89 e0             	mov    %r12d,%eax
    1216:	5b                   	pop    %rbx
    1217:	41 5c                	pop    %r12
    1219:	41 5d                	pop    %r13
    121b:	41 5e                	pop    %r14
    121d:	5d                   	pop    %rbp
    121e:	e9 00 00 00 00       	jmp    1223 <ipv6_nlattr_to_tuple.isra.0+0xb3>
    1223:	41 bc ea ff ff ff    	mov    $0xffffffea,%r12d
    1229:	eb d4                	jmp    11ff <ipv6_nlattr_to_tuple.isra.0+0x8f>
    122b:	e8 00 00 00 00       	call   1230 <ctnetlink_parse_tuple_filter>

0000000000001230 <ctnetlink_parse_tuple_filter>:
    1230:	e8 00 00 00 00       	call   1235 <ctnetlink_parse_tuple_filter+0x5>
    1235:	55                   	push   %rbp
    1236:	48 89 e5             	mov    %rsp,%rbp
    1239:	41 57                	push   %r15
    123b:	41 89 cf             	mov    %ecx,%r15d
    123e:	41 56                	push   %r14
    1240:	4d 89 c6             	mov    %r8,%r14
    1243:	49 c7 c0 00 00 00 00 	mov    $0x0,%r8
    124a:	41 55                	push   %r13
    124c:	41 89 d5             	mov    %edx,%r13d
    124f:	41 54                	push   %r12
    1251:	45 89 cc             	mov    %r9d,%r12d
    1254:	45 31 c9             	xor    %r9d,%r9d
    1257:	53                   	push   %rbx
    1258:	48 89 f3             	mov    %rsi,%rbx
    125b:	48 83 ec 58          	sub    $0x58,%rsp
    125f:	65 48 8b 04 25 28 00 	mov    %gs:0x28,%rax
    1266:	00 00 
    1268:	48 89 45 d0          	mov    %rax,-0x30(%rbp)
    126c:	31 c0                	xor    %eax,%eax
    126e:	89 d0                	mov    %edx,%eax
    1270:	48 c7 06 00 00 00 00 	movq   $0x0,(%rsi)
    1277:	48 c7 46 08 00 00 00 	movq   $0x0,0x8(%rsi)
    127e:	00 
    127f:	48 c7 46 10 00 00 00 	movq   $0x0,0x10(%rsi)
    1286:	00 
    1287:	48 c7 46 18 00 00 00 	movq   $0x0,0x18(%rsi)
    128e:	00 
    128f:	48 c7 46 20 00 00 00 	movq   $0x0,0x20(%rsi)
    1296:	00 
    1297:	48 8b 14 c7          	mov    (%rdi,%rax,8),%rdx
    129b:	be 03 00 00 00       	mov    $0x3,%esi
    12a0:	48 8d 7d 88          	lea    -0x78(%rbp),%rdi
    12a4:	0f b7 0a             	movzwl (%rdx),%ecx
    12a7:	6a 00                	push   $0x0
    12a9:	48 83 c2 04          	add    $0x4,%rdx
    12ad:	83 e9 04             	sub    $0x4,%ecx
    12b0:	e8 00 00 00 00       	call   12b5 <ctnetlink_parse_tuple_filter+0x85>
    12b5:	5e                   	pop    %rsi
    12b6:	85 c0                	test   %eax,%eax
    12b8:	0f 88 1c 01 00 00    	js     13da <ctnetlink_parse_tuple_filter+0x1aa>
    12be:	44 89 f8             	mov    %r15d,%eax
    12c1:	83 e0 f7             	and    $0xfffffff7,%eax
    12c4:	3c 02                	cmp    $0x2,%al
    12c6:	0f 85 ad 01 00 00    	jne    1479 <ctnetlink_parse_tuple_filter+0x249>
    12cc:	45 0f b6 ff          	movzbl %r15b,%r15d
    12d0:	66 44 89 7b 12       	mov    %r15w,0x12(%rbx)
    12d5:	41 f6 c4 03          	test   $0x3,%r12b
    12d9:	0f 84 92 00 00 00    	je     1371 <ctnetlink_parse_tuple_filter+0x141>
    12df:	4c 8b 7d 90          	mov    -0x70(%rbp),%r15
    12e3:	4d 85 ff             	test   %r15,%r15
    12e6:	0f 84 83 01 00 00    	je     146f <ctnetlink_parse_tuple_filter+0x23f>
    12ec:	41 0f b7 0f          	movzwl (%r15),%ecx
    12f0:	6a 00                	push   $0x0
    12f2:	4d 8d 57 04          	lea    0x4(%r15),%r10
    12f6:	45 31 c9             	xor    %r9d,%r9d
    12f9:	45 31 c0             	xor    %r8d,%r8d
    12fc:	4c 89 d2             	mov    %r10,%rdx
    12ff:	be 04 00 00 00       	mov    $0x4,%esi
    1304:	4c 89 55 80          	mov    %r10,-0x80(%rbp)
    1308:	83 e9 04             	sub    $0x4,%ecx
    130b:	48 8d 7d a8          	lea    -0x58(%rbp),%rdi
    130f:	e8 00 00 00 00       	call   1314 <ctnetlink_parse_tuple_filter+0xe4>
    1314:	59                   	pop    %rcx
    1315:	85 c0                	test   %eax,%eax
    1317:	0f 88 bd 00 00 00    	js     13da <ctnetlink_parse_tuple_filter+0x1aa>
    131d:	41 0f b7 37          	movzwl (%r15),%esi
    1321:	4c 8b 55 80          	mov    -0x80(%rbp),%r10
    1325:	45 31 c9             	xor    %r9d,%r9d
    1328:	45 31 c0             	xor    %r8d,%r8d
    132b:	48 c7 c1 00 00 00 00 	mov    $0x0,%rcx
    1332:	ba 04 00 00 00       	mov    $0x4,%edx
    1337:	83 ee 04             	sub    $0x4,%esi
    133a:	4c 89 d7             	mov    %r10,%rdi
    133d:	e8 00 00 00 00       	call   1342 <ctnetlink_parse_tuple_filter+0x112>
    1342:	85 c0                	test   %eax,%eax
    1344:	75 27                	jne    136d <ctnetlink_parse_tuple_filter+0x13d>
    1346:	0f b7 43 12          	movzwl 0x12(%rbx),%eax
    134a:	66 83 f8 02          	cmp    $0x2,%ax
    134e:	0f 84 e9 00 00 00    	je     143d <ctnetlink_parse_tuple_filter+0x20d>
    1354:	66 83 f8 0a          	cmp    $0xa,%ax
    1358:	75 17                	jne    1371 <ctnetlink_parse_tuple_filter+0x141>
    135a:	48 8d 53 14          	lea    0x14(%rbx),%rdx
    135e:	44 89 e1             	mov    %r12d,%ecx
    1361:	48 8d 7d a8          	lea    -0x58(%rbp),%rdi
    1365:	48 89 de             	mov    %rbx,%rsi
    1368:	e8 03 fe ff ff       	call   1170 <ipv6_nlattr_to_tuple.isra.0>
    136d:	85 c0                	test   %eax,%eax
    136f:	78 69                	js     13da <ctnetlink_parse_tuple_filter+0x1aa>
    1371:	41 f6 c4 08          	test   $0x8,%r12b
    1375:	0f 85 85 00 00 00    	jne    1400 <ctnetlink_parse_tuple_filter+0x1d0>
    137b:	41 f7 c4 f0 0f 00 00 	test   $0xff0,%r12d
    1382:	0f 85 e7 00 00 00    	jne    146f <ctnetlink_parse_tuple_filter+0x23f>
    1388:	41 83 e4 04          	and    $0x4,%r12d
    138c:	0f 84 90 00 00 00    	je     1422 <ctnetlink_parse_tuple_filter+0x1f2>
    1392:	48 8b 45 a0          	mov    -0x60(%rbp),%rax
    1396:	48 85 c0             	test   %rax,%rax
    1399:	0f 84 83 00 00 00    	je     1422 <ctnetlink_parse_tuple_filter+0x1f2>
    139f:	4d 85 f6             	test   %r14,%r14
    13a2:	0f 84 c7 00 00 00    	je     146f <ctnetlink_parse_tuple_filter+0x23f>
    13a8:	66 41 83 3e 00       	cmpw   $0x0,(%r14)
    13ad:	0f 85 bc 00 00 00    	jne    146f <ctnetlink_parse_tuple_filter+0x23f>
    13b3:	ba 00 03 00 00       	mov    $0x300,%edx
    13b8:	66 41 89 56 02       	mov    %dx,0x2(%r14)
    13bd:	0f b7 40 04          	movzwl 0x4(%rax),%eax
    13c1:	66 c1 c0 08          	rol    $0x8,%ax
    13c5:	66 41 89 06          	mov    %ax,(%r14)
    13c9:	41 83 fd 02          	cmp    $0x2,%r13d
    13cd:	74 61                	je     1430 <ctnetlink_parse_tuple_filter+0x200>
    13cf:	41 c6 46 03 01       	movb   $0x1,0x3(%r14)
    13d4:	31 c0                	xor    %eax,%eax
    13d6:	c6 43 27 00          	movb   $0x0,0x27(%rbx)
    13da:	48 8b 75 d0          	mov    -0x30(%rbp),%rsi
    13de:	65 48 33 34 25 28 00 	xor    %gs:0x28,%rsi
    13e5:	00 00 
    13e7:	0f 85 96 00 00 00    	jne    1483 <ctnetlink_parse_tuple_filter+0x253>
    13ed:	48 8d 65 d8          	lea    -0x28(%rbp),%rsp
    13f1:	5b                   	pop    %rbx
    13f2:	41 5c                	pop    %r12
    13f4:	41 5d                	pop    %r13
    13f6:	41 5e                	pop    %r14
    13f8:	41 5f                	pop    %r15
    13fa:	5d                   	pop    %rbp
    13fb:	e9 00 00 00 00       	jmp    1400 <ctnetlink_parse_tuple_filter+0x1d0>
    1400:	48 8b 7d 98          	mov    -0x68(%rbp),%rdi
    1404:	48 85 ff             	test   %rdi,%rdi
    1407:	74 66                	je     146f <ctnetlink_parse_tuple_filter+0x23f>
    1409:	44 89 e2             	mov    %r12d,%edx
    140c:	48 89 de             	mov    %rbx,%rsi
    140f:	e8 0c ed ff ff       	call   120 <ctnetlink_parse_tuple_proto>
    1414:	85 c0                	test   %eax,%eax
    1416:	78 c2                	js     13da <ctnetlink_parse_tuple_filter+0x1aa>
    1418:	41 83 e4 04          	and    $0x4,%r12d
    141c:	0f 85 70 ff ff ff    	jne    1392 <ctnetlink_parse_tuple_filter+0x162>
    1422:	41 83 fd 02          	cmp    $0x2,%r13d
    1426:	74 0d                	je     1435 <ctnetlink_parse_tuple_filter+0x205>
    1428:	c6 43 27 00          	movb   $0x0,0x27(%rbx)
    142c:	31 c0                	xor    %eax,%eax
    142e:	eb aa                	jmp    13da <ctnetlink_parse_tuple_filter+0x1aa>
    1430:	41 c6 46 03 02       	movb   $0x2,0x3(%r14)
    1435:	c6 43 27 01          	movb   $0x1,0x27(%rbx)
    1439:	31 c0                	xor    %eax,%eax
    143b:	eb 9d                	jmp    13da <ctnetlink_parse_tuple_filter+0x1aa>
    143d:	41 f6 c4 01          	test   $0x1,%r12b
    1441:	74 0e                	je     1451 <ctnetlink_parse_tuple_filter+0x221>
    1443:	48 8b 45 b0          	mov    -0x50(%rbp),%rax
    1447:	48 85 c0             	test   %rax,%rax
    144a:	74 23                	je     146f <ctnetlink_parse_tuple_filter+0x23f>
    144c:	8b 40 04             	mov    0x4(%rax),%eax
    144f:	89 03                	mov    %eax,(%rbx)
    1451:	41 f6 c4 02          	test   $0x2,%r12b
    1455:	0f 84 16 ff ff ff    	je     1371 <ctnetlink_parse_tuple_filter+0x141>
    145b:	48 8b 45 b8          	mov    -0x48(%rbp),%rax
    145f:	48 85 c0             	test   %rax,%rax
    1462:	74 0b                	je     146f <ctnetlink_parse_tuple_filter+0x23f>
    1464:	8b 40 04             	mov    0x4(%rax),%eax
    1467:	89 43 14             	mov    %eax,0x14(%rbx)
    146a:	e9 02 ff ff ff       	jmp    1371 <ctnetlink_parse_tuple_filter+0x141>
    146f:	b8 ea ff ff ff       	mov    $0xffffffea,%eax
    1474:	e9 61 ff ff ff       	jmp    13da <ctnetlink_parse_tuple_filter+0x1aa>
    1479:	b8 a1 ff ff ff       	mov    $0xffffffa1,%eax
    147e:	e9 57 ff ff ff       	jmp    13da <ctnetlink_parse_tuple_filter+0x1aa>
    1483:	e8 00 00 00 00       	call   1488 <ctnetlink_parse_tuple_filter+0x258>
    1488:	0f 1f 84 00 00 00 00 	nopl   0x0(%rax,%rax,1)
    148f:	00 

0000000000001490 <ctnetlink_del_expect>:
    1490:	e8 00 00 00 00       	call   1495 <ctnetlink_del_expect+0x5>
    1495:	55                   	push   %rbp
    1496:	48 89 e5             	mov    %rsp,%rbp
    1499:	41 56                	push   %r14
    149b:	41 55                	push   %r13
    149d:	49 89 fd             	mov    %rdi,%r13
    14a0:	41 54                	push   %r12
    14a2:	49 89 f4             	mov    %rsi,%r12
    14a5:	53                   	push   %rbx
    14a6:	48 89 d3             	mov    %rdx,%rbx
    14a9:	48 83 ec 38          	sub    $0x38,%rsp
    14ad:	65 48 8b 04 25 28 00 	mov    %gs:0x28,%rax
    14b4:	00 00 
    14b6:	48 89 45 d8          	mov    %rax,-0x28(%rbp)
    14ba:	31 c0                	xor    %eax,%eax
    14bc:	48 83 7a 10 00       	cmpq   $0x0,0x10(%rdx)
    14c1:	0f 84 fc 00 00 00    	je     15c3 <ctnetlink_del_expect+0x133>
    14c7:	48 8b 46 18          	mov    0x18(%rsi),%rax
    14cb:	0f b6 08             	movzbl (%rax),%ecx
    14ce:	48 8b 42 38          	mov    0x38(%rdx),%rax
    14d2:	c7 45 ac 00 00 00 03 	movl   $0x3000000,-0x54(%rbp)
    14d9:	48 85 c0             	test   %rax,%rax
    14dc:	74 0c                	je     14ea <ctnetlink_del_expect+0x5a>
    14de:	0f b7 40 04          	movzwl 0x4(%rax),%eax
    14e2:	66 c1 c0 08          	rol    $0x8,%ax
    14e6:	66 89 45 ac          	mov    %ax,-0x54(%rbp)
    14ea:	45 31 c0             	xor    %r8d,%r8d
    14ed:	41 b9 ff 0f 00 00    	mov    $0xfff,%r9d
    14f3:	48 8d 75 b0          	lea    -0x50(%rbp),%rsi
    14f7:	48 89 df             	mov    %rbx,%rdi
    14fa:	ba 02 00 00 00       	mov    $0x2,%edx
    14ff:	e8 2c fd ff ff       	call   1230 <ctnetlink_parse_tuple_filter>
    1504:	85 c0                	test   %eax,%eax
    1506:	0f 88 93 00 00 00    	js     159f <ctnetlink_del_expect+0x10f>
    150c:	49 8b 3c 24          	mov    (%r12),%rdi
    1510:	48 8d 55 b0          	lea    -0x50(%rbp),%rdx
    1514:	48 8d 75 ac          	lea    -0x54(%rbp),%rsi
    1518:	e8 00 00 00 00       	call   151d <ctnetlink_del_expect+0x8d>
    151d:	49 89 c6             	mov    %rax,%r14
    1520:	48 85 c0             	test   %rax,%rax
    1523:	0f 84 1e 01 00 00    	je     1647 <ctnetlink_del_expect+0x1b7>
    1529:	48 8b 43 28          	mov    0x28(%rbx),%rax
    152d:	48 85 c0             	test   %rax,%rax
    1530:	74 13                	je     1545 <ctnetlink_del_expect+0xb5>
    1532:	8b 58 04             	mov    0x4(%rax),%ebx
    1535:	4c 89 f7             	mov    %r14,%rdi
    1538:	e8 a3 f8 ff ff       	call   de0 <nf_expect_get_id>
    153d:	39 d8                	cmp    %ebx,%eax
    153f:	0f 85 f0 00 00 00    	jne    1635 <ctnetlink_del_expect+0x1a5>
    1545:	48 c7 c7 00 00 00 00 	mov    $0x0,%rdi
    154c:	e8 00 00 00 00       	call   1551 <ctnetlink_del_expect+0xc1>
    1551:	49 8d 7e 78          	lea    0x78(%r14),%rdi
    1555:	e8 00 00 00 00       	call   155a <ctnetlink_del_expect+0xca>
    155a:	85 c0                	test   %eax,%eax
    155c:	74 2b                	je     1589 <ctnetlink_del_expect+0xf9>
    155e:	49 8b 44 24 10       	mov    0x10(%r12),%rax
    1563:	31 d2                	xor    %edx,%edx
    1565:	48 85 c0             	test   %rax,%rax
    1568:	74 0b                	je     1575 <ctnetlink_del_expect+0xe5>
    156a:	0f b7 50 06          	movzwl 0x6(%rax),%edx
    156e:	66 c1 ea 03          	shr    $0x3,%dx
    1572:	83 e2 01             	and    $0x1,%edx
    1575:	41 8b 75 34          	mov    0x34(%r13),%esi
    1579:	4c 89 f7             	mov    %r14,%rdi
    157c:	e8 00 00 00 00       	call   1581 <ctnetlink_del_expect+0xf1>
    1581:	4c 89 f7             	mov    %r14,%rdi
    1584:	e8 00 00 00 00       	call   1589 <ctnetlink_del_expect+0xf9>
    1589:	48 c7 c7 00 00 00 00 	mov    $0x0,%rdi
    1590:	e8 00 00 00 00       	call   1595 <ctnetlink_del_expect+0x105>
    1595:	4c 89 f7             	mov    %r14,%rdi
    1598:	e8 00 00 00 00       	call   159d <ctnetlink_del_expect+0x10d>
    159d:	31 c0                	xor    %eax,%eax
    159f:	48 8b 4d d8          	mov    -0x28(%rbp),%rcx
    15a3:	65 48 33 0c 25 28 00 	xor    %gs:0x28,%rcx
    15aa:	00 00 
    15ac:	0f 85 9f 00 00 00    	jne    1651 <ctnetlink_del_expect+0x1c1>
    15b2:	48 83 c4 38          	add    $0x38,%rsp
    15b6:	5b                   	pop    %rbx
    15b7:	41 5c                	pop    %r12
    15b9:	41 5d                	pop    %r13
    15bb:	41 5e                	pop    %r14
    15bd:	5d                   	pop    %rbp
    15be:	e9 00 00 00 00       	jmp    15c3 <ctnetlink_del_expect+0x133>
    15c3:	48 8b 52 30          	mov    0x30(%rdx),%rdx
    15c7:	48 8b 46 10          	mov    0x10(%rsi),%rax
    15cb:	48 85 d2             	test   %rdx,%rdx
    15ce:	74 32                	je     1602 <ctnetlink_del_expect+0x172>
    15d0:	48 83 c2 04          	add    $0x4,%rdx
    15d4:	45 31 c0             	xor    %r8d,%r8d
    15d7:	48 85 c0             	test   %rax,%rax
    15da:	74 0e                	je     15ea <ctnetlink_del_expect+0x15a>
    15dc:	44 0f b7 40 06       	movzwl 0x6(%rax),%r8d
    15e1:	66 41 c1 e8 03       	shr    $0x3,%r8w
    15e6:	41 83 e0 01          	and    $0x1,%r8d
    15ea:	41 8b 4d 34          	mov    0x34(%r13),%ecx
    15ee:	49 8b 3c 24          	mov    (%r12),%rdi
    15f2:	48 c7 c6 00 00 00 00 	mov    $0x0,%rsi
    15f9:	e8 00 00 00 00       	call   15fe <ctnetlink_del_expect+0x16e>
    15fe:	31 c0                	xor    %eax,%eax
    1600:	eb 9d                	jmp    159f <ctnetlink_del_expect+0x10f>
    1602:	45 31 c0             	xor    %r8d,%r8d
    1605:	48 85 c0             	test   %rax,%rax
    1608:	74 0e                	je     1618 <ctnetlink_del_expect+0x188>
    160a:	44 0f b7 40 06       	movzwl 0x6(%rax),%r8d
    160f:	66 41 c1 e8 03       	shr    $0x3,%r8w
    1614:	41 83 e0 01          	and    $0x1,%r8d
    1618:	41 8b 4d 34          	mov    0x34(%r13),%ecx
    161c:	49 8b 3c 24          	mov    (%r12),%rdi
    1620:	31 d2                	xor    %edx,%edx
    1622:	48 c7 c6 00 00 00 00 	mov    $0x0,%rsi
    1629:	e8 00 00 00 00       	call   162e <ctnetlink_del_expect+0x19e>
    162e:	31 c0                	xor    %eax,%eax
    1630:	e9 6a ff ff ff       	jmp    159f <ctnetlink_del_expect+0x10f>
    1635:	4c 89 f7             	mov    %r14,%rdi
    1638:	e8 00 00 00 00       	call   163d <ctnetlink_del_expect+0x1ad>
    163d:	b8 fe ff ff ff       	mov    $0xfffffffe,%eax
    1642:	e9 58 ff ff ff       	jmp    159f <ctnetlink_del_expect+0x10f>
    1647:	b8 fe ff ff ff       	mov    $0xfffffffe,%eax
    164c:	e9 4e ff ff ff       	jmp    159f <ctnetlink_del_expect+0x10f>
    1651:	e8 00 00 00 00       	call   1656 <ctnetlink_del_expect+0x1c6>
    1656:	66 2e 0f 1f 84 00 00 	cs nopw 0x0(%rax,%rax,1)
    165d:	00 00 00 

0000000000001660 <ctnetlink_alloc_expect.isra.0>:
    1660:	e8 00 00 00 00       	call   1665 <ctnetlink_alloc_expect.isra.0+0x5>
    1665:	55                   	push   %rbp
    1666:	48 89 e5             	mov    %rsp,%rbp
    1669:	41 57                	push   %r15
    166b:	41 56                	push   %r14
    166d:	41 55                	push   %r13
    166f:	49 89 cd             	mov    %rcx,%r13
    1672:	41 54                	push   %r12
    1674:	49 c7 c4 a1 ff ff ff 	mov    $0xffffffffffffffa1,%r12
    167b:	41 52                	push   %r10
    167d:	53                   	push   %rbx
    167e:	48 83 ec 60          	sub    $0x60,%rsp
    1682:	48 8b 8e b8 00 00 00 	mov    0xb8(%rsi),%rcx
    1689:	65 48 8b 04 25 28 00 	mov    %gs:0x28,%rax
    1690:	00 00 
    1692:	48 89 45 c8          	mov    %rax,-0x38(%rbp)
    1696:	31 c0                	xor    %eax,%eax
    1698:	48 85 c9             	test   %rcx,%rcx
    169b:	0f 84 20 02 00 00    	je     18c1 <ctnetlink_alloc_expect.isra.0+0x261>
    16a1:	0f b6 01             	movzbl (%rcx),%eax
    16a4:	84 c0                	test   %al,%al
    16a6:	0f 84 15 02 00 00    	je     18c1 <ctnetlink_alloc_expect.isra.0+0x261>
    16ac:	48 01 c1             	add    %rax,%rcx
    16af:	0f 84 0c 02 00 00    	je     18c1 <ctnetlink_alloc_expect.isra.0+0x261>
    16b5:	48 8b 47 48          	mov    0x48(%rdi),%rax
    16b9:	49 89 fe             	mov    %rdi,%r14
    16bc:	48 89 f3             	mov    %rsi,%rbx
    16bf:	48 85 d2             	test   %rdx,%rdx
    16c2:	0f 84 20 02 00 00    	je     18e8 <ctnetlink_alloc_expect.isra.0+0x288>
    16c8:	48 85 c0             	test   %rax,%rax
    16cb:	0f 84 17 02 00 00    	je     18e8 <ctnetlink_alloc_expect.isra.0+0x288>
    16d1:	44 8b 78 04          	mov    0x4(%rax),%r15d
    16d5:	49 c7 c4 ea ff ff ff 	mov    $0xffffffffffffffea,%r12
    16dc:	41 0f cf             	bswap  %r15d
    16df:	44 3b ba 80 00 00 00 	cmp    0x80(%rdx),%r15d
    16e6:	0f 87 d5 01 00 00    	ja     18c1 <ctnetlink_alloc_expect.isra.0+0x261>
    16ec:	48 89 df             	mov    %rbx,%rdi
    16ef:	4c 89 8d 70 ff ff ff 	mov    %r9,-0x90(%rbp)
    16f6:	4c 89 85 78 ff ff ff 	mov    %r8,-0x88(%rbp)
    16fd:	48 89 55 80          	mov    %rdx,-0x80(%rbp)
    1701:	e8 00 00 00 00       	call   1706 <ctnetlink_alloc_expect.isra.0+0xa6>
    1706:	49 89 c4             	mov    %rax,%r12
    1709:	48 85 c0             	test   %rax,%rax
    170c:	0f 84 ee 01 00 00    	je     1900 <ctnetlink_alloc_expect.isra.0+0x2a0>
    1712:	49 8b 4e 40          	mov    0x40(%r14),%rcx
    1716:	31 c0                	xor    %eax,%eax
    1718:	48 8b 55 80          	mov    -0x80(%rbp),%rdx
    171c:	4c 8b 85 78 ff ff ff 	mov    -0x88(%rbp),%r8
    1723:	4c 8b 8d 70 ff ff ff 	mov    -0x90(%rbp),%r9
    172a:	48 85 c9             	test   %rcx,%rcx
    172d:	74 08                	je     1737 <ctnetlink_alloc_expect.isra.0+0xd7>
    172f:	8b 41 04             	mov    0x4(%rcx),%eax
    1732:	0f c8                	bswap  %eax
    1734:	83 e0 fb             	and    $0xfffffffb,%eax
    1737:	41 89 84 24 a4 00 00 	mov    %eax,0xa4(%r12)
    173e:	00 
    173f:	49 8b 7e 58          	mov    0x58(%r14),%rdi
    1743:	48 85 ff             	test   %rdi,%rdi
    1746:	74 41                	je     1789 <ctnetlink_alloc_expect.isra.0+0x129>
    1748:	48 83 c7 04          	add    $0x4,%rdi
    174c:	4c 89 8d 70 ff ff ff 	mov    %r9,-0x90(%rbp)
    1753:	4c 89 85 78 ff ff ff 	mov    %r8,-0x88(%rbp)
    175a:	48 89 55 80          	mov    %rdx,-0x80(%rbp)
    175e:	e8 00 00 00 00       	call   1763 <ctnetlink_alloc_expect.isra.0+0x103>
    1763:	48 85 c0             	test   %rax,%rax
    1766:	0f 84 9d 01 00 00    	je     1909 <ctnetlink_alloc_expect.isra.0+0x2a9>
    176c:	48 8b 40 18          	mov    0x18(%rax),%rax
    1770:	48 8b 55 80          	mov    -0x80(%rbp),%rdx
    1774:	4c 8b 85 78 ff ff ff 	mov    -0x88(%rbp),%r8
    177b:	4c 8b 8d 70 ff ff ff 	mov    -0x90(%rbp),%r9
    1782:	49 89 44 24 60       	mov    %rax,0x60(%r12)
    1787:	eb 09                	jmp    1792 <ctnetlink_alloc_expect.isra.0+0x132>
    1789:	49 c7 44 24 60 00 00 	movq   $0x0,0x60(%r12)
    1790:	00 00 
    1792:	45 89 bc 24 a8 00 00 	mov    %r15d,0xa8(%r12)
    1799:	00 
    179a:	49 89 5c 24 70       	mov    %rbx,0x70(%r12)
    179f:	49 89 54 24 68       	mov    %rdx,0x68(%r12)
    17a4:	49 8b 45 00          	mov    0x0(%r13),%rax
    17a8:	49 89 44 24 20       	mov    %rax,0x20(%r12)
    17ad:	49 8b 45 08          	mov    0x8(%r13),%rax
    17b1:	49 89 44 24 28       	mov    %rax,0x28(%r12)
    17b6:	49 8b 45 10          	mov    0x10(%r13),%rax
    17ba:	49 89 44 24 30       	mov    %rax,0x30(%r12)
    17bf:	49 8b 45 18          	mov    0x18(%r13),%rax
    17c3:	49 89 44 24 38       	mov    %rax,0x38(%r12)
    17c8:	49 8b 45 20          	mov    0x20(%r13),%rax
    17cc:	49 89 44 24 40       	mov    %rax,0x40(%r12)
    17d1:	49 8b 00             	mov    (%r8),%rax
    17d4:	49 8b 50 08          	mov    0x8(%r8),%rdx
    17d8:	49 89 44 24 48       	mov    %rax,0x48(%r12)
    17dd:	49 89 54 24 50       	mov    %rdx,0x50(%r12)
    17e2:	41 0f b7 01          	movzwl (%r9),%eax
    17e6:	66 41 89 44 24 58    	mov    %ax,0x58(%r12)
    17ec:	49 8b 56 50          	mov    0x50(%r14),%rdx
    17f0:	48 85 d2             	test   %rdx,%rdx
    17f3:	0f 84 c8 00 00 00    	je     18c1 <ctnetlink_alloc_expect.isra.0+0x261>
    17f9:	48 c7 45 a0 00 00 00 	movq   $0x0,-0x60(%rbp)
    1800:	00 
    1801:	0f b7 5b 32          	movzwl 0x32(%rbx),%ebx
    1805:	48 83 c2 04          	add    $0x4,%rdx
    1809:	45 31 c9             	xor    %r9d,%r9d
    180c:	48 c7 45 a8 00 00 00 	movq   $0x0,-0x58(%rbp)
    1813:	00 
    1814:	49 c7 c0 00 00 00 00 	mov    $0x0,%r8
    181b:	48 8d 7d 88          	lea    -0x78(%rbp),%rdi
    181f:	be 02 00 00 00       	mov    $0x2,%esi
    1824:	48 c7 45 b0 00 00 00 	movq   $0x0,-0x50(%rbp)
    182b:	00 
    182c:	48 c7 45 b8 00 00 00 	movq   $0x0,-0x48(%rbp)
    1833:	00 
    1834:	48 c7 45 c0 00 00 00 	movq   $0x0,-0x40(%rbp)
    183b:	00 
    183c:	0f b7 4a fc          	movzwl -0x4(%rdx),%ecx
    1840:	6a 00                	push   $0x0
    1842:	83 e9 04             	sub    $0x4,%ecx
    1845:	e8 00 00 00 00       	call   184a <ctnetlink_alloc_expect.isra.0+0x1ea>
    184a:	5a                   	pop    %rdx
    184b:	85 c0                	test   %eax,%eax
    184d:	0f 88 9d 00 00 00    	js     18f0 <ctnetlink_alloc_expect.isra.0+0x290>
    1853:	48 83 7d 90 00       	cmpq   $0x0,-0x70(%rbp)
    1858:	0f 84 ab 00 00 00    	je     1909 <ctnetlink_alloc_expect.isra.0+0x2a9>
    185e:	48 83 7d 98 00       	cmpq   $0x0,-0x68(%rbp)
    1863:	0f 84 a0 00 00 00    	je     1909 <ctnetlink_alloc_expect.isra.0+0x2a9>
    1869:	45 31 c0             	xor    %r8d,%r8d
    186c:	0f b6 cb             	movzbl %bl,%ecx
    186f:	48 8d 75 a0          	lea    -0x60(%rbp),%rsi
    1873:	41 b9 ff 0f 00 00    	mov    $0xfff,%r9d
    1879:	ba 02 00 00 00       	mov    $0x2,%edx
    187e:	48 8d 7d 88          	lea    -0x78(%rbp),%rdi
    1882:	e8 a9 f9 ff ff       	call   1230 <ctnetlink_parse_tuple_filter>
    1887:	85 c0                	test   %eax,%eax
    1889:	78 65                	js     18f0 <ctnetlink_alloc_expect.isra.0+0x290>
    188b:	48 8b 45 a0          	mov    -0x60(%rbp),%rax
    188f:	48 8b 55 a8          	mov    -0x58(%rbp),%rdx
    1893:	49 89 84 24 ac 00 00 	mov    %rax,0xac(%r12)
    189a:	00 
    189b:	0f b7 45 b0          	movzwl -0x50(%rbp),%eax
    189f:	49 89 94 24 b4 00 00 	mov    %rdx,0xb4(%r12)
    18a6:	00 
    18a7:	66 41 89 84 24 bc 00 	mov    %ax,0xbc(%r12)
    18ae:	00 00 
    18b0:	48 8b 45 90          	mov    -0x70(%rbp),%rax
    18b4:	8b 40 04             	mov    0x4(%rax),%eax
    18b7:	0f c8                	bswap  %eax
    18b9:	41 89 84 24 c0 00 00 	mov    %eax,0xc0(%r12)
    18c0:	00 
    18c1:	48 8b 45 c8          	mov    -0x38(%rbp),%rax
    18c5:	65 48 33 04 25 28 00 	xor    %gs:0x28,%rax
    18cc:	00 00 
    18ce:	75 42                	jne    1912 <ctnetlink_alloc_expect.isra.0+0x2b2>
    18d0:	48 8d 65 d0          	lea    -0x30(%rbp),%rsp
    18d4:	4c 89 e0             	mov    %r12,%rax
    18d7:	5b                   	pop    %rbx
    18d8:	41 5a                	pop    %r10
    18da:	41 5c                	pop    %r12
    18dc:	41 5d                	pop    %r13
    18de:	41 5e                	pop    %r14
    18e0:	41 5f                	pop    %r15
    18e2:	5d                   	pop    %rbp
    18e3:	e9 00 00 00 00       	jmp    18e8 <ctnetlink_alloc_expect.isra.0+0x288>
    18e8:	45 31 ff             	xor    %r15d,%r15d
    18eb:	e9 fc fd ff ff       	jmp    16ec <ctnetlink_alloc_expect.isra.0+0x8c>
    18f0:	48 63 d8             	movslq %eax,%rbx
    18f3:	4c 89 e7             	mov    %r12,%rdi
    18f6:	49 89 dc             	mov    %rbx,%r12
    18f9:	e8 00 00 00 00       	call   18fe <ctnetlink_alloc_expect.isra.0+0x29e>
    18fe:	eb c1                	jmp    18c1 <ctnetlink_alloc_expect.isra.0+0x261>
    1900:	49 c7 c4 f4 ff ff ff 	mov    $0xfffffffffffffff4,%r12
    1907:	eb b8                	jmp    18c1 <ctnetlink_alloc_expect.isra.0+0x261>
    1909:	48 c7 c3 ea ff ff ff 	mov    $0xffffffffffffffea,%rbx
    1910:	eb e1                	jmp    18f3 <ctnetlink_alloc_expect.isra.0+0x293>
    1912:	e8 00 00 00 00       	call   1917 <ctnetlink_alloc_expect.isra.0+0x2b7>
    1917:	66 0f 1f 84 00 00 00 	nopw   0x0(%rax,%rax,1)
    191e:	00 00 

0000000000001920 <ctnetlink_glue_attach_expect>:
    1920:	e8 00 00 00 00       	call   1925 <ctnetlink_glue_attach_expect+0x5>
    1925:	55                   	push   %rbp
    1926:	45 31 c9             	xor    %r9d,%r9d
    1929:	49 c7 c0 00 00 00 00 	mov    $0x0,%r8
    1930:	48 89 e5             	mov    %rsp,%rbp
    1933:	41 57                	push   %r15
    1935:	41 89 cf             	mov    %ecx,%r15d
    1938:	41 56                	push   %r14
    193a:	41 89 d6             	mov    %edx,%r14d
    193d:	48 8d 57 04          	lea    0x4(%rdi),%rdx
    1941:	41 55                	push   %r13
    1943:	49 89 f5             	mov    %rsi,%r13
    1946:	be 0b 00 00 00       	mov    $0xb,%esi
    194b:	48 81 ec c0 00 00 00 	sub    $0xc0,%rsp
    1952:	0f b7 0f             	movzwl (%rdi),%ecx
    1955:	48 8d 7d 80          	lea    -0x80(%rbp),%rdi
    1959:	65 48 8b 04 25 28 00 	mov    %gs:0x28,%rax
    1960:	00 00 
    1962:	48 89 45 e0          	mov    %rax,-0x20(%rbp)
    1966:	31 c0                	xor    %eax,%eax
    1968:	6a 00                	push   $0x0
    196a:	83 e9 04             	sub    $0x4,%ecx
    196d:	e8 00 00 00 00       	call   1972 <ctnetlink_glue_attach_expect+0x52>
    1972:	5a                   	pop    %rdx
    1973:	85 c0                	test   %eax,%eax
    1975:	0f 88 c9 00 00 00    	js     1a44 <ctnetlink_glue_attach_expect+0x124>
    197b:	41 0f b6 4d 32       	movzbl 0x32(%r13),%ecx
    1980:	45 31 c0             	xor    %r8d,%r8d
    1983:	48 8d 7d 80          	lea    -0x80(%rbp),%rdi
    1987:	41 b9 ff 0f 00 00    	mov    $0xfff,%r9d
    198d:	ba 02 00 00 00       	mov    $0x2,%edx
    1992:	48 8d b5 30 ff ff ff 	lea    -0xd0(%rbp),%rsi
    1999:	e8 92 f8 ff ff       	call   1230 <ctnetlink_parse_tuple_filter>
    199e:	85 c0                	test   %eax,%eax
    19a0:	0f 88 9e 00 00 00    	js     1a44 <ctnetlink_glue_attach_expect+0x124>
    19a6:	41 0f b6 4d 32       	movzbl 0x32(%r13),%ecx
    19ab:	45 31 c0             	xor    %r8d,%r8d
    19ae:	48 8d 7d 80          	lea    -0x80(%rbp),%rdi
    19b2:	41 b9 ff 0f 00 00    	mov    $0xfff,%r9d
    19b8:	ba 03 00 00 00       	mov    $0x3,%edx
    19bd:	48 8d b5 58 ff ff ff 	lea    -0xa8(%rbp),%rsi
    19c4:	e8 67 f8 ff ff       	call   1230 <ctnetlink_parse_tuple_filter>
    19c9:	85 c0                	test   %eax,%eax
    19cb:	78 77                	js     1a44 <ctnetlink_glue_attach_expect+0x124>
    19cd:	48 8b 55 b0          	mov    -0x50(%rbp),%rdx
    19d1:	48 85 d2             	test   %rdx,%rdx
    19d4:	74 1e                	je     19f4 <ctnetlink_glue_attach_expect+0xd4>
    19d6:	45 0f b6 45 46       	movzbl 0x46(%r13),%r8d
    19db:	41 0f b7 75 32       	movzwl 0x32(%r13),%esi
    19e0:	48 8d 7a 04          	lea    0x4(%rdx),%rdi
    19e4:	44 89 c2             	mov    %r8d,%edx
    19e7:	e8 00 00 00 00       	call   19ec <ctnetlink_glue_attach_expect+0xcc>
    19ec:	48 89 c2             	mov    %rax,%rdx
    19ef:	48 85 c0             	test   %rax,%rax
    19f2:	74 6f                	je     1a63 <ctnetlink_glue_attach_expect+0x143>
    19f4:	4c 89 ee             	mov    %r13,%rsi
    19f7:	4c 8d 8d 68 ff ff ff 	lea    -0x98(%rbp),%r9
    19fe:	48 8d 7d 80          	lea    -0x80(%rbp),%rdi
    1a02:	4c 8d 85 58 ff ff ff 	lea    -0xa8(%rbp),%r8
    1a09:	48 8d 8d 30 ff ff ff 	lea    -0xd0(%rbp),%rcx
    1a10:	e8 4b fc ff ff       	call   1660 <ctnetlink_alloc_expect.isra.0>
    1a15:	49 89 c5             	mov    %rax,%r13
    1a18:	48 3d 00 f0 ff ff    	cmp    $0xfffffffffffff000,%rax
    1a1e:	77 24                	ja     1a44 <ctnetlink_glue_attach_expect+0x124>
    1a20:	31 c9                	xor    %ecx,%ecx
    1a22:	44 89 fa             	mov    %r15d,%edx
    1a25:	44 89 f6             	mov    %r14d,%esi
    1a28:	48 89 c7             	mov    %rax,%rdi
    1a2b:	e8 00 00 00 00       	call   1a30 <ctnetlink_glue_attach_expect+0x110>
    1a30:	4c 89 ef             	mov    %r13,%rdi
    1a33:	89 85 2c ff ff ff    	mov    %eax,-0xd4(%rbp)
    1a39:	e8 00 00 00 00       	call   1a3e <ctnetlink_glue_attach_expect+0x11e>
    1a3e:	8b 85 2c ff ff ff    	mov    -0xd4(%rbp),%eax
    1a44:	48 8b 75 e0          	mov    -0x20(%rbp),%rsi
    1a48:	65 48 33 34 25 28 00 	xor    %gs:0x28,%rsi
    1a4f:	00 00 
    1a51:	75 17                	jne    1a6a <ctnetlink_glue_attach_expect+0x14a>
    1a53:	48 8d 65 e8          	lea    -0x18(%rbp),%rsp
    1a57:	41 5d                	pop    %r13
    1a59:	41 5e                	pop    %r14
    1a5b:	41 5f                	pop    %r15
    1a5d:	5d                   	pop    %rbp
    1a5e:	e9 00 00 00 00       	jmp    1a63 <ctnetlink_glue_attach_expect+0x143>
    1a63:	b8 a1 ff ff ff       	mov    $0xffffffa1,%eax
    1a68:	eb da                	jmp    1a44 <ctnetlink_glue_attach_expect+0x124>
    1a6a:	e8 00 00 00 00       	call   1a6f <ctnetlink_glue_attach_expect+0x14f>
    1a6f:	90                   	nop

0000000000001a70 <ctnetlink_dump_tuples_proto.isra.0>:
    1a70:	e8 00 00 00 00       	call   1a75 <ctnetlink_dump_tuples_proto.isra.0+0x5>
    1a75:	55                   	push   %rbp
    1a76:	31 c9                	xor    %ecx,%ecx
    1a78:	48 89 e5             	mov    %rsp,%rbp
    1a7b:	41 56                	push   %r14
    1a7d:	49 89 f6             	mov    %rsi,%r14
    1a80:	be 02 80 00 00       	mov    $0x8002,%esi
    1a85:	41 55                	push   %r13
    1a87:	49 89 d5             	mov    %rdx,%r13
    1a8a:	31 d2                	xor    %edx,%edx
    1a8c:	41 54                	push   %r12
    1a8e:	53                   	push   %rbx
    1a8f:	48 89 fb             	mov    %rdi,%rbx
    1a92:	48 83 ec 10          	sub    $0x10,%rsp
    1a96:	44 8b a7 b8 00 00 00 	mov    0xb8(%rdi),%r12d
    1a9d:	4c 03 a7 c0 00 00 00 	add    0xc0(%rdi),%r12
    1aa4:	65 48 8b 04 25 28 00 	mov    %gs:0x28,%rax
    1aab:	00 00 
    1aad:	48 89 45 d8          	mov    %rax,-0x28(%rbp)
    1ab1:	31 c0                	xor    %eax,%eax
    1ab3:	e8 00 00 00 00       	call   1ab8 <ctnetlink_dump_tuples_proto.isra.0+0x48>
    1ab8:	4d 85 e4             	test   %r12,%r12
    1abb:	74 6f                	je     1b2c <ctnetlink_dump_tuples_proto.isra.0+0xbc>
    1abd:	85 c0                	test   %eax,%eax
    1abf:	78 6b                	js     1b2c <ctnetlink_dump_tuples_proto.isra.0+0xbc>
    1ac1:	41 0f b6 46 26       	movzbl 0x26(%r14),%eax
    1ac6:	48 8d 4d d7          	lea    -0x29(%rbp),%rcx
    1aca:	ba 01 00 00 00       	mov    $0x1,%edx
    1acf:	48 89 df             	mov    %rbx,%rdi
    1ad2:	be 01 00 00 00       	mov    $0x1,%esi
    1ad7:	88 45 d7             	mov    %al,-0x29(%rbp)
    1ada:	e8 00 00 00 00       	call   1adf <ctnetlink_dump_tuples_proto.isra.0+0x6f>
    1adf:	85 c0                	test   %eax,%eax
    1ae1:	75 49                	jne    1b2c <ctnetlink_dump_tuples_proto.isra.0+0xbc>
    1ae3:	49 8b 55 00          	mov    0x0(%r13),%rdx
    1ae7:	48 85 d2             	test   %rdx,%rdx
    1aea:	74 0b                	je     1af7 <ctnetlink_dump_tuples_proto.isra.0+0x87>
    1aec:	4c 89 f6             	mov    %r14,%rsi
    1aef:	48 89 df             	mov    %rbx,%rdi
    1af2:	e8 00 00 00 00       	call   1af7 <ctnetlink_dump_tuples_proto.isra.0+0x87>
    1af7:	8b 93 b8 00 00 00    	mov    0xb8(%rbx),%edx
    1afd:	48 03 93 c0 00 00 00 	add    0xc0(%rbx),%rdx
    1b04:	4c 29 e2             	sub    %r12,%rdx
    1b07:	66 41 89 14 24       	mov    %dx,(%r12)
    1b0c:	48 8b 4d d8          	mov    -0x28(%rbp),%rcx
    1b10:	65 48 33 0c 25 28 00 	xor    %gs:0x28,%rcx
    1b17:	00 00 
    1b19:	75 18                	jne    1b33 <ctnetlink_dump_tuples_proto.isra.0+0xc3>
    1b1b:	48 83 c4 10          	add    $0x10,%rsp
    1b1f:	5b                   	pop    %rbx
    1b20:	41 5c                	pop    %r12
    1b22:	41 5d                	pop    %r13
    1b24:	41 5e                	pop    %r14
    1b26:	5d                   	pop    %rbp
    1b27:	e9 00 00 00 00       	jmp    1b2c <ctnetlink_dump_tuples_proto.isra.0+0xbc>
    1b2c:	b8 ff ff ff ff       	mov    $0xffffffff,%eax
    1b31:	eb d9                	jmp    1b0c <ctnetlink_dump_tuples_proto.isra.0+0x9c>
    1b33:	e8 00 00 00 00       	call   1b38 <ctnetlink_dump_tuples_proto.isra.0+0xc8>
    1b38:	0f 1f 84 00 00 00 00 	nopl   0x0(%rax,%rax,1)
    1b3f:	00 

0000000000001b40 <ctnetlink_dump_zone_id.isra.0>:
    1b40:	e8 00 00 00 00       	call   1b45 <ctnetlink_dump_zone_id.isra.0+0x5>
    1b45:	55                   	push   %rbp
    1b46:	48 89 e5             	mov    %rsp,%rbp
    1b49:	48 83 ec 10          	sub    $0x10,%rsp
    1b4d:	65 48 8b 04 25 28 00 	mov    %gs:0x28,%rax
    1b54:	00 00 
    1b56:	48 89 45 f8          	mov    %rax,-0x8(%rbp)
    1b5a:	31 c0                	xor    %eax,%eax
    1b5c:	66 85 d2             	test   %dx,%dx
    1b5f:	74 08                	je     1b69 <ctnetlink_dump_zone_id.isra.0+0x29>
    1b61:	0f b6 09             	movzbl (%rcx),%ecx
    1b64:	44 39 c1             	cmp    %r8d,%ecx
    1b67:	74 15                	je     1b7e <ctnetlink_dump_zone_id.isra.0+0x3e>
    1b69:	48 8b 75 f8          	mov    -0x8(%rbp),%rsi
    1b6d:	65 48 33 34 25 28 00 	xor    %gs:0x28,%rsi
    1b74:	00 00 
    1b76:	75 28                	jne    1ba0 <ctnetlink_dump_zone_id.isra.0+0x60>
    1b78:	c9                   	leave  
    1b79:	e9 00 00 00 00       	jmp    1b7e <ctnetlink_dump_zone_id.isra.0+0x3e>
    1b7e:	66 c1 c2 08          	rol    $0x8,%dx
    1b82:	48 8d 4d f6          	lea    -0xa(%rbp),%rcx
    1b86:	66 89 55 f6          	mov    %dx,-0xa(%rbp)
    1b8a:	ba 02 00 00 00       	mov    $0x2,%edx
    1b8f:	e8 00 00 00 00       	call   1b94 <ctnetlink_dump_zone_id.isra.0+0x54>
    1b94:	85 c0                	test   %eax,%eax
    1b96:	0f 95 c0             	setne  %al
    1b99:	0f b6 c0             	movzbl %al,%eax
    1b9c:	f7 d8                	neg    %eax
    1b9e:	eb c9                	jmp    1b69 <ctnetlink_dump_zone_id.isra.0+0x29>
    1ba0:	e8 00 00 00 00       	call   1ba5 <ctnetlink_dump_zone_id.isra.0+0x65>
    1ba5:	66 66 2e 0f 1f 84 00 	data16 cs nopw 0x0(%rax,%rax,1)
    1bac:	00 00 00 00 

0000000000001bb0 <ctnetlink_dump_tuples_ip>:
    1bb0:	e8 00 00 00 00       	call   1bb5 <ctnetlink_dump_tuples_ip+0x5>
    1bb5:	55                   	push   %rbp
    1bb6:	31 c9                	xor    %ecx,%ecx
    1bb8:	31 d2                	xor    %edx,%edx
    1bba:	48 89 e5             	mov    %rsp,%rbp
    1bbd:	41 55                	push   %r13
    1bbf:	49 89 f5             	mov    %rsi,%r13
    1bc2:	be 01 80 00 00       	mov    $0x8001,%esi
    1bc7:	41 54                	push   %r12
    1bc9:	53                   	push   %rbx
    1bca:	48 89 fb             	mov    %rdi,%rbx
    1bcd:	48 83 ec 10          	sub    $0x10,%rsp
    1bd1:	44 8b a7 b8 00 00 00 	mov    0xb8(%rdi),%r12d
    1bd8:	4c 03 a7 c0 00 00 00 	add    0xc0(%rdi),%r12
    1bdf:	65 48 8b 04 25 28 00 	mov    %gs:0x28,%rax
    1be6:	00 00 
    1be8:	48 89 45 e0          	mov    %rax,-0x20(%rbp)
    1bec:	31 c0                	xor    %eax,%eax
    1bee:	e8 00 00 00 00       	call   1bf3 <ctnetlink_dump_tuples_ip+0x43>
    1bf3:	4d 85 e4             	test   %r12,%r12
    1bf6:	0f 84 d9 00 00 00    	je     1cd5 <ctnetlink_dump_tuples_ip+0x125>
    1bfc:	85 c0                	test   %eax,%eax
    1bfe:	0f 88 d1 00 00 00    	js     1cd5 <ctnetlink_dump_tuples_ip+0x125>
    1c04:	41 0f b7 45 12       	movzwl 0x12(%r13),%eax
    1c09:	66 83 f8 02          	cmp    $0x2,%ax
    1c0d:	74 7e                	je     1c8d <ctnetlink_dump_tuples_ip+0xdd>
    1c0f:	66 83 f8 0a          	cmp    $0xa,%ax
    1c13:	74 3d                	je     1c52 <ctnetlink_dump_tuples_ip+0xa2>
    1c15:	45 31 c0             	xor    %r8d,%r8d
    1c18:	8b 83 b8 00 00 00    	mov    0xb8(%rbx),%eax
    1c1e:	48 03 83 c0 00 00 00 	add    0xc0(%rbx),%rax
    1c25:	4c 29 e0             	sub    %r12,%rax
    1c28:	66 41 89 04 24       	mov    %ax,(%r12)
    1c2d:	48 8b 45 e0          	mov    -0x20(%rbp),%rax
    1c31:	65 48 33 04 25 28 00 	xor    %gs:0x28,%rax
    1c38:	00 00 
    1c3a:	0f 85 a0 00 00 00    	jne    1ce0 <ctnetlink_dump_tuples_ip+0x130>
    1c40:	48 83 c4 10          	add    $0x10,%rsp
    1c44:	44 89 c0             	mov    %r8d,%eax
    1c47:	5b                   	pop    %rbx
    1c48:	41 5c                	pop    %r12
    1c4a:	41 5d                	pop    %r13
    1c4c:	5d                   	pop    %rbp
    1c4d:	e9 00 00 00 00       	jmp    1c52 <ctnetlink_dump_tuples_ip+0xa2>
    1c52:	4c 89 e9             	mov    %r13,%rcx
    1c55:	ba 10 00 00 00       	mov    $0x10,%edx
    1c5a:	be 03 00 00 00       	mov    $0x3,%esi
    1c5f:	48 89 df             	mov    %rbx,%rdi
    1c62:	e8 00 00 00 00       	call   1c67 <ctnetlink_dump_tuples_ip+0xb7>
    1c67:	85 c0                	test   %eax,%eax
    1c69:	75 1a                	jne    1c85 <ctnetlink_dump_tuples_ip+0xd5>
    1c6b:	49 8d 4d 14          	lea    0x14(%r13),%rcx
    1c6f:	ba 10 00 00 00       	mov    $0x10,%edx
    1c74:	be 04 00 00 00       	mov    $0x4,%esi
    1c79:	48 89 df             	mov    %rbx,%rdi
    1c7c:	e8 00 00 00 00       	call   1c81 <ctnetlink_dump_tuples_ip+0xd1>
    1c81:	85 c0                	test   %eax,%eax
    1c83:	74 90                	je     1c15 <ctnetlink_dump_tuples_ip+0x65>
    1c85:	41 b8 a6 ff ff ff    	mov    $0xffffffa6,%r8d
    1c8b:	eb 8b                	jmp    1c18 <ctnetlink_dump_tuples_ip+0x68>
    1c8d:	41 8b 45 00          	mov    0x0(%r13),%eax
    1c91:	48 8d 4d dc          	lea    -0x24(%rbp),%rcx
    1c95:	ba 04 00 00 00       	mov    $0x4,%edx
    1c9a:	48 89 df             	mov    %rbx,%rdi
    1c9d:	be 01 00 00 00       	mov    $0x1,%esi
    1ca2:	89 45 dc             	mov    %eax,-0x24(%rbp)
    1ca5:	e8 00 00 00 00       	call   1caa <ctnetlink_dump_tuples_ip+0xfa>
    1caa:	85 c0                	test   %eax,%eax
    1cac:	75 d7                	jne    1c85 <ctnetlink_dump_tuples_ip+0xd5>
    1cae:	41 8b 45 14          	mov    0x14(%r13),%eax
    1cb2:	48 8d 4d dc          	lea    -0x24(%rbp),%rcx
    1cb6:	ba 04 00 00 00       	mov    $0x4,%edx
    1cbb:	48 89 df             	mov    %rbx,%rdi
    1cbe:	be 02 00 00 00       	mov    $0x2,%esi
    1cc3:	89 45 dc             	mov    %eax,-0x24(%rbp)
    1cc6:	e8 00 00 00 00       	call   1ccb <ctnetlink_dump_tuples_ip+0x11b>
    1ccb:	85 c0                	test   %eax,%eax
    1ccd:	0f 84 42 ff ff ff    	je     1c15 <ctnetlink_dump_tuples_ip+0x65>
    1cd3:	eb b0                	jmp    1c85 <ctnetlink_dump_tuples_ip+0xd5>
    1cd5:	41 b8 ff ff ff ff    	mov    $0xffffffff,%r8d
    1cdb:	e9 4d ff ff ff       	jmp    1c2d <ctnetlink_dump_tuples_ip+0x7d>
    1ce0:	e8 00 00 00 00       	call   1ce5 <ctnetlink_dump_tuples_ip+0x135>
    1ce5:	66 66 2e 0f 1f 84 00 	data16 cs nopw 0x0(%rax,%rax,1)
    1cec:	00 00 00 00 

0000000000001cf0 <ctnetlink_dump_tuples>:
    1cf0:	e8 00 00 00 00       	call   1cf5 <ctnetlink_dump_tuples+0x5>
    1cf5:	55                   	push   %rbp
    1cf6:	48 89 e5             	mov    %rsp,%rbp
    1cf9:	41 56                	push   %r14
    1cfb:	49 89 fe             	mov    %rdi,%r14
    1cfe:	41 55                	push   %r13
    1d00:	49 89 f5             	mov    %rsi,%r13
    1d03:	41 54                	push   %r12
    1d05:	e8 a6 fe ff ff       	call   1bb0 <ctnetlink_dump_tuples_ip>
    1d0a:	41 89 c4             	mov    %eax,%r12d
    1d0d:	85 c0                	test   %eax,%eax
    1d0f:	78 1c                	js     1d2d <ctnetlink_dump_tuples+0x3d>
    1d11:	41 0f b6 7d 26       	movzbl 0x26(%r13),%edi
    1d16:	e8 00 00 00 00       	call   1d1b <ctnetlink_dump_tuples+0x2b>
    1d1b:	4c 89 ee             	mov    %r13,%rsi
    1d1e:	4c 89 f7             	mov    %r14,%rdi
    1d21:	48 8d 50 20          	lea    0x20(%rax),%rdx
    1d25:	e8 46 fd ff ff       	call   1a70 <ctnetlink_dump_tuples_proto.isra.0>
    1d2a:	41 89 c4             	mov    %eax,%r12d
    1d2d:	e8 00 00 00 00       	call   1d32 <ctnetlink_dump_tuples+0x42>
    1d32:	44 89 e0             	mov    %r12d,%eax
    1d35:	41 5c                	pop    %r12
    1d37:	41 5d                	pop    %r13
    1d39:	41 5e                	pop    %r14
    1d3b:	5d                   	pop    %rbp
    1d3c:	e9 00 00 00 00       	jmp    1d41 <ctnetlink_dump_tuples+0x51>
    1d41:	66 66 2e 0f 1f 84 00 	data16 cs nopw 0x0(%rax,%rax,1)
    1d48:	00 00 00 00 
    1d4c:	0f 1f 40 00          	nopl   0x0(%rax)

0000000000001d50 <ctnetlink_exp_dump_tuple>:
    1d50:	e8 00 00 00 00       	call   1d55 <ctnetlink_exp_dump_tuple+0x5>
    1d55:	55                   	push   %rbp
    1d56:	80 ce 80             	or     $0x80,%dh
    1d59:	31 c9                	xor    %ecx,%ecx
    1d5b:	48 89 e5             	mov    %rsp,%rbp
    1d5e:	41 55                	push   %r13
    1d60:	49 89 f5             	mov    %rsi,%r13
    1d63:	89 d6                	mov    %edx,%esi
    1d65:	41 54                	push   %r12
    1d67:	31 d2                	xor    %edx,%edx
    1d69:	53                   	push   %rbx
    1d6a:	44 8b a7 b8 00 00 00 	mov    0xb8(%rdi),%r12d
    1d71:	48 89 fb             	mov    %rdi,%rbx
    1d74:	4c 03 a7 c0 00 00 00 	add    0xc0(%rdi),%r12
    1d7b:	e8 00 00 00 00       	call   1d80 <ctnetlink_exp_dump_tuple+0x30>
    1d80:	4d 85 e4             	test   %r12,%r12
    1d83:	74 35                	je     1dba <ctnetlink_exp_dump_tuple+0x6a>
    1d85:	85 c0                	test   %eax,%eax
    1d87:	78 31                	js     1dba <ctnetlink_exp_dump_tuple+0x6a>
    1d89:	4c 89 ee             	mov    %r13,%rsi
    1d8c:	48 89 df             	mov    %rbx,%rdi
    1d8f:	e8 5c ff ff ff       	call   1cf0 <ctnetlink_dump_tuples>
    1d94:	85 c0                	test   %eax,%eax
    1d96:	78 22                	js     1dba <ctnetlink_exp_dump_tuple+0x6a>
    1d98:	8b 83 b8 00 00 00    	mov    0xb8(%rbx),%eax
    1d9e:	48 03 83 c0 00 00 00 	add    0xc0(%rbx),%rax
    1da5:	4c 29 e0             	sub    %r12,%rax
    1da8:	66 41 89 04 24       	mov    %ax,(%r12)
    1dad:	31 c0                	xor    %eax,%eax
    1daf:	5b                   	pop    %rbx
    1db0:	41 5c                	pop    %r12
    1db2:	41 5d                	pop    %r13
    1db4:	5d                   	pop    %rbp
    1db5:	e9 00 00 00 00       	jmp    1dba <ctnetlink_exp_dump_tuple+0x6a>
    1dba:	5b                   	pop    %rbx
    1dbb:	b8 ff ff ff ff       	mov    $0xffffffff,%eax
    1dc0:	41 5c                	pop    %r12
    1dc2:	41 5d                	pop    %r13
    1dc4:	5d                   	pop    %rbp
    1dc5:	e9 00 00 00 00       	jmp    1dca <ctnetlink_exp_dump_tuple+0x7a>
    1dca:	66 0f 1f 44 00 00    	nopw   0x0(%rax,%rax,1)

0000000000001dd0 <ctnetlink_dump_master.isra.0.part.0>:
    1dd0:	e8 00 00 00 00       	call   1dd5 <ctnetlink_dump_master.isra.0.part.0+0x5>
    1dd5:	55                   	push   %rbp
    1dd6:	31 c9                	xor    %ecx,%ecx
    1dd8:	31 d2                	xor    %edx,%edx
    1dda:	48 89 e5             	mov    %rsp,%rbp
    1ddd:	41 55                	push   %r13
    1ddf:	49 89 f5             	mov    %rsi,%r13
    1de2:	be 0e 80 00 00       	mov    $0x800e,%esi
    1de7:	41 54                	push   %r12
    1de9:	53                   	push   %rbx
    1dea:	44 8b a7 b8 00 00 00 	mov    0xb8(%rdi),%r12d
    1df1:	48 89 fb             	mov    %rdi,%rbx
    1df4:	4c 03 a7 c0 00 00 00 	add    0xc0(%rdi),%r12
    1dfb:	e8 00 00 00 00       	call   1e00 <ctnetlink_dump_master.isra.0.part.0+0x30>
    1e00:	4d 85 e4             	test   %r12,%r12
    1e03:	74 3a                	je     1e3f <ctnetlink_dump_master.isra.0.part.0+0x6f>
    1e05:	85 c0                	test   %eax,%eax
    1e07:	78 36                	js     1e3f <ctnetlink_dump_master.isra.0.part.0+0x6f>
    1e09:	49 8b 75 00          	mov    0x0(%r13),%rsi
    1e0d:	48 89 df             	mov    %rbx,%rdi
    1e10:	48 83 c6 20          	add    $0x20,%rsi
    1e14:	e8 d7 fe ff ff       	call   1cf0 <ctnetlink_dump_tuples>
    1e19:	85 c0                	test   %eax,%eax
    1e1b:	78 22                	js     1e3f <ctnetlink_dump_master.isra.0.part.0+0x6f>
    1e1d:	8b 83 b8 00 00 00    	mov    0xb8(%rbx),%eax
    1e23:	48 03 83 c0 00 00 00 	add    0xc0(%rbx),%rax
    1e2a:	4c 29 e0             	sub    %r12,%rax
    1e2d:	66 41 89 04 24       	mov    %ax,(%r12)
    1e32:	31 c0                	xor    %eax,%eax
    1e34:	5b                   	pop    %rbx
    1e35:	41 5c                	pop    %r12
    1e37:	41 5d                	pop    %r13
    1e39:	5d                   	pop    %rbp
    1e3a:	e9 00 00 00 00       	jmp    1e3f <ctnetlink_dump_master.isra.0.part.0+0x6f>
    1e3f:	5b                   	pop    %rbx
    1e40:	b8 ff ff ff ff       	mov    $0xffffffff,%eax
    1e45:	41 5c                	pop    %r12
    1e47:	41 5d                	pop    %r13
    1e49:	5d                   	pop    %rbp
    1e4a:	e9 00 00 00 00       	jmp    1e4f <ctnetlink_dump_master.isra.0.part.0+0x7f>
    1e4f:	90                   	nop

0000000000001e50 <ctnetlink_parse_nat_setup>:
    1e50:	e8 00 00 00 00       	call   1e55 <ctnetlink_parse_nat_setup+0x5>
    1e55:	55                   	push   %rbp
    1e56:	48 8b 05 00 00 00 00 	mov    0x0(%rip),%rax        # 1e5d <ctnetlink_parse_nat_setup+0xd>
    1e5d:	48 89 e5             	mov    %rsp,%rbp
    1e60:	41 54                	push   %r12
    1e62:	53                   	push   %rbx
    1e63:	48 85 c0             	test   %rax,%rax
    1e66:	74 1f                	je     1e87 <ctnetlink_parse_nat_setup+0x37>
    1e68:	48 8b 00             	mov    (%rax),%rax
    1e6b:	48 89 fb             	mov    %rdi,%rbx
    1e6e:	e8 00 00 00 00       	call   1e73 <ctnetlink_parse_nat_setup+0x23>
    1e73:	41 89 c4             	mov    %eax,%r12d
    1e76:	83 f8 f5             	cmp    $0xfffffff5,%eax
    1e79:	74 5c                	je     1ed7 <ctnetlink_parse_nat_setup+0x87>
    1e7b:	44 89 e0             	mov    %r12d,%eax
    1e7e:	5b                   	pop    %rbx
    1e7f:	41 5c                	pop    %r12
    1e81:	5d                   	pop    %rbp
    1e82:	e9 00 00 00 00       	jmp    1e87 <ctnetlink_parse_nat_setup+0x37>
    1e87:	e8 00 00 00 00       	call   1e8c <ctnetlink_parse_nat_setup+0x3c>
    1e8c:	bf 01 00 00 00       	mov    $0x1,%edi
    1e91:	e8 00 00 00 00       	call   1e96 <ctnetlink_parse_nat_setup+0x46>
    1e96:	bf 01 00 00 00       	mov    $0x1,%edi
    1e9b:	48 c7 c6 00 00 00 00 	mov    $0x0,%rsi
    1ea2:	e8 00 00 00 00       	call   1ea7 <ctnetlink_parse_nat_setup+0x57>
    1ea7:	bf 01 00 00 00       	mov    $0x1,%edi
    1eac:	85 c0                	test   %eax,%eax
    1eae:	78 65                	js     1f15 <ctnetlink_parse_nat_setup+0xc5>
    1eb0:	e8 00 00 00 00       	call   1eb5 <ctnetlink_parse_nat_setup+0x65>
    1eb5:	48 8b 05 00 00 00 00 	mov    0x0(%rip),%rax        # 1ebc <ctnetlink_parse_nat_setup+0x6c>
    1ebc:	5b                   	pop    %rbx
    1ebd:	48 83 f8 01          	cmp    $0x1,%rax
    1ec1:	45 19 e4             	sbb    %r12d,%r12d
    1ec4:	41 83 e4 ac          	and    $0xffffffac,%r12d
    1ec8:	41 83 ec 0b          	sub    $0xb,%r12d
    1ecc:	44 89 e0             	mov    %r12d,%eax
    1ecf:	41 5c                	pop    %r12
    1ed1:	5d                   	pop    %rbp
    1ed2:	e9 00 00 00 00       	jmp    1ed7 <ctnetlink_parse_nat_setup+0x87>
    1ed7:	e8 00 00 00 00       	call   1edc <ctnetlink_parse_nat_setup+0x8c>
    1edc:	bf 01 00 00 00       	mov    $0x1,%edi
    1ee1:	e8 00 00 00 00       	call   1ee6 <ctnetlink_parse_nat_setup+0x96>
    1ee6:	0f b7 53 32          	movzwl 0x32(%rbx),%edx
    1eea:	bf 01 00 00 00       	mov    $0x1,%edi
    1eef:	48 c7 c6 00 00 00 00 	mov    $0x0,%rsi
    1ef6:	e8 00 00 00 00       	call   1efb <ctnetlink_parse_nat_setup+0xab>
    1efb:	bf 01 00 00 00       	mov    $0x1,%edi
    1f00:	85 c0                	test   %eax,%eax
    1f02:	78 11                	js     1f15 <ctnetlink_parse_nat_setup+0xc5>
    1f04:	e8 00 00 00 00       	call   1f09 <ctnetlink_parse_nat_setup+0xb9>
    1f09:	44 89 e0             	mov    %r12d,%eax
    1f0c:	5b                   	pop    %rbx
    1f0d:	41 5c                	pop    %r12
    1f0f:	5d                   	pop    %rbp
    1f10:	e9 00 00 00 00       	jmp    1f15 <ctnetlink_parse_nat_setup+0xc5>
    1f15:	e8 00 00 00 00       	call   1f1a <ctnetlink_parse_nat_setup+0xca>
    1f1a:	41 bc a1 ff ff ff    	mov    $0xffffffa1,%r12d
    1f20:	e9 56 ff ff ff       	jmp    1e7b <ctnetlink_parse_nat_setup+0x2b>
    1f25:	66 66 2e 0f 1f 84 00 	data16 cs nopw 0x0(%rax,%rax,1)
    1f2c:	00 00 00 00 

0000000000001f30 <ctnetlink_parse_help.constprop.0>:
    1f30:	e8 00 00 00 00       	call   1f35 <ctnetlink_parse_help.constprop.0+0x5>
    1f35:	55                   	push   %rbp
    1f36:	45 31 c9             	xor    %r9d,%r9d
    1f39:	49 c7 c0 00 00 00 00 	mov    $0x0,%r8
    1f40:	48 89 e5             	mov    %rsp,%rbp
    1f43:	41 54                	push   %r12
    1f45:	49 89 d4             	mov    %rdx,%r12
    1f48:	48 8d 57 04          	lea    0x4(%rdi),%rdx
    1f4c:	53                   	push   %rbx
    1f4d:	48 89 f3             	mov    %rsi,%rbx
    1f50:	be 02 00 00 00       	mov    $0x2,%esi
    1f55:	48 83 ec 20          	sub    $0x20,%rsp
    1f59:	0f b7 0f             	movzwl (%rdi),%ecx
    1f5c:	48 8d 7d d0          	lea    -0x30(%rbp),%rdi
    1f60:	65 48 8b 04 25 28 00 	mov    %gs:0x28,%rax
    1f67:	00 00 
    1f69:	48 89 45 e8          	mov    %rax,-0x18(%rbp)
    1f6d:	31 c0                	xor    %eax,%eax
    1f6f:	6a 00                	push   $0x0
    1f71:	83 e9 04             	sub    $0x4,%ecx
    1f74:	e8 00 00 00 00       	call   1f79 <ctnetlink_parse_help.constprop.0+0x49>
    1f79:	5a                   	pop    %rdx
    1f7a:	85 c0                	test   %eax,%eax
    1f7c:	78 1f                	js     1f9d <ctnetlink_parse_help.constprop.0+0x6d>
    1f7e:	48 8b 45 d8          	mov    -0x28(%rbp),%rax
    1f82:	48 85 c0             	test   %rax,%rax
    1f85:	74 32                	je     1fb9 <ctnetlink_parse_help.constprop.0+0x89>
    1f87:	48 8b 55 e0          	mov    -0x20(%rbp),%rdx
    1f8b:	48 83 c0 04          	add    $0x4,%rax
    1f8f:	48 89 03             	mov    %rax,(%rbx)
    1f92:	31 c0                	xor    %eax,%eax
    1f94:	48 85 d2             	test   %rdx,%rdx
    1f97:	74 04                	je     1f9d <ctnetlink_parse_help.constprop.0+0x6d>
    1f99:	49 89 14 24          	mov    %rdx,(%r12)
    1f9d:	48 8b 5d e8          	mov    -0x18(%rbp),%rbx
    1fa1:	65 48 33 1c 25 28 00 	xor    %gs:0x28,%rbx
    1fa8:	00 00 
    1faa:	75 14                	jne    1fc0 <ctnetlink_parse_help.constprop.0+0x90>
    1fac:	48 8d 65 f0          	lea    -0x10(%rbp),%rsp
    1fb0:	5b                   	pop    %rbx
    1fb1:	41 5c                	pop    %r12
    1fb3:	5d                   	pop    %rbp
    1fb4:	e9 00 00 00 00       	jmp    1fb9 <ctnetlink_parse_help.constprop.0+0x89>
    1fb9:	b8 ea ff ff ff       	mov    $0xffffffea,%eax
    1fbe:	eb dd                	jmp    1f9d <ctnetlink_parse_help.constprop.0+0x6d>
    1fc0:	e8 00 00 00 00       	call   1fc5 <ctnetlink_parse_help.constprop.0+0x95>
    1fc5:	66 66 2e 0f 1f 84 00 	data16 cs nopw 0x0(%rax,%rax,1)
    1fcc:	00 00 00 00 

0000000000001fd0 <ctnetlink_change_helper>:
    1fd0:	e8 00 00 00 00       	call   1fd5 <ctnetlink_change_helper+0x5>
    1fd5:	55                   	push   %rbp
    1fd6:	48 89 e5             	mov    %rsp,%rbp
    1fd9:	41 55                	push   %r13
    1fdb:	49 89 fd             	mov    %rdi,%r13
    1fde:	41 54                	push   %r12
    1fe0:	53                   	push   %rbx
    1fe1:	48 83 ec 18          	sub    $0x18,%rsp
    1fe5:	48 8b 9f b8 00 00 00 	mov    0xb8(%rdi),%rbx
    1fec:	65 48 8b 04 25 28 00 	mov    %gs:0x28,%rax
    1ff3:	00 00 
    1ff5:	48 89 45 e0          	mov    %rax,-0x20(%rbp)
    1ff9:	31 c0                	xor    %eax,%eax
    1ffb:	48 85 db             	test   %rbx,%rbx
    1ffe:	74 11                	je     2011 <ctnetlink_change_helper+0x41>
    2000:	0f b6 03             	movzbl (%rbx),%eax
    2003:	48 01 c3             	add    %rax,%rbx
    2006:	84 c0                	test   %al,%al
    2008:	b8 00 00 00 00       	mov    $0x0,%eax
    200d:	48 0f 44 d8          	cmove  %rax,%rbx
    2011:	48 8b 7e 28          	mov    0x28(%rsi),%rdi
    2015:	48 8d 55 d8          	lea    -0x28(%rbp),%rdx
    2019:	48 8d 75 d0          	lea    -0x30(%rbp),%rsi
    201d:	48 c7 45 d0 00 00 00 	movq   $0x0,-0x30(%rbp)
    2024:	00 
    2025:	48 c7 45 d8 00 00 00 	movq   $0x0,-0x28(%rbp)
    202c:	00 
    202d:	e8 fe fe ff ff       	call   1f30 <ctnetlink_parse_help.constprop.0>
    2032:	41 89 c4             	mov    %eax,%r12d
    2035:	85 c0                	test   %eax,%eax
    2037:	78 3d                	js     2076 <ctnetlink_change_helper+0xa6>
    2039:	49 83 bd a8 00 00 00 	cmpq   $0x0,0xa8(%r13)
    2040:	00 
    2041:	74 58                	je     209b <ctnetlink_change_helper+0xcb>
    2043:	41 bc f0 ff ff ff    	mov    $0xfffffff0,%r12d
    2049:	48 85 db             	test   %rbx,%rbx
    204c:	74 28                	je     2076 <ctnetlink_change_helper+0xa6>
    204e:	48 8b 3b             	mov    (%rbx),%rdi
    2051:	48 85 ff             	test   %rdi,%rdi
    2054:	74 1b                	je     2071 <ctnetlink_change_helper+0xa1>
    2056:	48 8b 75 d0          	mov    -0x30(%rbp),%rsi
    205a:	48 83 c7 10          	add    $0x10,%rdi
    205e:	e8 00 00 00 00       	call   2063 <ctnetlink_change_helper+0x93>
    2063:	41 89 c4             	mov    %eax,%r12d
    2066:	85 c0                	test   %eax,%eax
    2068:	b8 f0 ff ff ff       	mov    $0xfffffff0,%eax
    206d:	44 0f 45 e0          	cmovne %eax,%r12d
    2071:	e8 00 00 00 00       	call   2076 <ctnetlink_change_helper+0xa6>
    2076:	48 8b 45 e0          	mov    -0x20(%rbp),%rax
    207a:	65 48 33 04 25 28 00 	xor    %gs:0x28,%rax
    2081:	00 00 
    2083:	0f 85 99 00 00 00    	jne    2122 <ctnetlink_change_helper+0x152>
    2089:	48 83 c4 18          	add    $0x18,%rsp
    208d:	44 89 e0             	mov    %r12d,%eax
    2090:	5b                   	pop    %rbx
    2091:	41 5c                	pop    %r12
    2093:	41 5d                	pop    %r13
    2095:	5d                   	pop    %rbp
    2096:	e9 00 00 00 00       	jmp    209b <ctnetlink_change_helper+0xcb>
    209b:	48 8b 45 d0          	mov    -0x30(%rbp),%rax
    209f:	80 38 00             	cmpb   $0x0,(%rax)
    20a2:	75 1f                	jne    20c3 <ctnetlink_change_helper+0xf3>
    20a4:	45 31 e4             	xor    %r12d,%r12d
    20a7:	48 85 db             	test   %rbx,%rbx
    20aa:	74 ca                	je     2076 <ctnetlink_change_helper+0xa6>
    20ac:	48 83 3b 00          	cmpq   $0x0,(%rbx)
    20b0:	74 c4                	je     2076 <ctnetlink_change_helper+0xa6>
    20b2:	4c 89 ef             	mov    %r13,%rdi
    20b5:	e8 00 00 00 00       	call   20ba <ctnetlink_change_helper+0xea>
    20ba:	48 c7 03 00 00 00 00 	movq   $0x0,(%rbx)
    20c1:	eb b3                	jmp    2076 <ctnetlink_change_helper+0xa6>
    20c3:	41 0f b6 55 46       	movzbl 0x46(%r13),%edx
    20c8:	41 0f b7 75 32       	movzwl 0x32(%r13),%esi
    20cd:	48 8b 7d d0          	mov    -0x30(%rbp),%rdi
    20d1:	e8 00 00 00 00       	call   20d6 <ctnetlink_change_helper+0x106>
    20d6:	48 85 c0             	test   %rax,%rax
    20d9:	74 37                	je     2112 <ctnetlink_change_helper+0x142>
    20db:	41 bc a1 ff ff ff    	mov    $0xffffffa1,%r12d
    20e1:	48 85 db             	test   %rbx,%rbx
    20e4:	74 8b                	je     2071 <ctnetlink_change_helper+0xa1>
    20e6:	41 bc f0 ff ff ff    	mov    $0xfffffff0,%r12d
    20ec:	48 39 03             	cmp    %rax,(%rbx)
    20ef:	75 80                	jne    2071 <ctnetlink_change_helper+0xa1>
    20f1:	48 8b 40 70          	mov    0x70(%rax),%rax
    20f5:	45 31 e4             	xor    %r12d,%r12d
    20f8:	48 85 c0             	test   %rax,%rax
    20fb:	0f 84 70 ff ff ff    	je     2071 <ctnetlink_change_helper+0xa1>
    2101:	48 8b 7d d8          	mov    -0x28(%rbp),%rdi
    2105:	4c 89 ee             	mov    %r13,%rsi
    2108:	e8 00 00 00 00       	call   210d <ctnetlink_change_helper+0x13d>
    210d:	e9 5f ff ff ff       	jmp    2071 <ctnetlink_change_helper+0xa1>
    2112:	e8 00 00 00 00       	call   2117 <ctnetlink_change_helper+0x147>
    2117:	41 bc a1 ff ff ff    	mov    $0xffffffa1,%r12d
    211d:	e9 54 ff ff ff       	jmp    2076 <ctnetlink_change_helper+0xa6>
    2122:	e8 00 00 00 00       	call   2127 <ctnetlink_change_helper+0x157>
    2127:	66 0f 1f 84 00 00 00 	nopw   0x0(%rax,%rax,1)
    212e:	00 00 

0000000000002130 <ctnetlink_glue_parse>:
    2130:	e8 00 00 00 00       	call   2135 <ctnetlink_glue_parse+0x5>
    2135:	55                   	push   %rbp
    2136:	48 8d 57 04          	lea    0x4(%rdi),%rdx
    213a:	45 31 c9             	xor    %r9d,%r9d
    213d:	49 c7 c0 00 00 00 00 	mov    $0x0,%r8
    2144:	48 89 e5             	mov    %rsp,%rbp
    2147:	53                   	push   %rbx
    2148:	48 89 f3             	mov    %rsi,%rbx
    214b:	be 1a 00 00 00       	mov    $0x1a,%esi
    2150:	48 81 ec e0 00 00 00 	sub    $0xe0,%rsp
    2157:	0f b7 0f             	movzwl (%rdi),%ecx
    215a:	48 8d bd 18 ff ff ff 	lea    -0xe8(%rbp),%rdi
    2161:	65 48 8b 04 25 28 00 	mov    %gs:0x28,%rax
    2168:	00 00 
    216a:	48 89 45 f0          	mov    %rax,-0x10(%rbp)
    216e:	31 c0                	xor    %eax,%eax
    2170:	6a 00                	push   $0x0
    2172:	83 e9 04             	sub    $0x4,%ecx
    2175:	e8 00 00 00 00       	call   217a <ctnetlink_glue_parse+0x4a>
    217a:	5a                   	pop    %rdx
    217b:	85 c0                	test   %eax,%eax
    217d:	0f 88 fd 00 00 00    	js     2280 <ctnetlink_glue_parse+0x150>
    2183:	48 8b 85 50 ff ff ff 	mov    -0xb0(%rbp),%rax
    218a:	48 85 c0             	test   %rax,%rax
    218d:	74 39                	je     21c8 <ctnetlink_glue_parse+0x98>
    218f:	8b 40 04             	mov    0x4(%rax),%eax
    2192:	b9 ff ff ff 7f       	mov    $0x7fffffff,%ecx
    2197:	48 8b 15 00 00 00 00 	mov    0x0(%rip),%rdx        # 219e <ctnetlink_glue_parse+0x6e>
    219e:	0f c8                	bswap  %eax
    21a0:	89 c0                	mov    %eax,%eax
    21a2:	48 69 c0 fa 00 00 00 	imul   $0xfa,%rax,%rax
    21a9:	48 3d ff ff ff 7f    	cmp    $0x7fffffff,%rax
    21af:	48 0f 47 c1          	cmova  %rcx,%rax
    21b3:	01 d0                	add    %edx,%eax
    21b5:	89 43 08             	mov    %eax,0x8(%rbx)
    21b8:	48 8b 83 80 00 00 00 	mov    0x80(%rbx),%rax
    21bf:	f6 c4 02             	test   $0x2,%ah
    21c2:	0f 85 e1 00 00 00    	jne    22a9 <ctnetlink_glue_parse+0x179>
    21c8:	48 8b 85 30 ff ff ff 	mov    -0xd0(%rbp),%rax
    21cf:	48 85 c0             	test   %rax,%rax
    21d2:	74 30                	je     2204 <ctnetlink_glue_parse+0xd4>
    21d4:	8b 50 04             	mov    0x4(%rax),%edx
    21d7:	48 8b 83 80 00 00 00 	mov    0x80(%rbx),%rax
    21de:	0f ca                	bswap  %edx
    21e0:	89 d6                	mov    %edx,%esi
    21e2:	48 31 f0             	xor    %rsi,%rax
    21e5:	a8 02                	test   $0x2,%al
    21e7:	0f 85 ac 00 00 00    	jne    2299 <ctnetlink_glue_parse+0x169>
    21ed:	a8 04                	test   $0x4,%al
    21ef:	74 09                	je     21fa <ctnetlink_glue_parse+0xca>
    21f1:	f6 c2 04             	test   $0x4,%dl
    21f4:	0f 84 a8 00 00 00    	je     22a2 <ctnetlink_glue_parse+0x172>
    21fa:	f7 d2                	not    %edx
    21fc:	48 89 df             	mov    %rbx,%rdi
    21ff:	e8 ac ee ff ff       	call   10b0 <__ctnetlink_change_status>
    2204:	48 83 bd 40 ff ff ff 	cmpq   $0x0,-0xc0(%rbp)
    220b:	00 
    220c:	74 13                	je     2221 <ctnetlink_glue_parse+0xf1>
    220e:	48 8d b5 18 ff ff ff 	lea    -0xe8(%rbp),%rsi
    2215:	48 89 df             	mov    %rbx,%rdi
    2218:	e8 b3 fd ff ff       	call   1fd0 <ctnetlink_change_helper>
    221d:	85 c0                	test   %eax,%eax
    221f:	78 5f                	js     2280 <ctnetlink_glue_parse+0x150>
    2221:	48 83 7d c8 00       	cmpq   $0x0,-0x38(%rbp)
    2226:	74 13                	je     223b <ctnetlink_glue_parse+0x10b>
    2228:	48 8d b5 18 ff ff ff 	lea    -0xe8(%rbp),%rsi
    222f:	48 89 df             	mov    %rbx,%rdi
    2232:	e8 99 e2 ff ff       	call   4d0 <ctnetlink_attach_labels>
    2237:	85 c0                	test   %eax,%eax
    2239:	78 45                	js     2280 <ctnetlink_glue_parse+0x150>
    223b:	48 8b 8d 58 ff ff ff 	mov    -0xa8(%rbp),%rcx
    2242:	31 c0                	xor    %eax,%eax
    2244:	48 85 c9             	test   %rcx,%rcx
    2247:	74 37                	je     2280 <ctnetlink_glue_parse+0x150>
    2249:	48 8b 55 c0          	mov    -0x40(%rbp),%rdx
    224d:	31 c0                	xor    %eax,%eax
    224f:	48 85 d2             	test   %rdx,%rdx
    2252:	74 09                	je     225d <ctnetlink_glue_parse+0x12d>
    2254:	8b 52 04             	mov    0x4(%rdx),%edx
    2257:	0f ca                	bswap  %edx
    2259:	89 d0                	mov    %edx,%eax
    225b:	f7 d0                	not    %eax
    225d:	8b 51 04             	mov    0x4(%rcx),%edx
    2260:	89 d1                	mov    %edx,%ecx
    2262:	8b 93 b0 00 00 00    	mov    0xb0(%rbx),%edx
    2268:	0f c9                	bswap  %ecx
    226a:	21 c2                	and    %eax,%edx
    226c:	31 c0                	xor    %eax,%eax
    226e:	31 ca                	xor    %ecx,%edx
    2270:	8b 8b b0 00 00 00    	mov    0xb0(%rbx),%ecx
    2276:	39 ca                	cmp    %ecx,%edx
    2278:	74 06                	je     2280 <ctnetlink_glue_parse+0x150>
    227a:	89 93 b0 00 00 00    	mov    %edx,0xb0(%rbx)
    2280:	48 8b 5d f0          	mov    -0x10(%rbp),%rbx
    2284:	65 48 33 1c 25 28 00 	xor    %gs:0x28,%rbx
    228b:	00 00 
    228d:	75 21                	jne    22b0 <ctnetlink_glue_parse+0x180>
    228f:	48 8b 5d f8          	mov    -0x8(%rbp),%rbx
    2293:	c9                   	leave  
    2294:	e9 00 00 00 00       	jmp    2299 <ctnetlink_glue_parse+0x169>
    2299:	f6 c2 02             	test   $0x2,%dl
    229c:	0f 85 4b ff ff ff    	jne    21ed <ctnetlink_glue_parse+0xbd>
    22a2:	b8 f0 ff ff ff       	mov    $0xfffffff0,%eax
    22a7:	eb d7                	jmp    2280 <ctnetlink_glue_parse+0x150>
    22a9:	b8 c2 ff ff ff       	mov    $0xffffffc2,%eax
    22ae:	eb d0                	jmp    2280 <ctnetlink_glue_parse+0x150>
    22b0:	e8 00 00 00 00       	call   22b5 <ctnetlink_glue_parse+0x185>
    22b5:	66 66 2e 0f 1f 84 00 	data16 cs nopw 0x0(%rax,%rax,1)
    22bc:	00 00 00 00 

00000000000022c0 <ctnetlink_alloc_filter>:
    22c0:	e8 00 00 00 00       	call   22c5 <ctnetlink_alloc_filter+0x5>
    22c5:	55                   	push   %rbp
    22c6:	ba 70 00 00 00       	mov    $0x70,%edx
    22cb:	48 89 e5             	mov    %rsp,%rbp
    22ce:	41 55                	push   %r13
    22d0:	49 89 fd             	mov    %rdi,%r13
    22d3:	41 54                	push   %r12
    22d5:	53                   	push   %rbx
    22d6:	89 f3                	mov    %esi,%ebx
    22d8:	be c0 0d 00 00       	mov    $0xdc0,%esi
    22dd:	48 83 ec 20          	sub    $0x20,%rsp
    22e1:	48 8b 3d 00 00 00 00 	mov    0x0(%rip),%rdi        # 22e8 <ctnetlink_alloc_filter+0x28>
    22e8:	65 48 8b 04 25 28 00 	mov    %gs:0x28,%rax
    22ef:	00 00 
    22f1:	48 89 45 e0          	mov    %rax,-0x20(%rbp)
    22f5:	31 c0                	xor    %eax,%eax
    22f7:	e8 00 00 00 00       	call   22fc <ctnetlink_alloc_filter+0x3c>
    22fc:	48 85 c0             	test   %rax,%rax
    22ff:	0f 84 07 02 00 00    	je     250c <ctnetlink_alloc_filter+0x24c>
    2305:	88 18                	mov    %bl,(%rax)
    2307:	49 89 c4             	mov    %rax,%r12
    230a:	49 8b 45 40          	mov    0x40(%r13),%rax
    230e:	49 8b 95 a8 00 00 00 	mov    0xa8(%r13),%rdx
    2315:	48 85 c0             	test   %rax,%rax
    2318:	0f 84 bd 01 00 00    	je     24db <ctnetlink_alloc_filter+0x21b>
    231e:	8b 40 04             	mov    0x4(%rax),%eax
    2321:	0f c8                	bswap  %eax
    2323:	41 89 44 24 60       	mov    %eax,0x60(%r12)
    2328:	48 85 d2             	test   %rdx,%rdx
    232b:	0f 84 7b 01 00 00    	je     24ac <ctnetlink_alloc_filter+0x1ec>
    2331:	8b 42 04             	mov    0x4(%rdx),%eax
    2334:	0f c8                	bswap  %eax
    2336:	41 89 44 24 64       	mov    %eax,0x64(%r12)
    233b:	49 8b 45 18          	mov    0x18(%r13),%rax
    233f:	49 8b 95 d0 00 00 00 	mov    0xd0(%r13),%rdx
    2346:	48 85 c0             	test   %rax,%rax
    2349:	0f 84 7a 01 00 00    	je     24c9 <ctnetlink_alloc_filter+0x209>
    234f:	8b 40 04             	mov    0x4(%rax),%eax
    2352:	0f c8                	bswap  %eax
    2354:	41 89 44 24 68       	mov    %eax,0x68(%r12)
    2359:	48 85 d2             	test   %rdx,%rdx
    235c:	74 05                	je     2363 <ctnetlink_alloc_filter+0xa3>
    235e:	8b 42 04             	mov    0x4(%rdx),%eax
    2361:	0f c8                	bswap  %eax
    2363:	41 89 44 24 6c       	mov    %eax,0x6c(%r12)
    2368:	85 c0                	test   %eax,%eax
    236a:	0f 84 62 01 00 00    	je     24d2 <ctnetlink_alloc_filter+0x212>
    2370:	49 8b 95 c8 00 00 00 	mov    0xc8(%r13),%rdx
    2377:	48 85 d2             	test   %rdx,%rdx
    237a:	0f 84 0b 01 00 00    	je     248b <ctnetlink_alloc_filter+0x1cb>
    2380:	41 c7 44 24 5c 00 00 	movl   $0x3000000,0x5c(%r12)
    2387:	00 03 
    2389:	49 8b 85 90 00 00 00 	mov    0x90(%r13),%rax
    2390:	48 85 c0             	test   %rax,%rax
    2393:	74 0e                	je     23a3 <ctnetlink_alloc_filter+0xe3>
    2395:	0f b7 40 04          	movzwl 0x4(%rax),%eax
    2399:	66 c1 c0 08          	rol    $0x8,%ax
    239d:	66 41 89 44 24 5c    	mov    %ax,0x5c(%r12)
    23a3:	66 83 7a 02 00       	cmpw   $0x0,0x2(%rdx)
    23a8:	0f 89 3f 01 00 00    	jns    24ed <ctnetlink_alloc_filter+0x22d>
    23ae:	0f b7 0a             	movzwl (%rdx),%ecx
    23b1:	6a 00                	push   $0x0
    23b3:	48 83 c2 04          	add    $0x4,%rdx
    23b7:	41 b9 1f 00 00 00    	mov    $0x1f,%r9d
    23bd:	49 c7 c0 00 00 00 00 	mov    $0x0,%r8
    23c4:	be 02 00 00 00       	mov    $0x2,%esi
    23c9:	48 8d 7d c8          	lea    -0x38(%rbp),%rdi
    23cd:	83 e9 04             	sub    $0x4,%ecx
    23d0:	e8 00 00 00 00       	call   23d5 <ctnetlink_alloc_filter+0x115>
    23d5:	5a                   	pop    %rdx
    23d6:	85 c0                	test   %eax,%eax
    23d8:	0f 85 08 01 00 00    	jne    24e6 <ctnetlink_alloc_filter+0x226>
    23de:	48 8b 45 d0          	mov    -0x30(%rbp),%rax
    23e2:	48 85 c0             	test   %rax,%rax
    23e5:	74 13                	je     23fa <ctnetlink_alloc_filter+0x13a>
    23e7:	8b 40 04             	mov    0x4(%rax),%eax
    23ea:	41 89 44 24 04       	mov    %eax,0x4(%r12)
    23ef:	a9 00 f0 ff ff       	test   $0xfffff000,%eax
    23f4:	0f 85 01 01 00 00    	jne    24fb <ctnetlink_alloc_filter+0x23b>
    23fa:	48 8b 45 d8          	mov    -0x28(%rbp),%rax
    23fe:	48 85 c0             	test   %rax,%rax
    2401:	74 13                	je     2416 <ctnetlink_alloc_filter+0x156>
    2403:	8b 40 04             	mov    0x4(%rax),%eax
    2406:	41 89 44 24 08       	mov    %eax,0x8(%r12)
    240b:	a9 00 f0 ff ff       	test   $0xfffff000,%eax
    2410:	0f 85 e5 00 00 00    	jne    24fb <ctnetlink_alloc_filter+0x23b>
    2416:	45 8b 4c 24 04       	mov    0x4(%r12),%r9d
    241b:	49 8d 5c 24 5c       	lea    0x5c(%r12),%rbx
    2420:	45 85 c9             	test   %r9d,%r9d
    2423:	74 29                	je     244e <ctnetlink_alloc_filter+0x18e>
    2425:	49 83 7d 08 00       	cmpq   $0x0,0x8(%r13)
    242a:	0f 84 a2 00 00 00    	je     24d2 <ctnetlink_alloc_filter+0x212>
    2430:	41 0f b6 0c 24       	movzbl (%r12),%ecx
    2435:	49 8d 74 24 0c       	lea    0xc(%r12),%rsi
    243a:	49 89 d8             	mov    %rbx,%r8
    243d:	4c 89 ef             	mov    %r13,%rdi
    2440:	ba 01 00 00 00       	mov    $0x1,%edx
    2445:	e8 e6 ed ff ff       	call   1230 <ctnetlink_parse_tuple_filter>
    244a:	85 c0                	test   %eax,%eax
    244c:	78 2f                	js     247d <ctnetlink_alloc_filter+0x1bd>
    244e:	45 8b 4c 24 08       	mov    0x8(%r12),%r9d
    2453:	45 85 c9             	test   %r9d,%r9d
    2456:	74 33                	je     248b <ctnetlink_alloc_filter+0x1cb>
    2458:	49 83 7d 10 00       	cmpq   $0x0,0x10(%r13)
    245d:	74 73                	je     24d2 <ctnetlink_alloc_filter+0x212>
    245f:	41 0f b6 0c 24       	movzbl (%r12),%ecx
    2464:	49 8d 74 24 34       	lea    0x34(%r12),%rsi
    2469:	49 89 d8             	mov    %rbx,%r8
    246c:	4c 89 ef             	mov    %r13,%rdi
    246f:	ba 02 00 00 00       	mov    $0x2,%edx
    2474:	e8 b7 ed ff ff       	call   1230 <ctnetlink_parse_tuple_filter>
    2479:	85 c0                	test   %eax,%eax
    247b:	79 0e                	jns    248b <ctnetlink_alloc_filter+0x1cb>
    247d:	4c 63 e8             	movslq %eax,%r13
    2480:	4c 89 e7             	mov    %r12,%rdi
    2483:	4d 89 ec             	mov    %r13,%r12
    2486:	e8 00 00 00 00       	call   248b <ctnetlink_alloc_filter+0x1cb>
    248b:	48 8b 45 e0          	mov    -0x20(%rbp),%rax
    248f:	65 48 33 04 25 28 00 	xor    %gs:0x28,%rax
    2496:	00 00 
    2498:	75 6d                	jne    2507 <ctnetlink_alloc_filter+0x247>
    249a:	48 8d 65 e8          	lea    -0x18(%rbp),%rsp
    249e:	4c 89 e0             	mov    %r12,%rax
    24a1:	5b                   	pop    %rbx
    24a2:	41 5c                	pop    %r12
    24a4:	41 5d                	pop    %r13
    24a6:	5d                   	pop    %rbp
    24a7:	e9 00 00 00 00       	jmp    24ac <ctnetlink_alloc_filter+0x1ec>
    24ac:	49 8b 45 18          	mov    0x18(%r13),%rax
    24b0:	49 8b 95 d0 00 00 00 	mov    0xd0(%r13),%rdx
    24b7:	41 c7 44 24 64 ff ff 	movl   $0xffffffff,0x64(%r12)
    24be:	ff ff 
    24c0:	48 85 c0             	test   %rax,%rax
    24c3:	0f 85 86 fe ff ff    	jne    234f <ctnetlink_alloc_filter+0x8f>
    24c9:	48 85 d2             	test   %rdx,%rdx
    24cc:	0f 84 9e fe ff ff    	je     2370 <ctnetlink_alloc_filter+0xb0>
    24d2:	49 c7 c5 ea ff ff ff 	mov    $0xffffffffffffffea,%r13
    24d9:	eb a5                	jmp    2480 <ctnetlink_alloc_filter+0x1c0>
    24db:	48 85 d2             	test   %rdx,%rdx
    24de:	0f 84 57 fe ff ff    	je     233b <ctnetlink_alloc_filter+0x7b>
    24e4:	eb ec                	jmp    24d2 <ctnetlink_alloc_filter+0x212>
    24e6:	78 95                	js     247d <ctnetlink_alloc_filter+0x1bd>
    24e8:	e9 29 ff ff ff       	jmp    2416 <ctnetlink_alloc_filter+0x156>
    24ed:	48 c7 c7 00 00 00 00 	mov    $0x0,%rdi
    24f4:	e8 00 00 00 00       	call   24f9 <ctnetlink_alloc_filter+0x239>
    24f9:	eb d7                	jmp    24d2 <ctnetlink_alloc_filter+0x212>
    24fb:	49 c7 c5 a1 ff ff ff 	mov    $0xffffffffffffffa1,%r13
    2502:	e9 79 ff ff ff       	jmp    2480 <ctnetlink_alloc_filter+0x1c0>
    2507:	e8 00 00 00 00       	call   250c <ctnetlink_alloc_filter+0x24c>
    250c:	49 c7 c4 f4 ff ff ff 	mov    $0xfffffffffffffff4,%r12
    2513:	e9 73 ff ff ff       	jmp    248b <ctnetlink_alloc_filter+0x1cb>
    2518:	0f 1f 84 00 00 00 00 	nopl   0x0(%rax,%rax,1)
    251f:	00 

0000000000002520 <ctnetlink_start>:
    2520:	e8 00 00 00 00       	call   2525 <ctnetlink_start+0x5>
    2525:	55                   	push   %rbp
    2526:	48 89 e5             	mov    %rsp,%rbp
    2529:	53                   	push   %rbx
    252a:	48 89 fb             	mov    %rdi,%rbx
    252d:	48 8b 7f 20          	mov    0x20(%rdi),%rdi
    2531:	48 8b 43 08          	mov    0x8(%rbx),%rax
    2535:	0f b6 70 10          	movzbl 0x10(%rax),%esi
    2539:	40 84 f6             	test   %sil,%sil
    253c:	74 1a                	je     2558 <ctnetlink_start+0x38>
    253e:	e8 7d fd ff ff       	call   22c0 <ctnetlink_alloc_filter>
    2543:	48 3d 00 f0 ff ff    	cmp    $0xfffffffffffff000,%rax
    2549:	77 06                	ja     2551 <ctnetlink_start+0x31>
    254b:	48 89 43 20          	mov    %rax,0x20(%rbx)
    254f:	31 c0                	xor    %eax,%eax
    2551:	5b                   	pop    %rbx
    2552:	5d                   	pop    %rbp
    2553:	e9 00 00 00 00       	jmp    2558 <ctnetlink_start+0x38>
    2558:	48 83 7f 40 00       	cmpq   $0x0,0x40(%rdi)
    255d:	75 df                	jne    253e <ctnetlink_start+0x1e>
    255f:	48 83 bf c8 00 00 00 	cmpq   $0x0,0xc8(%rdi)
    2566:	00 
    2567:	75 d5                	jne    253e <ctnetlink_start+0x1e>
    2569:	48 8b 47 18          	mov    0x18(%rdi),%rax
    256d:	48 85 c0             	test   %rax,%rax
    2570:	75 cc                	jne    253e <ctnetlink_start+0x1e>
    2572:	eb d7                	jmp    254b <ctnetlink_start+0x2b>
    2574:	66 66 2e 0f 1f 84 00 	data16 cs nopw 0x0(%rax,%rax,1)
    257b:	00 00 00 00 
    257f:	90                   	nop

0000000000002580 <ctnetlink_glue_build_size>:
    2580:	e8 00 00 00 00       	call   2585 <ctnetlink_glue_build_size+0x5>
    2585:	55                   	push   %rbp
    2586:	ba fc ff ff ff       	mov    $0xfffffffc,%edx
    258b:	48 89 e5             	mov    %rsp,%rbp
    258e:	41 54                	push   %r12
    2590:	49 89 fc             	mov    %rdi,%r12
    2593:	53                   	push   %rbx
    2594:	bb 70 00 00 00       	mov    $0x70,%ebx
    2599:	48 83 e4 f0          	and    $0xfffffffffffffff0,%rsp
    259d:	48 83 ec 30          	sub    $0x30,%rsp
    25a1:	65 48 8b 04 25 28 00 	mov    %gs:0x28,%rax
    25a8:	00 00 
    25aa:	48 89 44 24 28       	mov    %rax,0x28(%rsp)
    25af:	31 c0                	xor    %eax,%eax
    25b1:	48 89 e6             	mov    %rsp,%rsi
    25b4:	48 8d 7c 24 10       	lea    0x10(%rsp),%rdi
    25b9:	e8 00 00 00 00       	call   25be <ctnetlink_glue_build_size+0x3e>
    25be:	85 c0                	test   %eax,%eax
    25c0:	75 18                	jne    25da <ctnetlink_glue_build_size+0x5a>
    25c2:	8b 5c 24 08          	mov    0x8(%rsp),%ebx
    25c6:	48 89 e7             	mov    %rsp,%rdi
    25c9:	e8 00 00 00 00       	call   25ce <ctnetlink_glue_build_size+0x4e>
    25ce:	83 c3 07             	add    $0x7,%ebx
    25d1:	83 e3 fc             	and    $0xfffffffc,%ebx
    25d4:	83 c3 74             	add    $0x74,%ebx
    25d7:	48 63 db             	movslq %ebx,%rbx
    25da:	49 8b 84 24 b8 00 00 	mov    0xb8(%r12),%rax
    25e1:	00 
    25e2:	48 85 c0             	test   %rax,%rax
    25e5:	74 10                	je     25f7 <ctnetlink_glue_build_size+0x77>
    25e7:	80 78 03 00          	cmpb   $0x0,0x3(%rax)
    25eb:	74 04                	je     25f1 <ctnetlink_glue_build_size+0x71>
    25ed:	48 83 c3 38          	add    $0x38,%rbx
    25f1:	80 78 05 00          	cmpb   $0x0,0x5(%rax)
    25f5:	75 2a                	jne    2621 <ctnetlink_glue_build_size+0xa1>
    25f7:	4c 89 e7             	mov    %r12,%rdi
    25fa:	e8 41 e7 ff ff       	call   d40 <ctnetlink_proto_size>
    25ff:	48 8b 4c 24 28       	mov    0x28(%rsp),%rcx
    2604:	65 48 33 0c 25 28 00 	xor    %gs:0x28,%rcx
    260b:	00 00 
    260d:	48 8d 44 03 48       	lea    0x48(%rbx,%rax,1),%rax
    2612:	75 13                	jne    2627 <ctnetlink_glue_build_size+0xa7>
    2614:	48 8d 65 f0          	lea    -0x10(%rbp),%rsp
    2618:	5b                   	pop    %rbx
    2619:	41 5c                	pop    %r12
    261b:	5d                   	pop    %rbp
    261c:	e9 00 00 00 00       	jmp    2621 <ctnetlink_glue_build_size+0xa1>
    2621:	48 83 c3 1c          	add    $0x1c,%rbx
    2625:	eb d0                	jmp    25f7 <ctnetlink_glue_build_size+0x77>
    2627:	e8 00 00 00 00       	call   262c <ctnetlink_glue_build_size+0xac>
    262c:	0f 1f 40 00          	nopl   0x0(%rax)

0000000000002630 <ctnetlink_exp_stat_cpu_dump>:
    2630:	e8 00 00 00 00       	call   2635 <ctnetlink_exp_stat_cpu_dump+0x5>
    2635:	55                   	push   %rbp
    2636:	48 89 e5             	mov    %rsp,%rbp
    2639:	41 57                	push   %r15
    263b:	41 56                	push   %r14
    263d:	41 55                	push   %r13
    263f:	49 89 f5             	mov    %rsi,%r13
    2642:	41 54                	push   %r12
    2644:	53                   	push   %rbx
    2645:	48 83 ec 28          	sub    $0x28,%rsp
    2649:	48 8b 56 50          	mov    0x50(%rsi),%rdx
    264d:	8b 35 00 00 00 00    	mov    0x0(%rip),%esi        # 2653 <ctnetlink_exp_stat_cpu_dump+0x23>
    2653:	65 48 8b 04 25 28 00 	mov    %gs:0x28,%rax
    265a:	00 00 
    265c:	48 89 45 d0          	mov    %rax,-0x30(%rbp)
    2660:	31 c0                	xor    %eax,%eax
    2662:	48 39 f2             	cmp    %rsi,%rdx
    2665:	0f 84 90 00 00 00    	je     26fb <ctnetlink_exp_stat_cpu_dump+0xcb>
    266b:	49 89 ff             	mov    %rdi,%r15
    266e:	41 89 d4             	mov    %edx,%r12d
    2671:	89 d0                	mov    %edx,%eax
    2673:	39 d6                	cmp    %edx,%esi
    2675:	0f 86 81 01 00 00    	jbe    27fc <ctnetlink_exp_stat_cpu_dump+0x1cc>
    267b:	48 8b 57 18          	mov    0x18(%rdi),%rdx
    267f:	48 8b 7a 30          	mov    0x30(%rdx),%rdi
    2683:	48 89 7d b0          	mov    %rdi,-0x50(%rbp)
    2687:	48 0f a3 05 00 00 00 	bt     %rax,0x0(%rip)        # 268f <ctnetlink_exp_stat_cpu_dump+0x5f>
    268e:	00 
    268f:	0f 83 53 01 00 00    	jae    27e8 <ctnetlink_exp_stat_cpu_dump+0x1b8>
    2695:	48 8b 45 b0          	mov    -0x50(%rbp),%rax
    2699:	48 8b 80 98 0a 00 00 	mov    0xa98(%rax),%rax
    26a0:	48 89 c3             	mov    %rax,%rbx
    26a3:	49 63 c4             	movslq %r12d,%rax
    26a6:	48 89 45 c0          	mov    %rax,-0x40(%rbp)
    26aa:	48 3d ff 1f 00 00    	cmp    $0x1fff,%rax
    26b0:	0f 87 75 01 00 00    	ja     282b <ctnetlink_exp_stat_cpu_dump+0x1fb>
    26b6:	48 8b 45 c0          	mov    -0x40(%rbp),%rax
    26ba:	45 31 c9             	xor    %r9d,%r9d
    26bd:	41 8b 4f 74          	mov    0x74(%r15),%ecx
    26c1:	48 03 1c c5 00 00 00 	add    0x0(,%rax,8),%rbx
    26c8:	00 
    26c9:	49 8b 45 08          	mov    0x8(%r13),%rax
    26cd:	8b 50 08             	mov    0x8(%rax),%edx
    26d0:	49 8b 45 00          	mov    0x0(%r13),%rax
    26d4:	8b 70 34             	mov    0x34(%rax),%esi
    26d7:	44 89 e0             	mov    %r12d,%eax
    26da:	85 f6                	test   %esi,%esi
    26dc:	41 0f 95 c1          	setne  %r9b
    26e0:	66 c1 c0 08          	rol    $0x8,%ax
    26e4:	66 89 45 be          	mov    %ax,-0x42(%rbp)
    26e8:	45 01 c9             	add    %r9d,%r9d
    26eb:	85 c9                	test   %ecx,%ecx
    26ed:	74 32                	je     2721 <ctnetlink_exp_stat_cpu_dump+0xf1>
    26ef:	48 8b 45 c0          	mov    -0x40(%rbp),%rax
    26f3:	49 89 45 50          	mov    %rax,0x50(%r13)
    26f7:	41 8b 47 70          	mov    0x70(%r15),%eax
    26fb:	48 8b 7d d0          	mov    -0x30(%rbp),%rdi
    26ff:	65 48 33 3c 25 28 00 	xor    %gs:0x28,%rdi
    2706:	00 00 
    2708:	0f 85 31 01 00 00    	jne    283f <ctnetlink_exp_stat_cpu_dump+0x20f>
    270e:	48 83 c4 28          	add    $0x28,%rsp
    2712:	5b                   	pop    %rbx
    2713:	41 5c                	pop    %r12
    2715:	41 5d                	pop    %r13
    2717:	41 5e                	pop    %r14
    2719:	41 5f                	pop    %r15
    271b:	5d                   	pop    %rbp
    271c:	e9 00 00 00 00       	jmp    2721 <ctnetlink_exp_stat_cpu_dump+0xf1>
    2721:	41 8b 87 bc 00 00 00 	mov    0xbc(%r15),%eax
    2728:	41 2b 87 b8 00 00 00 	sub    0xb8(%r15),%eax
    272f:	83 f8 13             	cmp    $0x13,%eax
    2732:	7e bb                	jle    26ef <ctnetlink_exp_stat_cpu_dump+0xbf>
    2734:	41 b8 04 00 00 00    	mov    $0x4,%r8d
    273a:	b9 03 01 00 00       	mov    $0x103,%ecx
    273f:	4c 89 ff             	mov    %r15,%rdi
    2742:	e8 00 00 00 00       	call   2747 <ctnetlink_exp_stat_cpu_dump+0x117>
    2747:	49 89 c6             	mov    %rax,%r14
    274a:	48 85 c0             	test   %rax,%rax
    274d:	74 a0                	je     26ef <ctnetlink_exp_stat_cpu_dump+0xbf>
    274f:	31 d2                	xor    %edx,%edx
    2751:	48 8d 4d cc          	lea    -0x34(%rbp),%rcx
    2755:	be 01 00 00 00       	mov    $0x1,%esi
    275a:	4c 89 ff             	mov    %r15,%rdi
    275d:	66 89 50 10          	mov    %dx,0x10(%rax)
    2761:	0f b7 45 be          	movzwl -0x42(%rbp),%eax
    2765:	ba 04 00 00 00       	mov    $0x4,%edx
    276a:	66 41 89 46 12       	mov    %ax,0x12(%r14)
    276f:	8b 43 20             	mov    0x20(%rbx),%eax
    2772:	0f c8                	bswap  %eax
    2774:	89 45 cc             	mov    %eax,-0x34(%rbp)
    2777:	e8 00 00 00 00       	call   277c <ctnetlink_exp_stat_cpu_dump+0x14c>
    277c:	85 c0                	test   %eax,%eax
    277e:	0f 85 84 00 00 00    	jne    2808 <ctnetlink_exp_stat_cpu_dump+0x1d8>
    2784:	8b 43 24             	mov    0x24(%rbx),%eax
    2787:	48 8d 4d cc          	lea    -0x34(%rbp),%rcx
    278b:	ba 04 00 00 00       	mov    $0x4,%edx
    2790:	4c 89 ff             	mov    %r15,%rdi
    2793:	be 02 00 00 00       	mov    $0x2,%esi
    2798:	0f c8                	bswap  %eax
    279a:	89 45 cc             	mov    %eax,-0x34(%rbp)
    279d:	e8 00 00 00 00       	call   27a2 <ctnetlink_exp_stat_cpu_dump+0x172>
    27a2:	85 c0                	test   %eax,%eax
    27a4:	75 62                	jne    2808 <ctnetlink_exp_stat_cpu_dump+0x1d8>
    27a6:	8b 43 28             	mov    0x28(%rbx),%eax
    27a9:	48 8d 4d cc          	lea    -0x34(%rbp),%rcx
    27ad:	ba 04 00 00 00       	mov    $0x4,%edx
    27b2:	4c 89 ff             	mov    %r15,%rdi
    27b5:	be 03 00 00 00       	mov    $0x3,%esi
    27ba:	0f c8                	bswap  %eax
    27bc:	89 45 cc             	mov    %eax,-0x34(%rbp)
    27bf:	e8 00 00 00 00       	call   27c4 <ctnetlink_exp_stat_cpu_dump+0x194>
    27c4:	85 c0                	test   %eax,%eax
    27c6:	75 40                	jne    2808 <ctnetlink_exp_stat_cpu_dump+0x1d8>
    27c8:	41 8b 87 b8 00 00 00 	mov    0xb8(%r15),%eax
    27cf:	49 03 87 c0 00 00 00 	add    0xc0(%r15),%rax
    27d6:	4c 29 f0             	sub    %r14,%rax
    27d9:	41 89 06             	mov    %eax,(%r14)
    27dc:	41 8b 47 70          	mov    0x70(%r15),%eax
    27e0:	85 c0                	test   %eax,%eax
    27e2:	0f 88 07 ff ff ff    	js     26ef <ctnetlink_exp_stat_cpu_dump+0xbf>
    27e8:	41 83 c4 01          	add    $0x1,%r12d
    27ec:	44 39 25 00 00 00 00 	cmp    %r12d,0x0(%rip)        # 27f3 <ctnetlink_exp_stat_cpu_dump+0x1c3>
    27f3:	44 89 e0             	mov    %r12d,%eax
    27f6:	0f 87 8b fe ff ff    	ja     2687 <ctnetlink_exp_stat_cpu_dump+0x57>
    27fc:	49 63 c4             	movslq %r12d,%rax
    27ff:	48 89 45 c0          	mov    %rax,-0x40(%rbp)
    2803:	e9 e7 fe ff ff       	jmp    26ef <ctnetlink_exp_stat_cpu_dump+0xbf>
    2808:	49 8b 87 c8 00 00 00 	mov    0xc8(%r15),%rax
    280f:	4c 39 f0             	cmp    %r14,%rax
    2812:	77 13                	ja     2827 <ctnetlink_exp_stat_cpu_dump+0x1f7>
    2814:	4c 89 f6             	mov    %r14,%rsi
    2817:	4c 89 ff             	mov    %r15,%rdi
    281a:	48 29 c6             	sub    %rax,%rsi
    281d:	e8 00 00 00 00       	call   2822 <ctnetlink_exp_stat_cpu_dump+0x1f2>
    2822:	e9 c8 fe ff ff       	jmp    26ef <ctnetlink_exp_stat_cpu_dump+0xbf>
    2827:	0f 0b                	ud2    
    2829:	eb e9                	jmp    2814 <ctnetlink_exp_stat_cpu_dump+0x1e4>
    282b:	48 89 c6             	mov    %rax,%rsi
    282e:	48 c7 c7 00 00 00 00 	mov    $0x0,%rdi
    2835:	e8 00 00 00 00       	call   283a <ctnetlink_exp_stat_cpu_dump+0x20a>
    283a:	e9 77 fe ff ff       	jmp    26b6 <ctnetlink_exp_stat_cpu_dump+0x86>
    283f:	e8 00 00 00 00       	call   2844 <ctnetlink_exp_stat_cpu_dump+0x214>
    2844:	66 66 2e 0f 1f 84 00 	data16 cs nopw 0x0(%rax,%rax,1)
    284b:	00 00 00 00 
    284f:	90                   	nop

0000000000002850 <ctnetlink_ct_stat_cpu_dump>:
    2850:	e8 00 00 00 00       	call   2855 <ctnetlink_ct_stat_cpu_dump+0x5>
    2855:	55                   	push   %rbp
    2856:	48 89 e5             	mov    %rsp,%rbp
    2859:	41 57                	push   %r15
    285b:	41 56                	push   %r14
    285d:	41 55                	push   %r13
    285f:	49 89 f5             	mov    %rsi,%r13
    2862:	41 54                	push   %r12
    2864:	53                   	push   %rbx
    2865:	48 83 ec 28          	sub    $0x28,%rsp
    2869:	48 8b 56 50          	mov    0x50(%rsi),%rdx
    286d:	8b 35 00 00 00 00    	mov    0x0(%rip),%esi        # 2873 <ctnetlink_ct_stat_cpu_dump+0x23>
    2873:	65 48 8b 04 25 28 00 	mov    %gs:0x28,%rax
    287a:	00 00 
    287c:	48 89 45 d0          	mov    %rax,-0x30(%rbp)
    2880:	31 c0                	xor    %eax,%eax
    2882:	48 39 f2             	cmp    %rsi,%rdx
    2885:	0f 84 90 00 00 00    	je     291b <ctnetlink_ct_stat_cpu_dump+0xcb>
    288b:	49 89 ff             	mov    %rdi,%r15
    288e:	41 89 d4             	mov    %edx,%r12d
    2891:	89 d0                	mov    %edx,%eax
    2893:	39 d6                	cmp    %edx,%esi
    2895:	0f 86 8a 02 00 00    	jbe    2b25 <ctnetlink_ct_stat_cpu_dump+0x2d5>
    289b:	48 8b 57 18          	mov    0x18(%rdi),%rdx
    289f:	48 8b 7a 30          	mov    0x30(%rdx),%rdi
    28a3:	48 89 7d b0          	mov    %rdi,-0x50(%rbp)
    28a7:	48 0f a3 05 00 00 00 	bt     %rax,0x0(%rip)        # 28af <ctnetlink_ct_stat_cpu_dump+0x5f>
    28ae:	00 
    28af:	0f 83 5c 02 00 00    	jae    2b11 <ctnetlink_ct_stat_cpu_dump+0x2c1>
    28b5:	48 8b 45 b0          	mov    -0x50(%rbp),%rax
    28b9:	48 8b 80 98 0a 00 00 	mov    0xa98(%rax),%rax
    28c0:	48 89 c3             	mov    %rax,%rbx
    28c3:	49 63 c4             	movslq %r12d,%rax
    28c6:	48 89 45 c0          	mov    %rax,-0x40(%rbp)
    28ca:	48 3d ff 1f 00 00    	cmp    $0x1fff,%rax
    28d0:	0f 87 7e 02 00 00    	ja     2b54 <ctnetlink_ct_stat_cpu_dump+0x304>
    28d6:	48 8b 45 c0          	mov    -0x40(%rbp),%rax
    28da:	45 31 c9             	xor    %r9d,%r9d
    28dd:	41 8b 4f 74          	mov    0x74(%r15),%ecx
    28e1:	48 03 1c c5 00 00 00 	add    0x0(,%rax,8),%rbx
    28e8:	00 
    28e9:	49 8b 45 08          	mov    0x8(%r13),%rax
    28ed:	8b 50 08             	mov    0x8(%rax),%edx
    28f0:	49 8b 45 00          	mov    0x0(%r13),%rax
    28f4:	8b 70 34             	mov    0x34(%rax),%esi
    28f7:	44 89 e0             	mov    %r12d,%eax
    28fa:	85 f6                	test   %esi,%esi
    28fc:	41 0f 95 c1          	setne  %r9b
    2900:	66 c1 c0 08          	rol    $0x8,%ax
    2904:	66 89 45 be          	mov    %ax,-0x42(%rbp)
    2908:	45 01 c9             	add    %r9d,%r9d
    290b:	85 c9                	test   %ecx,%ecx
    290d:	74 32                	je     2941 <ctnetlink_ct_stat_cpu_dump+0xf1>
    290f:	48 8b 45 c0          	mov    -0x40(%rbp),%rax
    2913:	49 89 45 50          	mov    %rax,0x50(%r13)
    2917:	41 8b 47 70          	mov    0x70(%r15),%eax
    291b:	48 8b 7d d0          	mov    -0x30(%rbp),%rdi
    291f:	65 48 33 3c 25 28 00 	xor    %gs:0x28,%rdi
    2926:	00 00 
    2928:	0f 85 3a 02 00 00    	jne    2b68 <ctnetlink_ct_stat_cpu_dump+0x318>
    292e:	48 83 c4 28          	add    $0x28,%rsp
    2932:	5b                   	pop    %rbx
    2933:	41 5c                	pop    %r12
    2935:	41 5d                	pop    %r13
    2937:	41 5e                	pop    %r14
    2939:	41 5f                	pop    %r15
    293b:	5d                   	pop    %rbp
    293c:	e9 00 00 00 00       	jmp    2941 <ctnetlink_ct_stat_cpu_dump+0xf1>
    2941:	41 8b 87 bc 00 00 00 	mov    0xbc(%r15),%eax
    2948:	41 2b 87 b8 00 00 00 	sub    0xb8(%r15),%eax
    294f:	83 f8 13             	cmp    $0x13,%eax
    2952:	7e bb                	jle    290f <ctnetlink_ct_stat_cpu_dump+0xbf>
    2954:	41 b8 04 00 00 00    	mov    $0x4,%r8d
    295a:	b9 04 01 00 00       	mov    $0x104,%ecx
    295f:	4c 89 ff             	mov    %r15,%rdi
    2962:	e8 00 00 00 00       	call   2967 <ctnetlink_ct_stat_cpu_dump+0x117>
    2967:	49 89 c6             	mov    %rax,%r14
    296a:	48 85 c0             	test   %rax,%rax
    296d:	74 a0                	je     290f <ctnetlink_ct_stat_cpu_dump+0xbf>
    296f:	31 d2                	xor    %edx,%edx
    2971:	48 8d 4d cc          	lea    -0x34(%rbp),%rcx
    2975:	be 02 00 00 00       	mov    $0x2,%esi
    297a:	4c 89 ff             	mov    %r15,%rdi
    297d:	66 89 50 10          	mov    %dx,0x10(%rax)
    2981:	0f b7 45 be          	movzwl -0x42(%rbp),%eax
    2985:	ba 04 00 00 00       	mov    $0x4,%edx
    298a:	66 41 89 46 12       	mov    %ax,0x12(%r14)
    298f:	8b 03                	mov    (%rbx),%eax
    2991:	0f c8                	bswap  %eax
    2993:	89 45 cc             	mov    %eax,-0x34(%rbp)
    2996:	e8 00 00 00 00       	call   299b <ctnetlink_ct_stat_cpu_dump+0x14b>
    299b:	85 c0                	test   %eax,%eax
    299d:	0f 85 8e 01 00 00    	jne    2b31 <ctnetlink_ct_stat_cpu_dump+0x2e1>
    29a3:	8b 43 04             	mov    0x4(%rbx),%eax
    29a6:	48 8d 4d cc          	lea    -0x34(%rbp),%rcx
    29aa:	ba 04 00 00 00       	mov    $0x4,%edx
    29af:	4c 89 ff             	mov    %r15,%rdi
    29b2:	be 04 00 00 00       	mov    $0x4,%esi
    29b7:	0f c8                	bswap  %eax
    29b9:	89 45 cc             	mov    %eax,-0x34(%rbp)
    29bc:	e8 00 00 00 00       	call   29c1 <ctnetlink_ct_stat_cpu_dump+0x171>
    29c1:	85 c0                	test   %eax,%eax
    29c3:	0f 85 68 01 00 00    	jne    2b31 <ctnetlink_ct_stat_cpu_dump+0x2e1>
    29c9:	8b 43 08             	mov    0x8(%rbx),%eax
    29cc:	48 8d 4d cc          	lea    -0x34(%rbp),%rcx
    29d0:	ba 04 00 00 00       	mov    $0x4,%edx
    29d5:	4c 89 ff             	mov    %r15,%rdi
    29d8:	be 08 00 00 00       	mov    $0x8,%esi
    29dd:	0f c8                	bswap  %eax
    29df:	89 45 cc             	mov    %eax,-0x34(%rbp)
    29e2:	e8 00 00 00 00       	call   29e7 <ctnetlink_ct_stat_cpu_dump+0x197>
    29e7:	85 c0                	test   %eax,%eax
    29e9:	0f 85 42 01 00 00    	jne    2b31 <ctnetlink_ct_stat_cpu_dump+0x2e1>
    29ef:	8b 43 0c             	mov    0xc(%rbx),%eax
    29f2:	48 8d 4d cc          	lea    -0x34(%rbp),%rcx
    29f6:	ba 04 00 00 00       	mov    $0x4,%edx
    29fb:	4c 89 ff             	mov    %r15,%rdi
    29fe:	be 09 00 00 00       	mov    $0x9,%esi
    2a03:	0f c8                	bswap  %eax
    2a05:	89 45 cc             	mov    %eax,-0x34(%rbp)
    2a08:	e8 00 00 00 00       	call   2a0d <ctnetlink_ct_stat_cpu_dump+0x1bd>
    2a0d:	85 c0                	test   %eax,%eax
    2a0f:	0f 85 1c 01 00 00    	jne    2b31 <ctnetlink_ct_stat_cpu_dump+0x2e1>
    2a15:	8b 43 14             	mov    0x14(%rbx),%eax
    2a18:	48 8d 4d cc          	lea    -0x34(%rbp),%rcx
    2a1c:	ba 04 00 00 00       	mov    $0x4,%edx
    2a21:	4c 89 ff             	mov    %r15,%rdi
    2a24:	be 0a 00 00 00       	mov    $0xa,%esi
    2a29:	0f c8                	bswap  %eax
    2a2b:	89 45 cc             	mov    %eax,-0x34(%rbp)
    2a2e:	e8 00 00 00 00       	call   2a33 <ctnetlink_ct_stat_cpu_dump+0x1e3>
    2a33:	85 c0                	test   %eax,%eax
    2a35:	0f 85 f6 00 00 00    	jne    2b31 <ctnetlink_ct_stat_cpu_dump+0x2e1>
    2a3b:	8b 43 18             	mov    0x18(%rbx),%eax
    2a3e:	48 8d 4d cc          	lea    -0x34(%rbp),%rcx
    2a42:	ba 04 00 00 00       	mov    $0x4,%edx
    2a47:	4c 89 ff             	mov    %r15,%rdi
    2a4a:	be 0b 00 00 00       	mov    $0xb,%esi
    2a4f:	0f c8                	bswap  %eax
    2a51:	89 45 cc             	mov    %eax,-0x34(%rbp)
    2a54:	e8 00 00 00 00       	call   2a59 <ctnetlink_ct_stat_cpu_dump+0x209>
    2a59:	85 c0                	test   %eax,%eax
    2a5b:	0f 85 d0 00 00 00    	jne    2b31 <ctnetlink_ct_stat_cpu_dump+0x2e1>
    2a61:	8b 43 1c             	mov    0x1c(%rbx),%eax
    2a64:	48 8d 4d cc          	lea    -0x34(%rbp),%rcx
    2a68:	ba 04 00 00 00       	mov    $0x4,%edx
    2a6d:	4c 89 ff             	mov    %r15,%rdi
    2a70:	be 0c 00 00 00       	mov    $0xc,%esi
    2a75:	0f c8                	bswap  %eax
    2a77:	89 45 cc             	mov    %eax,-0x34(%rbp)
    2a7a:	e8 00 00 00 00       	call   2a7f <ctnetlink_ct_stat_cpu_dump+0x22f>
    2a7f:	85 c0                	test   %eax,%eax
    2a81:	0f 85 aa 00 00 00    	jne    2b31 <ctnetlink_ct_stat_cpu_dump+0x2e1>
    2a87:	8b 43 2c             	mov    0x2c(%rbx),%eax
    2a8a:	48 8d 4d cc          	lea    -0x34(%rbp),%rcx
    2a8e:	ba 04 00 00 00       	mov    $0x4,%edx
    2a93:	4c 89 ff             	mov    %r15,%rdi
    2a96:	be 0d 00 00 00       	mov    $0xd,%esi
    2a9b:	0f c8                	bswap  %eax
    2a9d:	89 45 cc             	mov    %eax,-0x34(%rbp)
    2aa0:	e8 00 00 00 00       	call   2aa5 <ctnetlink_ct_stat_cpu_dump+0x255>
    2aa5:	85 c0                	test   %eax,%eax
    2aa7:	0f 85 84 00 00 00    	jne    2b31 <ctnetlink_ct_stat_cpu_dump+0x2e1>
    2aad:	8b 43 10             	mov    0x10(%rbx),%eax
    2ab0:	48 8d 4d cc          	lea    -0x34(%rbp),%rcx
    2ab4:	ba 04 00 00 00       	mov    $0x4,%edx
    2ab9:	4c 89 ff             	mov    %r15,%rdi
    2abc:	be 0e 00 00 00       	mov    $0xe,%esi
    2ac1:	0f c8                	bswap  %eax
    2ac3:	89 45 cc             	mov    %eax,-0x34(%rbp)
    2ac6:	e8 00 00 00 00       	call   2acb <ctnetlink_ct_stat_cpu_dump+0x27b>
    2acb:	85 c0                	test   %eax,%eax
    2acd:	75 62                	jne    2b31 <ctnetlink_ct_stat_cpu_dump+0x2e1>
    2acf:	8b 43 30             	mov    0x30(%rbx),%eax
    2ad2:	48 8d 4d cc          	lea    -0x34(%rbp),%rcx
    2ad6:	ba 04 00 00 00       	mov    $0x4,%edx
    2adb:	4c 89 ff             	mov    %r15,%rdi
    2ade:	be 0f 00 00 00       	mov    $0xf,%esi
    2ae3:	0f c8                	bswap  %eax
    2ae5:	89 45 cc             	mov    %eax,-0x34(%rbp)
    2ae8:	e8 00 00 00 00       	call   2aed <ctnetlink_ct_stat_cpu_dump+0x29d>
    2aed:	85 c0                	test   %eax,%eax
    2aef:	75 40                	jne    2b31 <ctnetlink_ct_stat_cpu_dump+0x2e1>
    2af1:	41 8b 87 b8 00 00 00 	mov    0xb8(%r15),%eax
    2af8:	49 03 87 c0 00 00 00 	add    0xc0(%r15),%rax
    2aff:	4c 29 f0             	sub    %r14,%rax
    2b02:	41 89 06             	mov    %eax,(%r14)
    2b05:	41 8b 47 70          	mov    0x70(%r15),%eax
    2b09:	85 c0                	test   %eax,%eax
    2b0b:	0f 88 fe fd ff ff    	js     290f <ctnetlink_ct_stat_cpu_dump+0xbf>
    2b11:	41 83 c4 01          	add    $0x1,%r12d
    2b15:	44 39 25 00 00 00 00 	cmp    %r12d,0x0(%rip)        # 2b1c <ctnetlink_ct_stat_cpu_dump+0x2cc>
    2b1c:	44 89 e0             	mov    %r12d,%eax
    2b1f:	0f 87 82 fd ff ff    	ja     28a7 <ctnetlink_ct_stat_cpu_dump+0x57>
    2b25:	49 63 c4             	movslq %r12d,%rax
    2b28:	48 89 45 c0          	mov    %rax,-0x40(%rbp)
    2b2c:	e9 de fd ff ff       	jmp    290f <ctnetlink_ct_stat_cpu_dump+0xbf>
    2b31:	49 8b 87 c8 00 00 00 	mov    0xc8(%r15),%rax
    2b38:	4c 39 f0             	cmp    %r14,%rax
    2b3b:	77 13                	ja     2b50 <ctnetlink_ct_stat_cpu_dump+0x300>
    2b3d:	4c 89 f6             	mov    %r14,%rsi
    2b40:	4c 89 ff             	mov    %r15,%rdi
    2b43:	48 29 c6             	sub    %rax,%rsi
    2b46:	e8 00 00 00 00       	call   2b4b <ctnetlink_ct_stat_cpu_dump+0x2fb>
    2b4b:	e9 bf fd ff ff       	jmp    290f <ctnetlink_ct_stat_cpu_dump+0xbf>
    2b50:	0f 0b                	ud2    
    2b52:	eb e9                	jmp    2b3d <ctnetlink_ct_stat_cpu_dump+0x2ed>
    2b54:	48 89 c6             	mov    %rax,%rsi
    2b57:	48 c7 c7 00 00 00 00 	mov    $0x0,%rdi
    2b5e:	e8 00 00 00 00       	call   2b63 <ctnetlink_ct_stat_cpu_dump+0x313>
    2b63:	e9 6e fd ff ff       	jmp    28d6 <ctnetlink_ct_stat_cpu_dump+0x86>
    2b68:	e8 00 00 00 00       	call   2b6d <ctnetlink_ct_stat_cpu_dump+0x31d>
    2b6d:	0f 1f 00             	nopl   (%rax)

0000000000002b70 <ctnetlink_filter_match_tuple>:
    2b70:	e8 00 00 00 00       	call   2b75 <ctnetlink_filter_match_tuple+0x5>
    2b75:	55                   	push   %rbp
    2b76:	48 89 e5             	mov    %rsp,%rbp
    2b79:	83 f9 02             	cmp    $0x2,%ecx
    2b7c:	0f 84 be 00 00 00    	je     2c40 <ctnetlink_filter_match_tuple+0xd0>
    2b82:	83 f9 0a             	cmp    $0xa,%ecx
    2b85:	75 12                	jne    2b99 <ctnetlink_filter_match_tuple+0x29>
    2b87:	f6 c2 01             	test   $0x1,%dl
    2b8a:	0f 85 19 01 00 00    	jne    2ca9 <ctnetlink_filter_match_tuple+0x139>
    2b90:	f6 c2 02             	test   $0x2,%dl
    2b93:	0f 85 32 01 00 00    	jne    2ccb <ctnetlink_filter_match_tuple+0x15b>
    2b99:	0f b6 46 26          	movzbl 0x26(%rsi),%eax
    2b9d:	f6 c2 08             	test   $0x8,%dl
    2ba0:	75 7a                	jne    2c1c <ctnetlink_filter_match_tuple+0xac>
    2ba2:	3c 11                	cmp    $0x11,%al
    2ba4:	74 0e                	je     2bb4 <ctnetlink_filter_match_tuple+0x44>
    2ba6:	77 38                	ja     2be0 <ctnetlink_filter_match_tuple+0x70>
    2ba8:	3c 01                	cmp    $0x1,%al
    2baa:	0f 84 bb 00 00 00    	je     2c6b <ctnetlink_filter_match_tuple+0xfb>
    2bb0:	3c 06                	cmp    $0x6,%al
    2bb2:	75 7d                	jne    2c31 <ctnetlink_filter_match_tuple+0xc1>
    2bb4:	f6 c2 10             	test   $0x10,%dl
    2bb7:	0f 85 2c 01 00 00    	jne    2ce9 <ctnetlink_filter_match_tuple+0x179>
    2bbd:	83 e2 20             	and    $0x20,%edx
    2bc0:	41 b8 01 00 00 00    	mov    $0x1,%r8d
    2bc6:	74 0f                	je     2bd7 <ctnetlink_filter_match_tuple+0x67>
    2bc8:	45 31 c0             	xor    %r8d,%r8d
    2bcb:	0f b7 46 24          	movzwl 0x24(%rsi),%eax
    2bcf:	66 39 47 24          	cmp    %ax,0x24(%rdi)
    2bd3:	41 0f 94 c0          	sete   %r8b
    2bd7:	44 89 c0             	mov    %r8d,%eax
    2bda:	5d                   	pop    %rbp
    2bdb:	e9 00 00 00 00       	jmp    2be0 <ctnetlink_filter_match_tuple+0x70>
    2be0:	3c 3a                	cmp    $0x3a,%al
    2be2:	75 4d                	jne    2c31 <ctnetlink_filter_match_tuple+0xc1>
    2be4:	f6 c6 02             	test   $0x2,%dh
    2be7:	74 0c                	je     2bf5 <ctnetlink_filter_match_tuple+0x85>
    2be9:	0f b6 46 24          	movzbl 0x24(%rsi),%eax
    2bed:	45 31 c0             	xor    %r8d,%r8d
    2bf0:	38 47 24             	cmp    %al,0x24(%rdi)
    2bf3:	75 e2                	jne    2bd7 <ctnetlink_filter_match_tuple+0x67>
    2bf5:	f6 c6 04             	test   $0x4,%dh
    2bf8:	74 0c                	je     2c06 <ctnetlink_filter_match_tuple+0x96>
    2bfa:	0f b6 46 25          	movzbl 0x25(%rsi),%eax
    2bfe:	45 31 c0             	xor    %r8d,%r8d
    2c01:	38 47 25             	cmp    %al,0x25(%rdi)
    2c04:	75 d1                	jne    2bd7 <ctnetlink_filter_match_tuple+0x67>
    2c06:	80 e6 08             	and    $0x8,%dh
    2c09:	74 26                	je     2c31 <ctnetlink_filter_match_tuple+0xc1>
    2c0b:	45 31 c0             	xor    %r8d,%r8d
    2c0e:	0f b7 46 10          	movzwl 0x10(%rsi),%eax
    2c12:	66 39 47 10          	cmp    %ax,0x10(%rdi)
    2c16:	41 0f 94 c0          	sete   %r8b
    2c1a:	eb bb                	jmp    2bd7 <ctnetlink_filter_match_tuple+0x67>
    2c1c:	45 31 c0             	xor    %r8d,%r8d
    2c1f:	38 47 26             	cmp    %al,0x26(%rdi)
    2c22:	0f 84 7a ff ff ff    	je     2ba2 <ctnetlink_filter_match_tuple+0x32>
    2c28:	44 89 c0             	mov    %r8d,%eax
    2c2b:	5d                   	pop    %rbp
    2c2c:	e9 00 00 00 00       	jmp    2c31 <ctnetlink_filter_match_tuple+0xc1>
    2c31:	41 b8 01 00 00 00    	mov    $0x1,%r8d
    2c37:	5d                   	pop    %rbp
    2c38:	44 89 c0             	mov    %r8d,%eax
    2c3b:	e9 00 00 00 00       	jmp    2c40 <ctnetlink_filter_match_tuple+0xd0>
    2c40:	f6 c2 01             	test   $0x1,%dl
    2c43:	74 09                	je     2c4e <ctnetlink_filter_match_tuple+0xde>
    2c45:	8b 06                	mov    (%rsi),%eax
    2c47:	45 31 c0             	xor    %r8d,%r8d
    2c4a:	39 07                	cmp    %eax,(%rdi)
    2c4c:	75 89                	jne    2bd7 <ctnetlink_filter_match_tuple+0x67>
    2c4e:	f6 c2 02             	test   $0x2,%dl
    2c51:	0f 84 42 ff ff ff    	je     2b99 <ctnetlink_filter_match_tuple+0x29>
    2c57:	8b 46 14             	mov    0x14(%rsi),%eax
    2c5a:	45 31 c0             	xor    %r8d,%r8d
    2c5d:	39 47 14             	cmp    %eax,0x14(%rdi)
    2c60:	0f 85 71 ff ff ff    	jne    2bd7 <ctnetlink_filter_match_tuple+0x67>
    2c66:	e9 2e ff ff ff       	jmp    2b99 <ctnetlink_filter_match_tuple+0x29>
    2c6b:	f6 c2 40             	test   $0x40,%dl
    2c6e:	74 10                	je     2c80 <ctnetlink_filter_match_tuple+0x110>
    2c70:	0f b6 46 24          	movzbl 0x24(%rsi),%eax
    2c74:	45 31 c0             	xor    %r8d,%r8d
    2c77:	38 47 24             	cmp    %al,0x24(%rdi)
    2c7a:	0f 85 57 ff ff ff    	jne    2bd7 <ctnetlink_filter_match_tuple+0x67>
    2c80:	f6 c2 80             	test   $0x80,%dl
    2c83:	74 10                	je     2c95 <ctnetlink_filter_match_tuple+0x125>
    2c85:	0f b6 46 25          	movzbl 0x25(%rsi),%eax
    2c89:	45 31 c0             	xor    %r8d,%r8d
    2c8c:	38 47 25             	cmp    %al,0x25(%rdi)
    2c8f:	0f 85 42 ff ff ff    	jne    2bd7 <ctnetlink_filter_match_tuple+0x67>
    2c95:	41 b8 01 00 00 00    	mov    $0x1,%r8d
    2c9b:	80 e6 01             	and    $0x1,%dh
    2c9e:	0f 84 33 ff ff ff    	je     2bd7 <ctnetlink_filter_match_tuple+0x67>
    2ca4:	e9 62 ff ff ff       	jmp    2c0b <ctnetlink_filter_match_tuple+0x9b>
    2ca9:	48 8b 06             	mov    (%rsi),%rax
    2cac:	48 39 07             	cmp    %rax,(%rdi)
    2caf:	0f 85 db fe ff ff    	jne    2b90 <ctnetlink_filter_match_tuple+0x20>
    2cb5:	48 8b 46 08          	mov    0x8(%rsi),%rax
    2cb9:	48 39 47 08          	cmp    %rax,0x8(%rdi)
    2cbd:	0f 85 cd fe ff ff    	jne    2b90 <ctnetlink_filter_match_tuple+0x20>
    2cc3:	45 31 c0             	xor    %r8d,%r8d
    2cc6:	e9 0c ff ff ff       	jmp    2bd7 <ctnetlink_filter_match_tuple+0x67>
    2ccb:	4c 8b 4e 14          	mov    0x14(%rsi),%r9
    2ccf:	4c 39 4f 14          	cmp    %r9,0x14(%rdi)
    2cd3:	0f 85 c0 fe ff ff    	jne    2b99 <ctnetlink_filter_match_tuple+0x29>
    2cd9:	48 8b 46 1c          	mov    0x1c(%rsi),%rax
    2cdd:	48 39 47 1c          	cmp    %rax,0x1c(%rdi)
    2ce1:	0f 85 b2 fe ff ff    	jne    2b99 <ctnetlink_filter_match_tuple+0x29>
    2ce7:	eb da                	jmp    2cc3 <ctnetlink_filter_match_tuple+0x153>
    2ce9:	0f b7 46 10          	movzwl 0x10(%rsi),%eax
    2ced:	45 31 c0             	xor    %r8d,%r8d
    2cf0:	66 39 47 10          	cmp    %ax,0x10(%rdi)
    2cf4:	0f 85 dd fe ff ff    	jne    2bd7 <ctnetlink_filter_match_tuple+0x67>
    2cfa:	e9 be fe ff ff       	jmp    2bbd <ctnetlink_filter_match_tuple+0x4d>
    2cff:	90                   	nop

0000000000002d00 <ctnetlink_filter_match>:
    2d00:	e8 00 00 00 00       	call   2d05 <ctnetlink_filter_match+0x5>
    2d05:	48 85 f6             	test   %rsi,%rsi
    2d08:	0f 84 9f 00 00 00    	je     2dad <ctnetlink_filter_match+0xad>
    2d0e:	55                   	push   %rbp
    2d0f:	48 89 e5             	mov    %rsp,%rbp
    2d12:	41 55                	push   %r13
    2d14:	49 89 fd             	mov    %rdi,%r13
    2d17:	41 54                	push   %r12
    2d19:	53                   	push   %rbx
    2d1a:	44 0f b6 26          	movzbl (%rsi),%r12d
    2d1e:	48 89 f3             	mov    %rsi,%rbx
    2d21:	45 84 e4             	test   %r12b,%r12b
    2d24:	74 17                	je     2d3d <ctnetlink_filter_match+0x3d>
    2d26:	41 0f b6 d4          	movzbl %r12b,%edx
    2d2a:	31 c0                	xor    %eax,%eax
    2d2c:	66 3b 57 32          	cmp    0x32(%rdi),%dx
    2d30:	74 0b                	je     2d3d <ctnetlink_filter_match+0x3d>
    2d32:	5b                   	pop    %rbx
    2d33:	41 5c                	pop    %r12
    2d35:	41 5d                	pop    %r13
    2d37:	5d                   	pop    %rbp
    2d38:	e9 00 00 00 00       	jmp    2d3d <ctnetlink_filter_match+0x3d>
    2d3d:	8b 53 04             	mov    0x4(%rbx),%edx
    2d40:	85 d2                	test   %edx,%edx
    2d42:	75 36                	jne    2d7a <ctnetlink_filter_match+0x7a>
    2d44:	8b 53 08             	mov    0x8(%rbx),%edx
    2d47:	85 d2                	test   %edx,%edx
    2d49:	75 4b                	jne    2d96 <ctnetlink_filter_match+0x96>
    2d4b:	41 8b 95 b0 00 00 00 	mov    0xb0(%r13),%edx
    2d52:	31 c0                	xor    %eax,%eax
    2d54:	23 53 64             	and    0x64(%rbx),%edx
    2d57:	3b 53 60             	cmp    0x60(%rbx),%edx
    2d5a:	75 d6                	jne    2d32 <ctnetlink_filter_match+0x32>
    2d5c:	49 8b 85 80 00 00 00 	mov    0x80(%r13),%rax
    2d63:	23 43 6c             	and    0x6c(%rbx),%eax
    2d66:	3b 43 68             	cmp    0x68(%rbx),%eax
    2d69:	5b                   	pop    %rbx
    2d6a:	0f 94 c0             	sete   %al
    2d6d:	41 5c                	pop    %r12
    2d6f:	41 5d                	pop    %r13
    2d71:	0f b6 c0             	movzbl %al,%eax
    2d74:	5d                   	pop    %rbp
    2d75:	e9 00 00 00 00       	jmp    2d7a <ctnetlink_filter_match+0x7a>
    2d7a:	41 0f b6 cc          	movzbl %r12b,%ecx
    2d7e:	49 8d 75 20          	lea    0x20(%r13),%rsi
    2d82:	48 8d 7b 0c          	lea    0xc(%rbx),%rdi
    2d86:	e8 e5 fd ff ff       	call   2b70 <ctnetlink_filter_match_tuple>
    2d8b:	85 c0                	test   %eax,%eax
    2d8d:	74 a3                	je     2d32 <ctnetlink_filter_match+0x32>
    2d8f:	8b 53 08             	mov    0x8(%rbx),%edx
    2d92:	85 d2                	test   %edx,%edx
    2d94:	74 b5                	je     2d4b <ctnetlink_filter_match+0x4b>
    2d96:	41 0f b6 cc          	movzbl %r12b,%ecx
    2d9a:	49 8d 75 58          	lea    0x58(%r13),%rsi
    2d9e:	48 8d 7b 34          	lea    0x34(%rbx),%rdi
    2da2:	e8 c9 fd ff ff       	call   2b70 <ctnetlink_filter_match_tuple>
    2da7:	85 c0                	test   %eax,%eax
    2da9:	75 a0                	jne    2d4b <ctnetlink_filter_match+0x4b>
    2dab:	eb 85                	jmp    2d32 <ctnetlink_filter_match+0x32>
    2dad:	b8 01 00 00 00       	mov    $0x1,%eax
    2db2:	e9 00 00 00 00       	jmp    2db7 <ctnetlink_filter_match+0xb7>
    2db7:	66 0f 1f 84 00 00 00 	nopw   0x0(%rax,%rax,1)
    2dbe:	00 00 

0000000000002dc0 <ctnetlink_flush_iterate>:
    2dc0:	e8 00 00 00 00       	call   2dc5 <ctnetlink_flush_iterate+0x5>
    2dc5:	55                   	push   %rbp
    2dc6:	48 89 e5             	mov    %rsp,%rbp
    2dc9:	e8 32 ff ff ff       	call   2d00 <ctnetlink_filter_match>
    2dce:	5d                   	pop    %rbp
    2dcf:	e9 00 00 00 00       	jmp    2dd4 <ctnetlink_flush_iterate+0x14>
    2dd4:	66 66 2e 0f 1f 84 00 	data16 cs nopw 0x0(%rax,%rax,1)
    2ddb:	00 00 00 00 
    2ddf:	90                   	nop

0000000000002de0 <ctnetlink_stat_ct>:
    2de0:	e8 00 00 00 00       	call   2de5 <ctnetlink_stat_ct+0x5>
    2de5:	55                   	push   %rbp
    2de6:	31 d2                	xor    %edx,%edx
    2de8:	b9 ff ff ff ff       	mov    $0xffffffff,%ecx
    2ded:	48 89 e5             	mov    %rsp,%rbp
    2df0:	41 57                	push   %r15
    2df2:	41 56                	push   %r14
    2df4:	49 89 f6             	mov    %rsi,%r14
    2df7:	be c0 0c 00 00       	mov    $0xcc0,%esi
    2dfc:	41 55                	push   %r13
    2dfe:	49 89 fd             	mov    %rdi,%r13
    2e01:	bf c0 0e 00 00       	mov    $0xec0,%edi
    2e06:	41 54                	push   %r12
    2e08:	53                   	push   %rbx
    2e09:	48 83 ec 10          	sub    $0x10,%rsp
    2e0d:	65 48 8b 04 25 28 00 	mov    %gs:0x28,%rax
    2e14:	00 00 
    2e16:	48 89 45 d0          	mov    %rax,-0x30(%rbp)
    2e1a:	31 c0                	xor    %eax,%eax
    2e1c:	e8 00 00 00 00       	call   2e21 <ctnetlink_stat_ct+0x41>
    2e21:	48 85 c0             	test   %rax,%rax
    2e24:	0f 84 39 01 00 00    	je     2f63 <ctnetlink_stat_ct+0x183>
    2e2a:	49 89 c4             	mov    %rax,%r12
    2e2d:	41 8b 75 34          	mov    0x34(%r13),%esi
    2e31:	49 8b 45 18          	mov    0x18(%r13),%rax
    2e35:	45 31 c9             	xor    %r9d,%r9d
    2e38:	41 8b 4c 24 74       	mov    0x74(%r12),%ecx
    2e3d:	85 f6                	test   %esi,%esi
    2e3f:	4c 8b 78 30          	mov    0x30(%rax),%r15
    2e43:	49 8b 46 10          	mov    0x10(%r14),%rax
    2e47:	41 0f 95 c1          	setne  %r9b
    2e4b:	8b 50 08             	mov    0x8(%rax),%edx
    2e4e:	45 01 c9             	add    %r9d,%r9d
    2e51:	85 c9                	test   %ecx,%ecx
    2e53:	0f 85 f5 00 00 00    	jne    2f4e <ctnetlink_stat_ct+0x16e>
    2e59:	41 8b 84 24 bc 00 00 	mov    0xbc(%r12),%eax
    2e60:	00 
    2e61:	41 2b 84 24 b8 00 00 	sub    0xb8(%r12),%eax
    2e68:	00 
    2e69:	83 f8 13             	cmp    $0x13,%eax
    2e6c:	0f 8e dc 00 00 00    	jle    2f4e <ctnetlink_stat_ct+0x16e>
    2e72:	41 b8 04 00 00 00    	mov    $0x4,%r8d
    2e78:	b9 05 01 00 00       	mov    $0x105,%ecx
    2e7d:	4c 89 e7             	mov    %r12,%rdi
    2e80:	e8 00 00 00 00       	call   2e85 <ctnetlink_stat_ct+0xa5>
    2e85:	48 89 c3             	mov    %rax,%rbx
    2e88:	48 85 c0             	test   %rax,%rax
    2e8b:	0f 84 bd 00 00 00    	je     2f4e <ctnetlink_stat_ct+0x16e>
    2e91:	c7 40 10 00 00 00 00 	movl   $0x0,0x10(%rax)
    2e98:	4c 89 ff             	mov    %r15,%rdi
    2e9b:	e8 00 00 00 00       	call   2ea0 <ctnetlink_stat_ct+0xc0>
    2ea0:	48 8d 4d cc          	lea    -0x34(%rbp),%rcx
    2ea4:	ba 04 00 00 00       	mov    $0x4,%edx
    2ea9:	4c 89 e7             	mov    %r12,%rdi
    2eac:	be 01 00 00 00       	mov    $0x1,%esi
    2eb1:	0f c8                	bswap  %eax
    2eb3:	89 45 cc             	mov    %eax,-0x34(%rbp)
    2eb6:	e8 00 00 00 00       	call   2ebb <ctnetlink_stat_ct+0xdb>
    2ebb:	85 c0                	test   %eax,%eax
    2ebd:	75 74                	jne    2f33 <ctnetlink_stat_ct+0x153>
    2ebf:	8b 05 00 00 00 00    	mov    0x0(%rip),%eax        # 2ec5 <ctnetlink_stat_ct+0xe5>
    2ec5:	48 8d 4d cc          	lea    -0x34(%rbp),%rcx
    2ec9:	ba 04 00 00 00       	mov    $0x4,%edx
    2ece:	4c 89 e7             	mov    %r12,%rdi
    2ed1:	be 02 00 00 00       	mov    $0x2,%esi
    2ed6:	0f c8                	bswap  %eax
    2ed8:	89 45 cc             	mov    %eax,-0x34(%rbp)
    2edb:	e8 00 00 00 00       	call   2ee0 <ctnetlink_stat_ct+0x100>
    2ee0:	85 c0                	test   %eax,%eax
    2ee2:	75 4f                	jne    2f33 <ctnetlink_stat_ct+0x153>
    2ee4:	41 8b 84 24 b8 00 00 	mov    0xb8(%r12),%eax
    2eeb:	00 
    2eec:	49 03 84 24 c0 00 00 	add    0xc0(%r12),%rax
    2ef3:	00 
    2ef4:	48 29 d8             	sub    %rbx,%rax
    2ef7:	89 03                	mov    %eax,(%rbx)
    2ef9:	41 8b 44 24 70       	mov    0x70(%r12),%eax
    2efe:	85 c0                	test   %eax,%eax
    2f00:	7e 4c                	jle    2f4e <ctnetlink_stat_ct+0x16e>
    2f02:	41 8b 55 34          	mov    0x34(%r13),%edx
    2f06:	49 8b 36             	mov    (%r14),%rsi
    2f09:	4c 89 e7             	mov    %r12,%rdi
    2f0c:	e8 00 00 00 00       	call   2f11 <ctnetlink_stat_ct+0x131>
    2f11:	48 8b 4d d0          	mov    -0x30(%rbp),%rcx
    2f15:	65 48 33 0c 25 28 00 	xor    %gs:0x28,%rcx
    2f1c:	00 00 
    2f1e:	75 4a                	jne    2f6a <ctnetlink_stat_ct+0x18a>
    2f20:	48 83 c4 10          	add    $0x10,%rsp
    2f24:	5b                   	pop    %rbx
    2f25:	41 5c                	pop    %r12
    2f27:	41 5d                	pop    %r13
    2f29:	41 5e                	pop    %r14
    2f2b:	41 5f                	pop    %r15
    2f2d:	5d                   	pop    %rbp
    2f2e:	e9 00 00 00 00       	jmp    2f33 <ctnetlink_stat_ct+0x153>
    2f33:	49 8b 84 24 c8 00 00 	mov    0xc8(%r12),%rax
    2f3a:	00 
    2f3b:	48 39 d8             	cmp    %rbx,%rax
    2f3e:	77 1f                	ja     2f5f <ctnetlink_stat_ct+0x17f>
    2f40:	48 29 c3             	sub    %rax,%rbx
    2f43:	4c 89 e7             	mov    %r12,%rdi
    2f46:	48 89 de             	mov    %rbx,%rsi
    2f49:	e8 00 00 00 00       	call   2f4e <ctnetlink_stat_ct+0x16e>
    2f4e:	31 f6                	xor    %esi,%esi
    2f50:	4c 89 e7             	mov    %r12,%rdi
    2f53:	e8 00 00 00 00       	call   2f58 <ctnetlink_stat_ct+0x178>
    2f58:	b8 f4 ff ff ff       	mov    $0xfffffff4,%eax
    2f5d:	eb b2                	jmp    2f11 <ctnetlink_stat_ct+0x131>
    2f5f:	0f 0b                	ud2    
    2f61:	eb dd                	jmp    2f40 <ctnetlink_stat_ct+0x160>
    2f63:	b8 f4 ff ff ff       	mov    $0xfffffff4,%eax
    2f68:	eb a7                	jmp    2f11 <ctnetlink_stat_ct+0x131>
    2f6a:	e8 00 00 00 00       	call   2f6f <ctnetlink_stat_ct+0x18f>
    2f6f:	90                   	nop

0000000000002f70 <ctnetlink_done_list>:
    2f70:	e8 00 00 00 00       	call   2f75 <ctnetlink_done_list+0x5>
    2f75:	48 8b 7f 58          	mov    0x58(%rdi),%rdi
    2f79:	48 85 ff             	test   %rdi,%rdi
    2f7c:	75 07                	jne    2f85 <ctnetlink_done_list+0x15>
    2f7e:	31 c0                	xor    %eax,%eax
    2f80:	e9 00 00 00 00       	jmp    2f85 <ctnetlink_done_list+0x15>
    2f85:	55                   	push   %rbp
    2f86:	b8 ff ff ff ff       	mov    $0xffffffff,%eax
    2f8b:	48 89 e5             	mov    %rsp,%rbp
    2f8e:	f0 0f c1 07          	lock xadd %eax,(%rdi)
    2f92:	83 f8 01             	cmp    $0x1,%eax
    2f95:	74 0c                	je     2fa3 <ctnetlink_done_list+0x33>
    2f97:	85 c0                	test   %eax,%eax
    2f99:	7e 15                	jle    2fb0 <ctnetlink_done_list+0x40>
    2f9b:	31 c0                	xor    %eax,%eax
    2f9d:	5d                   	pop    %rbp
    2f9e:	e9 00 00 00 00       	jmp    2fa3 <ctnetlink_done_list+0x33>
    2fa3:	e8 00 00 00 00       	call   2fa8 <ctnetlink_done_list+0x38>
    2fa8:	31 c0                	xor    %eax,%eax
    2faa:	5d                   	pop    %rbp
    2fab:	e9 00 00 00 00       	jmp    2fb0 <ctnetlink_done_list+0x40>
    2fb0:	be 03 00 00 00       	mov    $0x3,%esi
    2fb5:	e8 00 00 00 00       	call   2fba <ctnetlink_done_list+0x4a>
    2fba:	eb df                	jmp    2f9b <ctnetlink_done_list+0x2b>
    2fbc:	0f 1f 40 00          	nopl   0x0(%rax)

0000000000002fc0 <ctnetlink_done>:
    2fc0:	e8 00 00 00 00       	call   2fc5 <ctnetlink_done+0x5>
    2fc5:	55                   	push   %rbp
    2fc6:	48 89 e5             	mov    %rsp,%rbp
    2fc9:	53                   	push   %rbx
    2fca:	48 89 fb             	mov    %rdi,%rbx
    2fcd:	48 8b 7f 58          	mov    0x58(%rdi),%rdi
    2fd1:	48 85 ff             	test   %rdi,%rdi
    2fd4:	75 12                	jne    2fe8 <ctnetlink_done+0x28>
    2fd6:	48 8b 7b 20          	mov    0x20(%rbx),%rdi
    2fda:	e8 00 00 00 00       	call   2fdf <ctnetlink_done+0x1f>
    2fdf:	31 c0                	xor    %eax,%eax
    2fe1:	5b                   	pop    %rbx
    2fe2:	5d                   	pop    %rbp
    2fe3:	e9 00 00 00 00       	jmp    2fe8 <ctnetlink_done+0x28>
    2fe8:	b8 ff ff ff ff       	mov    $0xffffffff,%eax
    2fed:	f0 0f c1 07          	lock xadd %eax,(%rdi)
    2ff1:	83 f8 01             	cmp    $0x1,%eax
    2ff4:	74 10                	je     3006 <ctnetlink_done+0x46>
    2ff6:	85 c0                	test   %eax,%eax
    2ff8:	7f dc                	jg     2fd6 <ctnetlink_done+0x16>
    2ffa:	be 03 00 00 00       	mov    $0x3,%esi
    2fff:	e8 00 00 00 00       	call   3004 <ctnetlink_done+0x44>
    3004:	eb d0                	jmp    2fd6 <ctnetlink_done+0x16>
    3006:	e8 00 00 00 00       	call   300b <ctnetlink_done+0x4b>
    300b:	48 8b 7b 20          	mov    0x20(%rbx),%rdi
    300f:	e8 00 00 00 00       	call   3014 <ctnetlink_done+0x54>
    3014:	31 c0                	xor    %eax,%eax
    3016:	5b                   	pop    %rbx
    3017:	5d                   	pop    %rbp
    3018:	e9 00 00 00 00       	jmp    301d <ctnetlink_done+0x5d>
    301d:	0f 1f 00             	nopl   (%rax)

0000000000003020 <ctnetlink_dump_helpinfo>:
    3020:	e8 00 00 00 00       	call   3025 <ctnetlink_dump_helpinfo+0x5>
    3025:	48 8b 86 b8 00 00 00 	mov    0xb8(%rsi),%rax
    302c:	48 85 c0             	test   %rax,%rax
    302f:	0f 84 d3 00 00 00    	je     3108 <ctnetlink_dump_helpinfo+0xe8>
    3035:	0f b6 10             	movzbl (%rax),%edx
    3038:	84 d2                	test   %dl,%dl
    303a:	0f 84 c8 00 00 00    	je     3108 <ctnetlink_dump_helpinfo+0xe8>
    3040:	48 01 d0             	add    %rdx,%rax
    3043:	0f 84 bf 00 00 00    	je     3108 <ctnetlink_dump_helpinfo+0xe8>
    3049:	55                   	push   %rbp
    304a:	48 89 e5             	mov    %rsp,%rbp
    304d:	41 57                	push   %r15
    304f:	41 56                	push   %r14
    3051:	41 55                	push   %r13
    3053:	41 54                	push   %r12
    3055:	53                   	push   %rbx
    3056:	4c 8b 30             	mov    (%rax),%r14
    3059:	4d 85 f6             	test   %r14,%r14
    305c:	0f 84 90 00 00 00    	je     30f2 <ctnetlink_dump_helpinfo+0xd2>
    3062:	44 8b af b8 00 00 00 	mov    0xb8(%rdi),%r13d
    3069:	49 89 f4             	mov    %rsi,%r12
    306c:	31 c9                	xor    %ecx,%ecx
    306e:	31 d2                	xor    %edx,%edx
    3070:	4c 03 af c0 00 00 00 	add    0xc0(%rdi),%r13
    3077:	be 05 80 00 00       	mov    $0x8005,%esi
    307c:	48 89 fb             	mov    %rdi,%rbx
    307f:	e8 00 00 00 00       	call   3084 <ctnetlink_dump_helpinfo+0x64>
    3084:	4d 85 ed             	test   %r13,%r13
    3087:	0f 84 82 00 00 00    	je     310f <ctnetlink_dump_helpinfo+0xef>
    308d:	85 c0                	test   %eax,%eax
    308f:	78 7e                	js     310f <ctnetlink_dump_helpinfo+0xef>
    3091:	4d 8d 7e 10          	lea    0x10(%r14),%r15
    3095:	be 10 00 00 00       	mov    $0x10,%esi
    309a:	4c 89 ff             	mov    %r15,%rdi
    309d:	e8 00 00 00 00       	call   30a2 <ctnetlink_dump_helpinfo+0x82>
    30a2:	48 83 f8 10          	cmp    $0x10,%rax
    30a6:	0f 87 00 00 00 00    	ja     30ac <ctnetlink_dump_helpinfo+0x8c>
    30ac:	0f 84 00 00 00 00    	je     30b2 <ctnetlink_dump_helpinfo+0x92>
    30b2:	8d 50 01             	lea    0x1(%rax),%edx
    30b5:	4c 89 f9             	mov    %r15,%rcx
    30b8:	be 01 00 00 00       	mov    $0x1,%esi
    30bd:	48 89 df             	mov    %rbx,%rdi
    30c0:	e8 00 00 00 00       	call   30c5 <ctnetlink_dump_helpinfo+0xa5>
    30c5:	85 c0                	test   %eax,%eax
    30c7:	75 46                	jne    310f <ctnetlink_dump_helpinfo+0xef>
    30c9:	49 8b 46 78          	mov    0x78(%r14),%rax
    30cd:	48 85 c0             	test   %rax,%rax
    30d0:	74 0b                	je     30dd <ctnetlink_dump_helpinfo+0xbd>
    30d2:	4c 89 e6             	mov    %r12,%rsi
    30d5:	48 89 df             	mov    %rbx,%rdi
    30d8:	e8 00 00 00 00       	call   30dd <ctnetlink_dump_helpinfo+0xbd>
    30dd:	8b 83 b8 00 00 00    	mov    0xb8(%rbx),%eax
    30e3:	48 03 83 c0 00 00 00 	add    0xc0(%rbx),%rax
    30ea:	4c 29 e8             	sub    %r13,%rax
    30ed:	66 41 89 45 00       	mov    %ax,0x0(%r13)
    30f2:	e8 00 00 00 00       	call   30f7 <ctnetlink_dump_helpinfo+0xd7>
    30f7:	31 c0                	xor    %eax,%eax
    30f9:	5b                   	pop    %rbx
    30fa:	41 5c                	pop    %r12
    30fc:	41 5d                	pop    %r13
    30fe:	41 5e                	pop    %r14
    3100:	41 5f                	pop    %r15
    3102:	5d                   	pop    %rbp
    3103:	e9 00 00 00 00       	jmp    3108 <ctnetlink_dump_helpinfo+0xe8>
    3108:	31 c0                	xor    %eax,%eax
    310a:	e9 00 00 00 00       	jmp    310f <ctnetlink_dump_helpinfo+0xef>
    310f:	e8 00 00 00 00       	call   3114 <ctnetlink_dump_helpinfo+0xf4>
    3114:	b8 ff ff ff ff       	mov    $0xffffffff,%eax
    3119:	eb de                	jmp    30f9 <ctnetlink_dump_helpinfo+0xd9>
    311b:	0f 1f 44 00 00       	nopl   0x0(%rax,%rax,1)

0000000000003120 <ctnetlink_dump_secctx.isra.0>:
    3120:	e8 00 00 00 00       	call   3125 <ctnetlink_dump_secctx.isra.0+0x5>
    3125:	55                   	push   %rbp
    3126:	ba fc ff ff ff       	mov    $0xfffffffc,%edx
    312b:	48 89 e5             	mov    %rsp,%rbp
    312e:	41 55                	push   %r13
    3130:	41 54                	push   %r12
    3132:	45 31 e4             	xor    %r12d,%r12d
    3135:	53                   	push   %rbx
    3136:	48 89 fb             	mov    %rdi,%rbx
    3139:	48 83 e4 f0          	and    $0xfffffffffffffff0,%rsp
    313d:	48 83 ec 30          	sub    $0x30,%rsp
    3141:	65 48 8b 04 25 28 00 	mov    %gs:0x28,%rax
    3148:	00 00 
    314a:	48 89 44 24 28       	mov    %rax,0x28(%rsp)
    314f:	31 c0                	xor    %eax,%eax
    3151:	48 8d 7c 24 10       	lea    0x10(%rsp),%rdi
    3156:	89 74 24 10          	mov    %esi,0x10(%rsp)
    315a:	89 74 24 14          	mov    %esi,0x14(%rsp)
    315e:	89 74 24 18          	mov    %esi,0x18(%rsp)
    3162:	89 74 24 1c          	mov    %esi,0x1c(%rsp)
    3166:	48 89 e6             	mov    %rsp,%rsi
    3169:	e8 00 00 00 00       	call   316e <ctnetlink_dump_secctx.isra.0+0x4e>
    316e:	85 c0                	test   %eax,%eax
    3170:	74 26                	je     3198 <ctnetlink_dump_secctx.isra.0+0x78>
    3172:	48 8b 44 24 28       	mov    0x28(%rsp),%rax
    3177:	65 48 33 04 25 28 00 	xor    %gs:0x28,%rax
    317e:	00 00 
    3180:	0f 85 8a 00 00 00    	jne    3210 <ctnetlink_dump_secctx.isra.0+0xf0>
    3186:	48 8d 65 e8          	lea    -0x18(%rbp),%rsp
    318a:	44 89 e0             	mov    %r12d,%eax
    318d:	5b                   	pop    %rbx
    318e:	41 5c                	pop    %r12
    3190:	41 5d                	pop    %r13
    3192:	5d                   	pop    %rbp
    3193:	e9 00 00 00 00       	jmp    3198 <ctnetlink_dump_secctx.isra.0+0x78>
    3198:	44 8b ab b8 00 00 00 	mov    0xb8(%rbx),%r13d
    319f:	31 c9                	xor    %ecx,%ecx
    31a1:	31 d2                	xor    %edx,%edx
    31a3:	be 13 80 00 00       	mov    $0x8013,%esi
    31a8:	4c 03 ab c0 00 00 00 	add    0xc0(%rbx),%r13
    31af:	48 89 df             	mov    %rbx,%rdi
    31b2:	e8 00 00 00 00       	call   31b7 <ctnetlink_dump_secctx.isra.0+0x97>
    31b7:	4d 85 ed             	test   %r13,%r13
    31ba:	74 41                	je     31fd <ctnetlink_dump_secctx.isra.0+0xdd>
    31bc:	85 c0                	test   %eax,%eax
    31be:	78 3d                	js     31fd <ctnetlink_dump_secctx.isra.0+0xdd>
    31c0:	4c 8b 24 24          	mov    (%rsp),%r12
    31c4:	4c 89 e7             	mov    %r12,%rdi
    31c7:	e8 00 00 00 00       	call   31cc <ctnetlink_dump_secctx.isra.0+0xac>
    31cc:	4c 89 e1             	mov    %r12,%rcx
    31cf:	be 01 00 00 00       	mov    $0x1,%esi
    31d4:	48 89 df             	mov    %rbx,%rdi
    31d7:	8d 50 01             	lea    0x1(%rax),%edx
    31da:	e8 00 00 00 00       	call   31df <ctnetlink_dump_secctx.isra.0+0xbf>
    31df:	41 89 c4             	mov    %eax,%r12d
    31e2:	85 c0                	test   %eax,%eax
    31e4:	75 17                	jne    31fd <ctnetlink_dump_secctx.isra.0+0xdd>
    31e6:	8b 83 b8 00 00 00    	mov    0xb8(%rbx),%eax
    31ec:	48 03 83 c0 00 00 00 	add    0xc0(%rbx),%rax
    31f3:	4c 29 e8             	sub    %r13,%rax
    31f6:	66 41 89 45 00       	mov    %ax,0x0(%r13)
    31fb:	eb 06                	jmp    3203 <ctnetlink_dump_secctx.isra.0+0xe3>
    31fd:	41 bc ff ff ff ff    	mov    $0xffffffff,%r12d
    3203:	48 89 e7             	mov    %rsp,%rdi
    3206:	e8 00 00 00 00       	call   320b <ctnetlink_dump_secctx.isra.0+0xeb>
    320b:	e9 62 ff ff ff       	jmp    3172 <ctnetlink_dump_secctx.isra.0+0x52>
    3210:	e8 00 00 00 00       	call   3215 <ctnetlink_dump_secctx.isra.0+0xf5>
    3215:	66 66 2e 0f 1f 84 00 	data16 cs nopw 0x0(%rax,%rax,1)
    321c:	00 00 00 00 

0000000000003220 <ctnetlink_glue_build>:
    3220:	e8 00 00 00 00       	call   3225 <ctnetlink_glue_build+0x5>
    3225:	55                   	push   %rbp
    3226:	66 81 c9 00 80       	or     $0x8000,%cx
    322b:	48 89 e5             	mov    %rsp,%rbp
    322e:	41 57                	push   %r15
    3230:	49 89 ff             	mov    %rdi,%r15
    3233:	41 56                	push   %r14
    3235:	41 55                	push   %r13
    3237:	41 54                	push   %r12
    3239:	49 89 f4             	mov    %rsi,%r12
    323c:	0f b7 f1             	movzwl %cx,%esi
    323f:	31 c9                	xor    %ecx,%ecx
    3241:	53                   	push   %rbx
    3242:	48 83 ec 18          	sub    $0x18,%rsp
    3246:	89 55 c4             	mov    %edx,-0x3c(%rbp)
    3249:	31 d2                	xor    %edx,%edx
    324b:	8b 9f b8 00 00 00    	mov    0xb8(%rdi),%ebx
    3251:	44 89 45 c0          	mov    %r8d,-0x40(%rbp)
    3255:	48 03 9f c0 00 00 00 	add    0xc0(%rdi),%rbx
    325c:	65 48 8b 04 25 28 00 	mov    %gs:0x28,%rax
    3263:	00 00 
    3265:	48 89 45 d0          	mov    %rax,-0x30(%rbp)
    3269:	31 c0                	xor    %eax,%eax
    326b:	e8 00 00 00 00       	call   3270 <ctnetlink_glue_build+0x50>
    3270:	85 c0                	test   %eax,%eax
    3272:	0f 88 aa 02 00 00    	js     3522 <ctnetlink_glue_build+0x302>
    3278:	48 85 db             	test   %rbx,%rbx
    327b:	0f 84 a1 02 00 00    	je     3522 <ctnetlink_glue_build+0x302>
    3281:	31 c9                	xor    %ecx,%ecx
    3283:	31 d2                	xor    %edx,%edx
    3285:	be 01 80 00 00       	mov    $0x8001,%esi
    328a:	4c 89 ff             	mov    %r15,%rdi
    328d:	45 8b b7 b8 00 00 00 	mov    0xb8(%r15),%r14d
    3294:	4d 03 b7 c0 00 00 00 	add    0xc0(%r15),%r14
    329b:	e8 00 00 00 00       	call   32a0 <ctnetlink_glue_build+0x80>
    32a0:	85 c0                	test   %eax,%eax
    32a2:	0f 88 7a 02 00 00    	js     3522 <ctnetlink_glue_build+0x302>
    32a8:	4d 85 f6             	test   %r14,%r14
    32ab:	0f 84 71 02 00 00    	je     3522 <ctnetlink_glue_build+0x302>
    32b1:	49 8d 74 24 20       	lea    0x20(%r12),%rsi
    32b6:	4c 89 ff             	mov    %r15,%rdi
    32b9:	e8 32 ea ff ff       	call   1cf0 <ctnetlink_dump_tuples>
    32be:	85 c0                	test   %eax,%eax
    32c0:	0f 88 5c 02 00 00    	js     3522 <ctnetlink_glue_build+0x302>
    32c6:	4d 8d 6c 24 0f       	lea    0xf(%r12),%r13
    32cb:	41 0f b7 54 24 0c    	movzwl 0xc(%r12),%edx
    32d1:	be 03 00 00 00       	mov    $0x3,%esi
    32d6:	4c 89 ff             	mov    %r15,%rdi
    32d9:	41 b8 01 00 00 00    	mov    $0x1,%r8d
    32df:	4c 89 e9             	mov    %r13,%rcx
    32e2:	e8 59 e8 ff ff       	call   1b40 <ctnetlink_dump_zone_id.isra.0>
    32e7:	85 c0                	test   %eax,%eax
    32e9:	0f 88 33 02 00 00    	js     3522 <ctnetlink_glue_build+0x302>
    32ef:	41 8b 87 b8 00 00 00 	mov    0xb8(%r15),%eax
    32f6:	31 c9                	xor    %ecx,%ecx
    32f8:	31 d2                	xor    %edx,%edx
    32fa:	be 02 80 00 00       	mov    $0x8002,%esi
    32ff:	49 03 87 c0 00 00 00 	add    0xc0(%r15),%rax
    3306:	4c 89 ff             	mov    %r15,%rdi
    3309:	4c 29 f0             	sub    %r14,%rax
    330c:	66 41 89 06          	mov    %ax,(%r14)
    3310:	45 8b b7 b8 00 00 00 	mov    0xb8(%r15),%r14d
    3317:	4d 03 b7 c0 00 00 00 	add    0xc0(%r15),%r14
    331e:	e8 00 00 00 00       	call   3323 <ctnetlink_glue_build+0x103>
    3323:	85 c0                	test   %eax,%eax
    3325:	0f 88 f7 01 00 00    	js     3522 <ctnetlink_glue_build+0x302>
    332b:	4d 85 f6             	test   %r14,%r14
    332e:	0f 84 ee 01 00 00    	je     3522 <ctnetlink_glue_build+0x302>
    3334:	49 8d 74 24 58       	lea    0x58(%r12),%rsi
    3339:	4c 89 ff             	mov    %r15,%rdi
    333c:	e8 af e9 ff ff       	call   1cf0 <ctnetlink_dump_tuples>
    3341:	85 c0                	test   %eax,%eax
    3343:	0f 88 d9 01 00 00    	js     3522 <ctnetlink_glue_build+0x302>
    3349:	41 0f b7 54 24 0c    	movzwl 0xc(%r12),%edx
    334f:	4c 89 e9             	mov    %r13,%rcx
    3352:	be 03 00 00 00       	mov    $0x3,%esi
    3357:	4c 89 ff             	mov    %r15,%rdi
    335a:	41 b8 02 00 00 00    	mov    $0x2,%r8d
    3360:	e8 db e7 ff ff       	call   1b40 <ctnetlink_dump_zone_id.isra.0>
    3365:	85 c0                	test   %eax,%eax
    3367:	0f 88 b5 01 00 00    	js     3522 <ctnetlink_glue_build+0x302>
    336d:	41 8b 87 b8 00 00 00 	mov    0xb8(%r15),%eax
    3374:	4c 89 e9             	mov    %r13,%rcx
    3377:	be 12 00 00 00       	mov    $0x12,%esi
    337c:	4c 89 ff             	mov    %r15,%rdi
    337f:	49 03 87 c0 00 00 00 	add    0xc0(%r15),%rax
    3386:	41 b8 03 00 00 00    	mov    $0x3,%r8d
    338c:	4c 29 f0             	sub    %r14,%rax
    338f:	66 41 89 06          	mov    %ax,(%r14)
    3393:	41 0f b7 54 24 0c    	movzwl 0xc(%r12),%edx
    3399:	e8 a2 e7 ff ff       	call   1b40 <ctnetlink_dump_zone_id.isra.0>
    339e:	85 c0                	test   %eax,%eax
    33a0:	0f 88 7c 01 00 00    	js     3522 <ctnetlink_glue_build+0x302>
    33a6:	4c 89 e6             	mov    %r12,%rsi
    33a9:	4c 89 ff             	mov    %r15,%rdi
    33ac:	e8 6f d6 ff ff       	call   a20 <ctnetlink_dump_id>
    33b1:	85 c0                	test   %eax,%eax
    33b3:	0f 88 69 01 00 00    	js     3522 <ctnetlink_glue_build+0x302>
    33b9:	49 8b 84 24 80 00 00 	mov    0x80(%r12),%rax
    33c0:	00 
    33c1:	48 8d 4d cc          	lea    -0x34(%rbp),%rcx
    33c5:	ba 04 00 00 00       	mov    $0x4,%edx
    33ca:	4c 89 ff             	mov    %r15,%rdi
    33cd:	be 03 00 00 00       	mov    $0x3,%esi
    33d2:	0f c8                	bswap  %eax
    33d4:	89 45 cc             	mov    %eax,-0x34(%rbp)
    33d7:	e8 00 00 00 00       	call   33dc <ctnetlink_glue_build+0x1bc>
    33dc:	85 c0                	test   %eax,%eax
    33de:	0f 85 3e 01 00 00    	jne    3522 <ctnetlink_glue_build+0x302>
    33e4:	31 d2                	xor    %edx,%edx
    33e6:	4c 89 e6             	mov    %r12,%rsi
    33e9:	4c 89 ff             	mov    %r15,%rdi
    33ec:	e8 3f d2 ff ff       	call   630 <ctnetlink_dump_timeout>
    33f1:	85 c0                	test   %eax,%eax
    33f3:	0f 88 29 01 00 00    	js     3522 <ctnetlink_glue_build+0x302>
    33f9:	31 d2                	xor    %edx,%edx
    33fb:	4c 89 e6             	mov    %r12,%rsi
    33fe:	4c 89 ff             	mov    %r15,%rdi
    3401:	e8 2a d1 ff ff       	call   530 <ctnetlink_dump_protoinfo>
    3406:	85 c0                	test   %eax,%eax
    3408:	0f 88 14 01 00 00    	js     3522 <ctnetlink_glue_build+0x302>
    340e:	ba 01 00 00 00       	mov    $0x1,%edx
    3413:	4c 89 e6             	mov    %r12,%rsi
    3416:	4c 89 ff             	mov    %r15,%rdi
    3419:	e8 92 d7 ff ff       	call   bb0 <ctnetlink_dump_acct>
    341e:	85 c0                	test   %eax,%eax
    3420:	0f 88 fc 00 00 00    	js     3522 <ctnetlink_glue_build+0x302>
    3426:	4c 89 e6             	mov    %r12,%rsi
    3429:	4c 89 ff             	mov    %r15,%rdi
    342c:	e8 ef d7 ff ff       	call   c20 <ctnetlink_dump_timestamp>
    3431:	85 c0                	test   %eax,%eax
    3433:	0f 88 e9 00 00 00    	js     3522 <ctnetlink_glue_build+0x302>
    3439:	4c 89 e6             	mov    %r12,%rsi
    343c:	4c 89 ff             	mov    %r15,%rdi
    343f:	e8 dc fb ff ff       	call   3020 <ctnetlink_dump_helpinfo>
    3444:	85 c0                	test   %eax,%eax
    3446:	0f 88 d6 00 00 00    	js     3522 <ctnetlink_glue_build+0x302>
    344c:	41 8b b4 24 b4 00 00 	mov    0xb4(%r12),%esi
    3453:	00 
    3454:	85 f6                	test   %esi,%esi
    3456:	0f 85 f2 00 00 00    	jne    354e <ctnetlink_glue_build+0x32e>
    345c:	49 83 bc 24 a8 00 00 	cmpq   $0x0,0xa8(%r12)
    3463:	00 00 
    3465:	49 8b 84 24 80 00 00 	mov    0x80(%r12),%rax
    346c:	00 
    346d:	74 08                	je     3477 <ctnetlink_glue_build+0x257>
    346f:	a8 01                	test   $0x1,%al
    3471:	0f 85 b2 00 00 00    	jne    3529 <ctnetlink_glue_build+0x309>
    3477:	a8 40                	test   $0x40,%al
    3479:	0f 85 90 00 00 00    	jne    350f <ctnetlink_glue_build+0x2ef>
    347f:	4c 89 e6             	mov    %r12,%rsi
    3482:	4c 89 ff             	mov    %r15,%rdi
    3485:	e8 f6 d3 ff ff       	call   880 <ctnetlink_dump_ct_synproxy>
    348a:	85 c0                	test   %eax,%eax
    348c:	0f 88 90 00 00 00    	js     3522 <ctnetlink_glue_build+0x302>
    3492:	ba 01 00 00 00       	mov    $0x1,%edx
    3497:	4c 89 e6             	mov    %r12,%rsi
    349a:	4c 89 ff             	mov    %r15,%rdi
    349d:	e8 0e d5 ff ff       	call   9b0 <ctnetlink_dump_mark>
    34a2:	85 c0                	test   %eax,%eax
    34a4:	78 7c                	js     3522 <ctnetlink_glue_build+0x302>
    34a6:	4c 89 e6             	mov    %r12,%rsi
    34a9:	4c 89 ff             	mov    %r15,%rdi
    34ac:	e8 1f d1 ff ff       	call   5d0 <ctnetlink_dump_labels>
    34b1:	85 c0                	test   %eax,%eax
    34b3:	78 6d                	js     3522 <ctnetlink_glue_build+0x302>
    34b5:	44 8b 6d c4          	mov    -0x3c(%rbp),%r13d
    34b9:	0f b7 75 c0          	movzwl -0x40(%rbp),%esi
    34bd:	48 8d 4d cc          	lea    -0x34(%rbp),%rcx
    34c1:	4c 89 ff             	mov    %r15,%rdi
    34c4:	41 8b 87 b8 00 00 00 	mov    0xb8(%r15),%eax
    34cb:	49 03 87 c0 00 00 00 	add    0xc0(%r15),%rax
    34d2:	ba 04 00 00 00       	mov    $0x4,%edx
    34d7:	48 29 d8             	sub    %rbx,%rax
    34da:	41 0f cd             	bswap  %r13d
    34dd:	66 89 03             	mov    %ax,(%rbx)
    34e0:	44 89 6d cc          	mov    %r13d,-0x34(%rbp)
    34e4:	e8 00 00 00 00       	call   34e9 <ctnetlink_glue_build+0x2c9>
    34e9:	85 c0                	test   %eax,%eax
    34eb:	75 35                	jne    3522 <ctnetlink_glue_build+0x302>
    34ed:	48 8b 5d d0          	mov    -0x30(%rbp),%rbx
    34f1:	65 48 33 1c 25 28 00 	xor    %gs:0x28,%rbx
    34f8:	00 00 
    34fa:	75 64                	jne    3560 <ctnetlink_glue_build+0x340>
    34fc:	48 83 c4 18          	add    $0x18,%rsp
    3500:	5b                   	pop    %rbx
    3501:	41 5c                	pop    %r12
    3503:	41 5d                	pop    %r13
    3505:	41 5e                	pop    %r14
    3507:	41 5f                	pop    %r15
    3509:	5d                   	pop    %rbp
    350a:	e9 00 00 00 00       	jmp    350f <ctnetlink_glue_build+0x2ef>
    350f:	4c 89 e6             	mov    %r12,%rsi
    3512:	4c 89 ff             	mov    %r15,%rdi
    3515:	e8 b6 d2 ff ff       	call   7d0 <ctnetlink_dump_ct_seq_adj>
    351a:	85 c0                	test   %eax,%eax
    351c:	0f 89 5d ff ff ff    	jns    347f <ctnetlink_glue_build+0x25f>
    3522:	b8 e4 ff ff ff       	mov    $0xffffffe4,%eax
    3527:	eb c4                	jmp    34ed <ctnetlink_glue_build+0x2cd>
    3529:	49 8d b4 24 a8 00 00 	lea    0xa8(%r12),%rsi
    3530:	00 
    3531:	4c 89 ff             	mov    %r15,%rdi
    3534:	e8 97 e8 ff ff       	call   1dd0 <ctnetlink_dump_master.isra.0.part.0>
    3539:	85 c0                	test   %eax,%eax
    353b:	78 e5                	js     3522 <ctnetlink_glue_build+0x302>
    353d:	49 8b 84 24 80 00 00 	mov    0x80(%r12),%rax
    3544:	00 
    3545:	a8 40                	test   $0x40,%al
    3547:	75 c6                	jne    350f <ctnetlink_glue_build+0x2ef>
    3549:	e9 31 ff ff ff       	jmp    347f <ctnetlink_glue_build+0x25f>
    354e:	4c 89 ff             	mov    %r15,%rdi
    3551:	e8 ca fb ff ff       	call   3120 <ctnetlink_dump_secctx.isra.0>
    3556:	85 c0                	test   %eax,%eax
    3558:	0f 89 fe fe ff ff    	jns    345c <ctnetlink_glue_build+0x23c>
    355e:	eb c2                	jmp    3522 <ctnetlink_glue_build+0x302>
    3560:	e8 00 00 00 00       	call   3565 <ctnetlink_glue_build+0x345>
    3565:	66 66 2e 0f 1f 84 00 	data16 cs nopw 0x0(%rax,%rax,1)
    356c:	00 00 00 00 

0000000000003570 <ctnetlink_fill_info>:
    3570:	e8 00 00 00 00       	call   3575 <ctnetlink_fill_info+0x5>
    3575:	55                   	push   %rbp
    3576:	48 89 e5             	mov    %rsp,%rbp
    3579:	41 57                	push   %r15
    357b:	41 56                	push   %r14
    357d:	41 55                	push   %r13
    357f:	45 89 cd             	mov    %r9d,%r13d
    3582:	41 54                	push   %r12
    3584:	53                   	push   %rbx
    3585:	48 83 ec 20          	sub    $0x20,%rsp
    3589:	44 8b 4d 10          	mov    0x10(%rbp),%r9d
    358d:	41 0f b7 58 32       	movzwl 0x32(%r8),%ebx
    3592:	89 4d c4             	mov    %ecx,-0x3c(%rbp)
    3595:	8b 4f 74             	mov    0x74(%rdi),%ecx
    3598:	65 48 8b 04 25 28 00 	mov    %gs:0x28,%rax
    359f:	00 00 
    35a1:	48 89 45 d0          	mov    %rax,-0x30(%rbp)
    35a5:	31 c0                	xor    %eax,%eax
    35a7:	44 89 c8             	mov    %r9d,%eax
    35aa:	83 c8 02             	or     $0x2,%eax
    35ad:	85 f6                	test   %esi,%esi
    35af:	44 0f 45 c8          	cmovne %eax,%r9d
    35b3:	85 c9                	test   %ecx,%ecx
    35b5:	0f 85 cd 02 00 00    	jne    3888 <ctnetlink_fill_info+0x318>
    35bb:	8b 87 bc 00 00 00    	mov    0xbc(%rdi),%eax
    35c1:	2b 87 b8 00 00 00    	sub    0xb8(%rdi),%eax
    35c7:	49 89 fe             	mov    %rdi,%r14
    35ca:	83 f8 13             	cmp    $0x13,%eax
    35cd:	0f 8e b5 02 00 00    	jle    3888 <ctnetlink_fill_info+0x318>
    35d3:	4d 89 c4             	mov    %r8,%r12
    35d6:	b9 00 01 00 00       	mov    $0x100,%ecx
    35db:	41 b8 04 00 00 00    	mov    $0x4,%r8d
    35e1:	e8 00 00 00 00       	call   35e6 <ctnetlink_fill_info+0x76>
    35e6:	49 89 c7             	mov    %rax,%r15
    35e9:	48 85 c0             	test   %rax,%rax
    35ec:	0f 84 96 02 00 00    	je     3888 <ctnetlink_fill_info+0x318>
    35f2:	88 58 10             	mov    %bl,0x10(%rax)
    35f5:	31 c9                	xor    %ecx,%ecx
    35f7:	31 d2                	xor    %edx,%edx
    35f9:	be 01 80 00 00       	mov    $0x8001,%esi
    35fe:	c6 40 11 00          	movb   $0x0,0x11(%rax)
    3602:	31 c0                	xor    %eax,%eax
    3604:	4c 89 f7             	mov    %r14,%rdi
    3607:	66 41 89 47 12       	mov    %ax,0x12(%r15)
    360c:	41 8b 9e b8 00 00 00 	mov    0xb8(%r14),%ebx
    3613:	49 03 9e c0 00 00 00 	add    0xc0(%r14),%rbx
    361a:	e8 00 00 00 00       	call   361f <ctnetlink_fill_info+0xaf>
    361f:	85 c0                	test   %eax,%eax
    3621:	0f 88 47 02 00 00    	js     386e <ctnetlink_fill_info+0x2fe>
    3627:	48 85 db             	test   %rbx,%rbx
    362a:	0f 84 3e 02 00 00    	je     386e <ctnetlink_fill_info+0x2fe>
    3630:	49 8d 74 24 20       	lea    0x20(%r12),%rsi
    3635:	4c 89 f7             	mov    %r14,%rdi
    3638:	e8 b3 e6 ff ff       	call   1cf0 <ctnetlink_dump_tuples>
    363d:	85 c0                	test   %eax,%eax
    363f:	0f 88 29 02 00 00    	js     386e <ctnetlink_fill_info+0x2fe>
    3645:	49 8d 44 24 0f       	lea    0xf(%r12),%rax
    364a:	41 0f b7 54 24 0c    	movzwl 0xc(%r12),%edx
    3650:	be 03 00 00 00       	mov    $0x3,%esi
    3655:	4c 89 f7             	mov    %r14,%rdi
    3658:	41 b8 01 00 00 00    	mov    $0x1,%r8d
    365e:	48 89 c1             	mov    %rax,%rcx
    3661:	48 89 45 b8          	mov    %rax,-0x48(%rbp)
    3665:	e8 d6 e4 ff ff       	call   1b40 <ctnetlink_dump_zone_id.isra.0>
    366a:	85 c0                	test   %eax,%eax
    366c:	0f 88 fc 01 00 00    	js     386e <ctnetlink_fill_info+0x2fe>
    3672:	41 8b 86 b8 00 00 00 	mov    0xb8(%r14),%eax
    3679:	31 c9                	xor    %ecx,%ecx
    367b:	31 d2                	xor    %edx,%edx
    367d:	be 02 80 00 00       	mov    $0x8002,%esi
    3682:	49 03 86 c0 00 00 00 	add    0xc0(%r14),%rax
    3689:	4c 89 f7             	mov    %r14,%rdi
    368c:	48 29 d8             	sub    %rbx,%rax
    368f:	66 89 03             	mov    %ax,(%rbx)
    3692:	41 8b 9e b8 00 00 00 	mov    0xb8(%r14),%ebx
    3699:	49 03 9e c0 00 00 00 	add    0xc0(%r14),%rbx
    36a0:	e8 00 00 00 00       	call   36a5 <ctnetlink_fill_info+0x135>
    36a5:	85 c0                	test   %eax,%eax
    36a7:	0f 88 c1 01 00 00    	js     386e <ctnetlink_fill_info+0x2fe>
    36ad:	48 85 db             	test   %rbx,%rbx
    36b0:	0f 84 b8 01 00 00    	je     386e <ctnetlink_fill_info+0x2fe>
    36b6:	49 8d 74 24 58       	lea    0x58(%r12),%rsi
    36bb:	4c 89 f7             	mov    %r14,%rdi
    36be:	e8 2d e6 ff ff       	call   1cf0 <ctnetlink_dump_tuples>
    36c3:	85 c0                	test   %eax,%eax
    36c5:	0f 88 a3 01 00 00    	js     386e <ctnetlink_fill_info+0x2fe>
    36cb:	41 0f b7 54 24 0c    	movzwl 0xc(%r12),%edx
    36d1:	48 8b 4d b8          	mov    -0x48(%rbp),%rcx
    36d5:	be 03 00 00 00       	mov    $0x3,%esi
    36da:	4c 89 f7             	mov    %r14,%rdi
    36dd:	41 b8 02 00 00 00    	mov    $0x2,%r8d
    36e3:	e8 58 e4 ff ff       	call   1b40 <ctnetlink_dump_zone_id.isra.0>
    36e8:	85 c0                	test   %eax,%eax
    36ea:	0f 88 7e 01 00 00    	js     386e <ctnetlink_fill_info+0x2fe>
    36f0:	41 8b 86 b8 00 00 00 	mov    0xb8(%r14),%eax
    36f7:	49 03 86 c0 00 00 00 	add    0xc0(%r14),%rax
    36fe:	41 b8 03 00 00 00    	mov    $0x3,%r8d
    3704:	4c 89 f7             	mov    %r14,%rdi
    3707:	48 29 d8             	sub    %rbx,%rax
    370a:	48 8b 4d b8          	mov    -0x48(%rbp),%rcx
    370e:	be 12 00 00 00       	mov    $0x12,%esi
    3713:	66 89 03             	mov    %ax,(%rbx)
    3716:	41 0f b7 54 24 0c    	movzwl 0xc(%r12),%edx
    371c:	e8 1f e4 ff ff       	call   1b40 <ctnetlink_dump_zone_id.isra.0>
    3721:	85 c0                	test   %eax,%eax
    3723:	0f 88 45 01 00 00    	js     386e <ctnetlink_fill_info+0x2fe>
    3729:	49 8b 84 24 80 00 00 	mov    0x80(%r12),%rax
    3730:	00 
    3731:	48 8d 4d cc          	lea    -0x34(%rbp),%rcx
    3735:	ba 04 00 00 00       	mov    $0x4,%edx
    373a:	4c 89 f7             	mov    %r14,%rdi
    373d:	be 03 00 00 00       	mov    $0x3,%esi
    3742:	0f c8                	bswap  %eax
    3744:	89 45 cc             	mov    %eax,-0x34(%rbp)
    3747:	e8 00 00 00 00       	call   374c <ctnetlink_fill_info+0x1dc>
    374c:	85 c0                	test   %eax,%eax
    374e:	0f 85 1a 01 00 00    	jne    386e <ctnetlink_fill_info+0x2fe>
    3754:	ba 01 00 00 00       	mov    $0x1,%edx
    3759:	4c 89 e6             	mov    %r12,%rsi
    375c:	4c 89 f7             	mov    %r14,%rdi
    375f:	e8 4c d2 ff ff       	call   9b0 <ctnetlink_dump_mark>
    3764:	85 c0                	test   %eax,%eax
    3766:	0f 88 02 01 00 00    	js     386e <ctnetlink_fill_info+0x2fe>
    376c:	41 8b b4 24 b4 00 00 	mov    0xb4(%r12),%esi
    3773:	00 
    3774:	4c 89 f7             	mov    %r14,%rdi
    3777:	e8 a4 f9 ff ff       	call   3120 <ctnetlink_dump_secctx.isra.0>
    377c:	85 c0                	test   %eax,%eax
    377e:	0f 88 ea 00 00 00    	js     386e <ctnetlink_fill_info+0x2fe>
    3784:	4c 89 e6             	mov    %r12,%rsi
    3787:	4c 89 f7             	mov    %r14,%rdi
    378a:	e8 91 d2 ff ff       	call   a20 <ctnetlink_dump_id>
    378f:	85 c0                	test   %eax,%eax
    3791:	0f 88 d7 00 00 00    	js     386e <ctnetlink_fill_info+0x2fe>
    3797:	41 8b 04 24          	mov    (%r12),%eax
    379b:	48 8d 4d cc          	lea    -0x34(%rbp),%rcx
    379f:	ba 04 00 00 00       	mov    $0x4,%edx
    37a4:	4c 89 f7             	mov    %r14,%rdi
    37a7:	be 0b 00 00 00       	mov    $0xb,%esi
    37ac:	0f c8                	bswap  %eax
    37ae:	89 45 cc             	mov    %eax,-0x34(%rbp)
    37b1:	e8 00 00 00 00       	call   37b6 <ctnetlink_fill_info+0x246>
    37b6:	85 c0                	test   %eax,%eax
    37b8:	0f 85 b0 00 00 00    	jne    386e <ctnetlink_fill_info+0x2fe>
    37be:	41 f6 84 24 80 00 00 	testb  $0x1,0x80(%r12)
    37c5:	00 01 
    37c7:	74 18                	je     37e1 <ctnetlink_fill_info+0x271>
    37c9:	49 8d b4 24 a8 00 00 	lea    0xa8(%r12),%rsi
    37d0:	00 
    37d1:	4c 89 f7             	mov    %r14,%rdi
    37d4:	e8 f7 e5 ff ff       	call   1dd0 <ctnetlink_dump_master.isra.0.part.0>
    37d9:	85 c0                	test   %eax,%eax
    37db:	0f 88 8d 00 00 00    	js     386e <ctnetlink_fill_info+0x2fe>
    37e1:	49 8b 84 24 80 00 00 	mov    0x80(%r12),%rax
    37e8:	00 
    37e9:	f6 c4 40             	test   $0x40,%ah
    37ec:	0f 84 c1 00 00 00    	je     38b3 <ctnetlink_fill_info+0x343>
    37f2:	45 84 ed             	test   %r13b,%r13b
    37f5:	75 1a                	jne    3811 <ctnetlink_fill_info+0x2a1>
    37f7:	41 8b 86 b8 00 00 00 	mov    0xb8(%r14),%eax
    37fe:	49 03 86 c0 00 00 00 	add    0xc0(%r14),%rax
    3805:	4c 29 f8             	sub    %r15,%rax
    3808:	41 89 07             	mov    %eax,(%r15)
    380b:	41 8b 46 70          	mov    0x70(%r14),%eax
    380f:	eb 7c                	jmp    388d <ctnetlink_fill_info+0x31d>
    3811:	8b 55 c4             	mov    -0x3c(%rbp),%edx
    3814:	4c 89 e6             	mov    %r12,%rsi
    3817:	4c 89 f7             	mov    %r14,%rdi
    381a:	e8 91 d3 ff ff       	call   bb0 <ctnetlink_dump_acct>
    381f:	85 c0                	test   %eax,%eax
    3821:	78 4b                	js     386e <ctnetlink_fill_info+0x2fe>
    3823:	4c 89 e6             	mov    %r12,%rsi
    3826:	4c 89 f7             	mov    %r14,%rdi
    3829:	e8 f2 d3 ff ff       	call   c20 <ctnetlink_dump_timestamp>
    382e:	85 c0                	test   %eax,%eax
    3830:	78 3c                	js     386e <ctnetlink_fill_info+0x2fe>
    3832:	4c 89 e6             	mov    %r12,%rsi
    3835:	4c 89 f7             	mov    %r14,%rdi
    3838:	e8 e3 f7 ff ff       	call   3020 <ctnetlink_dump_helpinfo>
    383d:	85 c0                	test   %eax,%eax
    383f:	78 2d                	js     386e <ctnetlink_fill_info+0x2fe>
    3841:	4c 89 e6             	mov    %r12,%rsi
    3844:	4c 89 f7             	mov    %r14,%rdi
    3847:	e8 84 cd ff ff       	call   5d0 <ctnetlink_dump_labels>
    384c:	85 c0                	test   %eax,%eax
    384e:	78 1e                	js     386e <ctnetlink_fill_info+0x2fe>
    3850:	4c 89 e6             	mov    %r12,%rsi
    3853:	4c 89 f7             	mov    %r14,%rdi
    3856:	e8 75 cf ff ff       	call   7d0 <ctnetlink_dump_ct_seq_adj>
    385b:	85 c0                	test   %eax,%eax
    385d:	78 0f                	js     386e <ctnetlink_fill_info+0x2fe>
    385f:	4c 89 e6             	mov    %r12,%rsi
    3862:	4c 89 f7             	mov    %r14,%rdi
    3865:	e8 16 d0 ff ff       	call   880 <ctnetlink_dump_ct_synproxy>
    386a:	85 c0                	test   %eax,%eax
    386c:	79 89                	jns    37f7 <ctnetlink_fill_info+0x287>
    386e:	49 8b 86 c8 00 00 00 	mov    0xc8(%r14),%rax
    3875:	4c 39 f8             	cmp    %r15,%rax
    3878:	77 35                	ja     38af <ctnetlink_fill_info+0x33f>
    387a:	4c 89 fe             	mov    %r15,%rsi
    387d:	4c 89 f7             	mov    %r14,%rdi
    3880:	48 29 c6             	sub    %rax,%rsi
    3883:	e8 00 00 00 00       	call   3888 <ctnetlink_fill_info+0x318>
    3888:	b8 ff ff ff ff       	mov    $0xffffffff,%eax
    388d:	48 8b 4d d0          	mov    -0x30(%rbp),%rcx
    3891:	65 48 33 0c 25 28 00 	xor    %gs:0x28,%rcx
    3898:	00 00 
    389a:	75 3f                	jne    38db <ctnetlink_fill_info+0x36b>
    389c:	48 83 c4 20          	add    $0x20,%rsp
    38a0:	5b                   	pop    %rbx
    38a1:	41 5c                	pop    %r12
    38a3:	41 5d                	pop    %r13
    38a5:	41 5e                	pop    %r14
    38a7:	41 5f                	pop    %r15
    38a9:	5d                   	pop    %rbp
    38aa:	e9 00 00 00 00       	jmp    38af <ctnetlink_fill_info+0x33f>
    38af:	0f 0b                	ud2    
    38b1:	eb c7                	jmp    387a <ctnetlink_fill_info+0x30a>
    38b3:	31 d2                	xor    %edx,%edx
    38b5:	4c 89 e6             	mov    %r12,%rsi
    38b8:	4c 89 f7             	mov    %r14,%rdi
    38bb:	e8 70 cd ff ff       	call   630 <ctnetlink_dump_timeout>
    38c0:	85 c0                	test   %eax,%eax
    38c2:	78 aa                	js     386e <ctnetlink_fill_info+0x2fe>
    38c4:	31 d2                	xor    %edx,%edx
    38c6:	4c 89 e6             	mov    %r12,%rsi
    38c9:	4c 89 f7             	mov    %r14,%rdi
    38cc:	e8 5f cc ff ff       	call   530 <ctnetlink_dump_protoinfo>
    38d1:	85 c0                	test   %eax,%eax
    38d3:	0f 89 19 ff ff ff    	jns    37f2 <ctnetlink_fill_info+0x282>
    38d9:	eb 93                	jmp    386e <ctnetlink_fill_info+0x2fe>
    38db:	e8 00 00 00 00       	call   38e0 <ctnetlink_conntrack_event>

00000000000038e0 <ctnetlink_conntrack_event>:
    38e0:	e8 00 00 00 00       	call   38e5 <ctnetlink_conntrack_event+0x5>
    38e5:	55                   	push   %rbp
    38e6:	48 89 e5             	mov    %rsp,%rbp
    38e9:	41 57                	push   %r15
    38eb:	41 56                	push   %r14
    38ed:	49 89 f6             	mov    %rsi,%r14
    38f0:	41 55                	push   %r13
    38f2:	41 54                	push   %r12
    38f4:	53                   	push   %rbx
    38f5:	48 83 e4 f0          	and    $0xfffffffffffffff0,%rsp
    38f9:	48 83 ec 50          	sub    $0x50,%rsp
    38fd:	4c 8b 26             	mov    (%rsi),%r12
    3900:	89 7c 24 0c          	mov    %edi,0xc(%rsp)
    3904:	65 48 8b 04 25 28 00 	mov    %gs:0x28,%rax
    390b:	00 00 
    390d:	48 89 44 24 48       	mov    %rax,0x48(%rsp)
    3912:	31 c0                	xor    %eax,%eax
    3914:	89 f8                	mov    %edi,%eax
    3916:	83 e0 04             	and    $0x4,%eax
    3919:	89 44 24 08          	mov    %eax,0x8(%rsp)
    391d:	75 27                	jne    3946 <ctnetlink_conntrack_event+0x66>
    391f:	89 f8                	mov    %edi,%eax
    3921:	83 e0 03             	and    $0x3,%eax
    3924:	89 44 24 18          	mov    %eax,0x18(%rsp)
    3928:	0f 84 18 05 00 00    	je     3e46 <ctnetlink_conntrack_event+0x566>
    392e:	c7 44 24 18 00 00 00 	movl   $0x0,0x18(%rsp)
    3935:	00 
    3936:	41 bf 00 06 00 00    	mov    $0x600,%r15d
    393c:	c7 44 24 1c 01 00 00 	movl   $0x1,0x1c(%rsp)
    3943:	00 
    3944:	eb 13                	jmp    3959 <ctnetlink_conntrack_event+0x79>
    3946:	c7 44 24 1c 03 00 00 	movl   $0x3,0x1c(%rsp)
    394d:	00 
    394e:	45 31 ff             	xor    %r15d,%r15d
    3951:	c7 44 24 18 02 00 00 	movl   $0x2,0x18(%rsp)
    3958:	00 
    3959:	49 8b 84 24 90 00 00 	mov    0x90(%r12),%rax
    3960:	00 
    3961:	45 8b 46 0c          	mov    0xc(%r14),%r8d
    3965:	48 89 44 24 10       	mov    %rax,0x10(%rsp)
    396a:	45 85 c0             	test   %r8d,%r8d
    396d:	0f 84 93 04 00 00    	je     3e06 <ctnetlink_conntrack_event+0x526>
    3973:	49 8b 94 24 b8 00 00 	mov    0xb8(%r12),%rdx
    397a:	00 
    397b:	41 bd bc 00 00 00    	mov    $0xbc,%r13d
    3981:	48 85 d2             	test   %rdx,%rdx
    3984:	74 22                	je     39a8 <ctnetlink_conntrack_event+0xc8>
    3986:	80 7a 03 01          	cmpb   $0x1,0x3(%rdx)
    398a:	48 19 c0             	sbb    %rax,%rax
    398d:	48 83 e0 c8          	and    $0xffffffffffffffc8,%rax
    3991:	4c 8d a8 10 01 00 00 	lea    0x110(%rax),%r13
    3998:	48 05 84 00 00 00    	add    $0x84,%rax
    399e:	80 7a 05 00          	cmpb   $0x0,0x5(%rdx)
    39a2:	0f 84 95 04 00 00    	je     3e3d <ctnetlink_conntrack_event+0x55d>
    39a8:	ba fc ff ff ff       	mov    $0xfffffffc,%edx
    39ad:	48 8d 74 24 20       	lea    0x20(%rsp),%rsi
    39b2:	48 8d 7c 24 30       	lea    0x30(%rsp),%rdi
    39b7:	31 db                	xor    %ebx,%ebx
    39b9:	e8 00 00 00 00       	call   39be <ctnetlink_conntrack_event+0xde>
    39be:	85 c0                	test   %eax,%eax
    39c0:	0f 84 58 04 00 00    	je     3e1e <ctnetlink_conntrack_event+0x53e>
    39c6:	4c 89 e7             	mov    %r12,%rdi
    39c9:	e8 72 d3 ff ff       	call   d40 <ctnetlink_proto_size>
    39ce:	31 d2                	xor    %edx,%edx
    39d0:	48 01 c3             	add    %rax,%rbx
    39d3:	49 8b 84 24 b8 00 00 	mov    0xb8(%r12),%rax
    39da:	00 
    39db:	48 85 c0             	test   %rax,%rax
    39de:	74 0c                	je     39ec <ctnetlink_conntrack_event+0x10c>
    39e0:	0f b6 48 07          	movzbl 0x7(%rax),%ecx
    39e4:	84 c9                	test   %cl,%cl
    39e6:	0f 85 c0 02 00 00    	jne    3cac <ctnetlink_conntrack_event+0x3cc>
    39ec:	4c 01 eb             	add    %r13,%rbx
    39ef:	b9 ff ff ff ff       	mov    $0xffffffff,%ecx
    39f4:	be 20 0a 00 00       	mov    $0xa20,%esi
    39f9:	8d 7c 13 13          	lea    0x13(%rbx,%rdx,1),%edi
    39fd:	31 d2                	xor    %edx,%edx
    39ff:	83 e7 fc             	and    $0xfffffffc,%edi
    3a02:	e8 00 00 00 00       	call   3a07 <ctnetlink_conntrack_event+0x127>
    3a07:	49 89 c5             	mov    %rax,%r13
    3a0a:	48 85 c0             	test   %rax,%rax
    3a0d:	0f 84 ad 03 00 00    	je     3dc0 <ctnetlink_conntrack_event+0x4e0>
    3a13:	8b 4c 24 18          	mov    0x18(%rsp),%ecx
    3a17:	8b 78 74             	mov    0x74(%rax),%edi
    3a1a:	41 0f b7 5c 24 32    	movzwl 0x32(%r12),%ebx
    3a20:	41 8b 76 08          	mov    0x8(%r14),%esi
    3a24:	80 cd 01             	or     $0x1,%ch
    3a27:	85 ff                	test   %edi,%edi
    3a29:	0f 85 87 03 00 00    	jne    3db6 <ctnetlink_conntrack_event+0x4d6>
    3a2f:	8b 80 bc 00 00 00    	mov    0xbc(%rax),%eax
    3a35:	41 2b 85 b8 00 00 00 	sub    0xb8(%r13),%eax
    3a3c:	83 f8 13             	cmp    $0x13,%eax
    3a3f:	0f 8e 71 03 00 00    	jle    3db6 <ctnetlink_conntrack_event+0x4d6>
    3a45:	45 89 f9             	mov    %r15d,%r9d
    3a48:	41 b8 04 00 00 00    	mov    $0x4,%r8d
    3a4e:	31 d2                	xor    %edx,%edx
    3a50:	4c 89 ef             	mov    %r13,%rdi
    3a53:	89 4c 24 18          	mov    %ecx,0x18(%rsp)
    3a57:	e8 00 00 00 00       	call   3a5c <ctnetlink_conntrack_event+0x17c>
    3a5c:	49 89 c7             	mov    %rax,%r15
    3a5f:	48 85 c0             	test   %rax,%rax
    3a62:	0f 84 4e 03 00 00    	je     3db6 <ctnetlink_conntrack_event+0x4d6>
    3a68:	31 d2                	xor    %edx,%edx
    3a6a:	88 58 10             	mov    %bl,0x10(%rax)
    3a6d:	31 c9                	xor    %ecx,%ecx
    3a6f:	be 01 80 00 00       	mov    $0x8001,%esi
    3a74:	66 89 50 12          	mov    %dx,0x12(%rax)
    3a78:	4c 89 ef             	mov    %r13,%rdi
    3a7b:	31 d2                	xor    %edx,%edx
    3a7d:	c6 40 11 00          	movb   $0x0,0x11(%rax)
    3a81:	41 8b 9d b8 00 00 00 	mov    0xb8(%r13),%ebx
    3a88:	49 03 9d c0 00 00 00 	add    0xc0(%r13),%rbx
    3a8f:	e8 00 00 00 00       	call   3a94 <ctnetlink_conntrack_event+0x1b4>
    3a94:	48 85 db             	test   %rbx,%rbx
    3a97:	0f 84 fb 02 00 00    	je     3d98 <ctnetlink_conntrack_event+0x4b8>
    3a9d:	85 c0                	test   %eax,%eax
    3a9f:	0f 88 f3 02 00 00    	js     3d98 <ctnetlink_conntrack_event+0x4b8>
    3aa5:	49 8d 74 24 20       	lea    0x20(%r12),%rsi
    3aaa:	4c 89 ef             	mov    %r13,%rdi
    3aad:	e8 3e e2 ff ff       	call   1cf0 <ctnetlink_dump_tuples>
    3ab2:	85 c0                	test   %eax,%eax
    3ab4:	0f 88 de 02 00 00    	js     3d98 <ctnetlink_conntrack_event+0x4b8>
    3aba:	49 8d 44 24 0f       	lea    0xf(%r12),%rax
    3abf:	41 0f b7 54 24 0c    	movzwl 0xc(%r12),%edx
    3ac5:	be 03 00 00 00       	mov    $0x3,%esi
    3aca:	4c 89 ef             	mov    %r13,%rdi
    3acd:	41 b8 01 00 00 00    	mov    $0x1,%r8d
    3ad3:	48 89 c1             	mov    %rax,%rcx
    3ad6:	48 89 04 24          	mov    %rax,(%rsp)
    3ada:	e8 61 e0 ff ff       	call   1b40 <ctnetlink_dump_zone_id.isra.0>
    3adf:	85 c0                	test   %eax,%eax
    3ae1:	0f 88 b1 02 00 00    	js     3d98 <ctnetlink_conntrack_event+0x4b8>
    3ae7:	41 8b 85 b8 00 00 00 	mov    0xb8(%r13),%eax
    3aee:	31 c9                	xor    %ecx,%ecx
    3af0:	31 d2                	xor    %edx,%edx
    3af2:	be 02 80 00 00       	mov    $0x8002,%esi
    3af7:	49 03 85 c0 00 00 00 	add    0xc0(%r13),%rax
    3afe:	4c 89 ef             	mov    %r13,%rdi
    3b01:	48 29 d8             	sub    %rbx,%rax
    3b04:	66 89 03             	mov    %ax,(%rbx)
    3b07:	41 8b 9d b8 00 00 00 	mov    0xb8(%r13),%ebx
    3b0e:	49 03 9d c0 00 00 00 	add    0xc0(%r13),%rbx
    3b15:	e8 00 00 00 00       	call   3b1a <ctnetlink_conntrack_event+0x23a>
    3b1a:	48 85 db             	test   %rbx,%rbx
    3b1d:	0f 84 75 02 00 00    	je     3d98 <ctnetlink_conntrack_event+0x4b8>
    3b23:	85 c0                	test   %eax,%eax
    3b25:	0f 88 6d 02 00 00    	js     3d98 <ctnetlink_conntrack_event+0x4b8>
    3b2b:	49 8d 74 24 58       	lea    0x58(%r12),%rsi
    3b30:	4c 89 ef             	mov    %r13,%rdi
    3b33:	e8 b8 e1 ff ff       	call   1cf0 <ctnetlink_dump_tuples>
    3b38:	85 c0                	test   %eax,%eax
    3b3a:	0f 88 58 02 00 00    	js     3d98 <ctnetlink_conntrack_event+0x4b8>
    3b40:	41 0f b7 54 24 0c    	movzwl 0xc(%r12),%edx
    3b46:	48 8b 0c 24          	mov    (%rsp),%rcx
    3b4a:	be 03 00 00 00       	mov    $0x3,%esi
    3b4f:	4c 89 ef             	mov    %r13,%rdi
    3b52:	41 b8 02 00 00 00    	mov    $0x2,%r8d
    3b58:	e8 e3 df ff ff       	call   1b40 <ctnetlink_dump_zone_id.isra.0>
    3b5d:	85 c0                	test   %eax,%eax
    3b5f:	0f 88 33 02 00 00    	js     3d98 <ctnetlink_conntrack_event+0x4b8>
    3b65:	41 8b 85 b8 00 00 00 	mov    0xb8(%r13),%eax
    3b6c:	49 03 85 c0 00 00 00 	add    0xc0(%r13),%rax
    3b73:	41 b8 03 00 00 00    	mov    $0x3,%r8d
    3b79:	4c 89 ef             	mov    %r13,%rdi
    3b7c:	48 29 d8             	sub    %rbx,%rax
    3b7f:	48 8b 0c 24          	mov    (%rsp),%rcx
    3b83:	be 12 00 00 00       	mov    $0x12,%esi
    3b88:	66 89 03             	mov    %ax,(%rbx)
    3b8b:	41 0f b7 54 24 0c    	movzwl 0xc(%r12),%edx
    3b91:	e8 aa df ff ff       	call   1b40 <ctnetlink_dump_zone_id.isra.0>
    3b96:	85 c0                	test   %eax,%eax
    3b98:	0f 88 fa 01 00 00    	js     3d98 <ctnetlink_conntrack_event+0x4b8>
    3b9e:	4c 89 e6             	mov    %r12,%rsi
    3ba1:	4c 89 ef             	mov    %r13,%rdi
    3ba4:	e8 77 ce ff ff       	call   a20 <ctnetlink_dump_id>
    3ba9:	85 c0                	test   %eax,%eax
    3bab:	0f 88 e7 01 00 00    	js     3d98 <ctnetlink_conntrack_event+0x4b8>
    3bb1:	49 8b 84 24 80 00 00 	mov    0x80(%r12),%rax
    3bb8:	00 
    3bb9:	48 8d 4c 24 20       	lea    0x20(%rsp),%rcx
    3bbe:	ba 04 00 00 00       	mov    $0x4,%edx
    3bc3:	4c 89 ef             	mov    %r13,%rdi
    3bc6:	be 03 00 00 00       	mov    $0x3,%esi
    3bcb:	0f c8                	bswap  %eax
    3bcd:	89 44 24 20          	mov    %eax,0x20(%rsp)
    3bd1:	e8 00 00 00 00       	call   3bd6 <ctnetlink_conntrack_event+0x2f6>
    3bd6:	85 c0                	test   %eax,%eax
    3bd8:	0f 85 ba 01 00 00    	jne    3d98 <ctnetlink_conntrack_event+0x4b8>
    3bde:	8b 44 24 08          	mov    0x8(%rsp),%eax
    3be2:	85 c0                	test   %eax,%eax
    3be4:	0f 84 d7 00 00 00    	je     3cc1 <ctnetlink_conntrack_event+0x3e1>
    3bea:	ba 01 00 00 00       	mov    $0x1,%edx
    3bef:	4c 89 e6             	mov    %r12,%rsi
    3bf2:	4c 89 ef             	mov    %r13,%rdi
    3bf5:	e8 36 ca ff ff       	call   630 <ctnetlink_dump_timeout>
    3bfa:	85 c0                	test   %eax,%eax
    3bfc:	0f 88 96 01 00 00    	js     3d98 <ctnetlink_conntrack_event+0x4b8>
    3c02:	8b 54 24 18          	mov    0x18(%rsp),%edx
    3c06:	4c 89 e6             	mov    %r12,%rsi
    3c09:	4c 89 ef             	mov    %r13,%rdi
    3c0c:	e8 9f cf ff ff       	call   bb0 <ctnetlink_dump_acct>
    3c11:	85 c0                	test   %eax,%eax
    3c13:	0f 88 7f 01 00 00    	js     3d98 <ctnetlink_conntrack_event+0x4b8>
    3c19:	4c 89 e6             	mov    %r12,%rsi
    3c1c:	4c 89 ef             	mov    %r13,%rdi
    3c1f:	e8 fc cf ff ff       	call   c20 <ctnetlink_dump_timestamp>
    3c24:	85 c0                	test   %eax,%eax
    3c26:	0f 88 6c 01 00 00    	js     3d98 <ctnetlink_conntrack_event+0x4b8>
    3c2c:	ba 01 00 00 00       	mov    $0x1,%edx
    3c31:	4c 89 e6             	mov    %r12,%rsi
    3c34:	4c 89 ef             	mov    %r13,%rdi
    3c37:	e8 f4 c8 ff ff       	call   530 <ctnetlink_dump_protoinfo>
    3c3c:	85 c0                	test   %eax,%eax
    3c3e:	0f 88 54 01 00 00    	js     3d98 <ctnetlink_conntrack_event+0x4b8>
    3c44:	8b 54 24 0c          	mov    0xc(%rsp),%edx
    3c48:	4c 89 e6             	mov    %r12,%rsi
    3c4b:	4c 89 ef             	mov    %r13,%rdi
    3c4e:	c1 ea 07             	shr    $0x7,%edx
    3c51:	83 e2 01             	and    $0x1,%edx
    3c54:	e8 57 cd ff ff       	call   9b0 <ctnetlink_dump_mark>
    3c59:	85 c0                	test   %eax,%eax
    3c5b:	0f 85 37 01 00 00    	jne    3d98 <ctnetlink_conntrack_event+0x4b8>
    3c61:	41 8b 85 b8 00 00 00 	mov    0xb8(%r13),%eax
    3c68:	49 03 85 c0 00 00 00 	add    0xc0(%r13),%rax
    3c6f:	4c 89 ef             	mov    %r13,%rdi
    3c72:	41 b9 20 0a 00 00    	mov    $0xa20,%r9d
    3c78:	4c 29 f8             	sub    %r15,%rax
    3c7b:	8b 4c 24 1c          	mov    0x1c(%rsp),%ecx
    3c7f:	48 8b 74 24 10       	mov    0x10(%rsp),%rsi
    3c84:	41 89 07             	mov    %eax,(%r15)
    3c87:	41 8b 56 08          	mov    0x8(%r14),%edx
    3c8b:	45 8b 46 0c          	mov    0xc(%r14),%r8d
    3c8f:	e8 00 00 00 00       	call   3c94 <ctnetlink_conntrack_event+0x3b4>
    3c94:	83 f8 97             	cmp    $0xffffff97,%eax
    3c97:	74 09                	je     3ca2 <ctnetlink_conntrack_event+0x3c2>
    3c99:	83 f8 f5             	cmp    $0xfffffff5,%eax
    3c9c:	0f 85 3b 01 00 00    	jne    3ddd <ctnetlink_conntrack_event+0x4fd>
    3ca2:	b8 97 ff ff ff       	mov    $0xffffff97,%eax
    3ca7:	e9 33 01 00 00       	jmp    3ddf <ctnetlink_conntrack_event+0x4ff>
    3cac:	48 01 c8             	add    %rcx,%rax
    3caf:	48 83 f8 01          	cmp    $0x1,%rax
    3cb3:	48 19 d2             	sbb    %rdx,%rdx
    3cb6:	48 f7 d2             	not    %rdx
    3cb9:	83 e2 14             	and    $0x14,%edx
    3cbc:	e9 2b fd ff ff       	jmp    39ec <ctnetlink_conntrack_event+0x10c>
    3cc1:	31 d2                	xor    %edx,%edx
    3cc3:	4c 89 e6             	mov    %r12,%rsi
    3cc6:	4c 89 ef             	mov    %r13,%rdi
    3cc9:	e8 62 c9 ff ff       	call   630 <ctnetlink_dump_timeout>
    3cce:	85 c0                	test   %eax,%eax
    3cd0:	0f 88 c2 00 00 00    	js     3d98 <ctnetlink_conntrack_event+0x4b8>
    3cd6:	f6 44 24 0c 20       	testb  $0x20,0xc(%rsp)
    3cdb:	0f 85 80 01 00 00    	jne    3e61 <ctnetlink_conntrack_event+0x581>
    3ce1:	f6 44 24 0c 40       	testb  $0x40,0xc(%rsp)
    3ce6:	75 19                	jne    3d01 <ctnetlink_conntrack_event+0x421>
    3ce8:	49 8b 94 24 b8 00 00 	mov    0xb8(%r12),%rdx
    3cef:	00 
    3cf0:	48 85 d2             	test   %rdx,%rdx
    3cf3:	74 1f                	je     3d14 <ctnetlink_conntrack_event+0x434>
    3cf5:	0f b6 02             	movzbl (%rdx),%eax
    3cf8:	84 c0                	test   %al,%al
    3cfa:	74 18                	je     3d14 <ctnetlink_conntrack_event+0x434>
    3cfc:	48 01 c2             	add    %rax,%rdx
    3cff:	74 13                	je     3d14 <ctnetlink_conntrack_event+0x434>
    3d01:	4c 89 e6             	mov    %r12,%rsi
    3d04:	4c 89 ef             	mov    %r13,%rdi
    3d07:	e8 14 f3 ff ff       	call   3020 <ctnetlink_dump_helpinfo>
    3d0c:	85 c0                	test   %eax,%eax
    3d0e:	0f 88 84 00 00 00    	js     3d98 <ctnetlink_conntrack_event+0x4b8>
    3d14:	8b 44 24 0c          	mov    0xc(%rsp),%eax
    3d18:	41 8b b4 24 b4 00 00 	mov    0xb4(%r12),%esi
    3d1f:	00 
    3d20:	25 00 02 00 00       	and    $0x200,%eax
    3d25:	09 f0                	or     %esi,%eax
    3d27:	74 0c                	je     3d35 <ctnetlink_conntrack_event+0x455>
    3d29:	4c 89 ef             	mov    %r13,%rdi
    3d2c:	e8 ef f3 ff ff       	call   3120 <ctnetlink_dump_secctx.isra.0>
    3d31:	85 c0                	test   %eax,%eax
    3d33:	78 63                	js     3d98 <ctnetlink_conntrack_event+0x4b8>
    3d35:	f7 44 24 0c 00 04 00 	testl  $0x400,0xc(%rsp)
    3d3c:	00 
    3d3d:	0f 85 38 01 00 00    	jne    3e7b <ctnetlink_conntrack_event+0x59b>
    3d43:	f6 44 24 0c 02       	testb  $0x2,0xc(%rsp)
    3d48:	74 1f                	je     3d69 <ctnetlink_conntrack_event+0x489>
    3d4a:	41 f6 84 24 80 00 00 	testb  $0x1,0x80(%r12)
    3d51:	00 01 
    3d53:	74 14                	je     3d69 <ctnetlink_conntrack_event+0x489>
    3d55:	49 8d b4 24 a8 00 00 	lea    0xa8(%r12),%rsi
    3d5c:	00 
    3d5d:	4c 89 ef             	mov    %r13,%rdi
    3d60:	e8 6b e0 ff ff       	call   1dd0 <ctnetlink_dump_master.isra.0.part.0>
    3d65:	85 c0                	test   %eax,%eax
    3d67:	78 2f                	js     3d98 <ctnetlink_conntrack_event+0x4b8>
    3d69:	f7 44 24 0c 00 01 00 	testl  $0x100,0xc(%rsp)
    3d70:	00 
    3d71:	0f 85 21 01 00 00    	jne    3e98 <ctnetlink_conntrack_event+0x5b8>
    3d77:	f7 44 24 0c 00 08 00 	testl  $0x800,0xc(%rsp)
    3d7e:	00 
    3d7f:	0f 84 bf fe ff ff    	je     3c44 <ctnetlink_conntrack_event+0x364>
    3d85:	4c 89 e6             	mov    %r12,%rsi
    3d88:	4c 89 ef             	mov    %r13,%rdi
    3d8b:	e8 f0 ca ff ff       	call   880 <ctnetlink_dump_ct_synproxy>
    3d90:	85 c0                	test   %eax,%eax
    3d92:	0f 89 ac fe ff ff    	jns    3c44 <ctnetlink_conntrack_event+0x364>
    3d98:	49 8b 85 c8 00 00 00 	mov    0xc8(%r13),%rax
    3d9f:	4c 39 f8             	cmp    %r15,%rax
    3da2:	0f 87 b2 00 00 00    	ja     3e5a <ctnetlink_conntrack_event+0x57a>
    3da8:	4c 89 fe             	mov    %r15,%rsi
    3dab:	4c 89 ef             	mov    %r13,%rdi
    3dae:	48 29 c6             	sub    %rax,%rsi
    3db1:	e8 00 00 00 00       	call   3db6 <ctnetlink_conntrack_event+0x4d6>
    3db6:	31 f6                	xor    %esi,%esi
    3db8:	4c 89 ef             	mov    %r13,%rdi
    3dbb:	e8 00 00 00 00       	call   3dc0 <ctnetlink_conntrack_event+0x4e0>
    3dc0:	8b 54 24 1c          	mov    0x1c(%rsp),%edx
    3dc4:	48 8b 7c 24 10       	mov    0x10(%rsp),%rdi
    3dc9:	31 f6                	xor    %esi,%esi
    3dcb:	b9 97 ff ff ff       	mov    $0xffffff97,%ecx
    3dd0:	e8 00 00 00 00       	call   3dd5 <ctnetlink_conntrack_event+0x4f5>
    3dd5:	85 c0                	test   %eax,%eax
    3dd7:	0f 8f c5 fe ff ff    	jg     3ca2 <ctnetlink_conntrack_event+0x3c2>
    3ddd:	31 c0                	xor    %eax,%eax
    3ddf:	48 8b 4c 24 48       	mov    0x48(%rsp),%rcx
    3de4:	65 48 33 0c 25 28 00 	xor    %gs:0x28,%rcx
    3deb:	00 00 
    3ded:	0f 85 a0 00 00 00    	jne    3e93 <ctnetlink_conntrack_event+0x5b3>
    3df3:	48 8d 65 d8          	lea    -0x28(%rbp),%rsp
    3df7:	5b                   	pop    %rbx
    3df8:	41 5c                	pop    %r12
    3dfa:	41 5d                	pop    %r13
    3dfc:	41 5e                	pop    %r14
    3dfe:	41 5f                	pop    %r15
    3e00:	5d                   	pop    %rbp
    3e01:	e9 00 00 00 00       	jmp    3e06 <ctnetlink_conntrack_event+0x526>
    3e06:	8b 74 24 1c          	mov    0x1c(%rsp),%esi
    3e0a:	48 8b 7c 24 10       	mov    0x10(%rsp),%rdi
    3e0f:	e8 00 00 00 00       	call   3e14 <ctnetlink_conntrack_event+0x534>
    3e14:	85 c0                	test   %eax,%eax
    3e16:	0f 85 57 fb ff ff    	jne    3973 <ctnetlink_conntrack_event+0x93>
    3e1c:	eb bf                	jmp    3ddd <ctnetlink_conntrack_event+0x4fd>
    3e1e:	8b 5c 24 28          	mov    0x28(%rsp),%ebx
    3e22:	48 8d 7c 24 20       	lea    0x20(%rsp),%rdi
    3e27:	e8 00 00 00 00       	call   3e2c <ctnetlink_conntrack_event+0x54c>
    3e2c:	83 c3 07             	add    $0x7,%ebx
    3e2f:	83 e3 fc             	and    $0xfffffffc,%ebx
    3e32:	83 c3 04             	add    $0x4,%ebx
    3e35:	48 63 db             	movslq %ebx,%rbx
    3e38:	e9 89 fb ff ff       	jmp    39c6 <ctnetlink_conntrack_event+0xe6>
    3e3d:	4c 8d 68 70          	lea    0x70(%rax),%r13
    3e41:	e9 62 fb ff ff       	jmp    39a8 <ctnetlink_conntrack_event+0xc8>
    3e46:	85 ff                	test   %edi,%edi
    3e48:	74 93                	je     3ddd <ctnetlink_conntrack_event+0x4fd>
    3e4a:	c7 44 24 1c 02 00 00 	movl   $0x2,0x1c(%rsp)
    3e51:	00 
    3e52:	45 31 ff             	xor    %r15d,%r15d
    3e55:	e9 ff fa ff ff       	jmp    3959 <ctnetlink_conntrack_event+0x79>
    3e5a:	0f 0b                	ud2    
    3e5c:	e9 47 ff ff ff       	jmp    3da8 <ctnetlink_conntrack_event+0x4c8>
    3e61:	31 d2                	xor    %edx,%edx
    3e63:	4c 89 e6             	mov    %r12,%rsi
    3e66:	4c 89 ef             	mov    %r13,%rdi
    3e69:	e8 c2 c6 ff ff       	call   530 <ctnetlink_dump_protoinfo>
    3e6e:	85 c0                	test   %eax,%eax
    3e70:	0f 89 6b fe ff ff    	jns    3ce1 <ctnetlink_conntrack_event+0x401>
    3e76:	e9 1d ff ff ff       	jmp    3d98 <ctnetlink_conntrack_event+0x4b8>
    3e7b:	4c 89 e6             	mov    %r12,%rsi
    3e7e:	4c 89 ef             	mov    %r13,%rdi
    3e81:	e8 4a c7 ff ff       	call   5d0 <ctnetlink_dump_labels>
    3e86:	85 c0                	test   %eax,%eax
    3e88:	0f 89 b5 fe ff ff    	jns    3d43 <ctnetlink_conntrack_event+0x463>
    3e8e:	e9 05 ff ff ff       	jmp    3d98 <ctnetlink_conntrack_event+0x4b8>
    3e93:	e8 00 00 00 00       	call   3e98 <ctnetlink_conntrack_event+0x5b8>
    3e98:	4c 89 e6             	mov    %r12,%rsi
    3e9b:	4c 89 ef             	mov    %r13,%rdi
    3e9e:	e8 2d c9 ff ff       	call   7d0 <ctnetlink_dump_ct_seq_adj>
    3ea3:	85 c0                	test   %eax,%eax
    3ea5:	0f 89 cc fe ff ff    	jns    3d77 <ctnetlink_conntrack_event+0x497>
    3eab:	e9 e8 fe ff ff       	jmp    3d98 <ctnetlink_conntrack_event+0x4b8>

0000000000003eb0 <ctnetlink_exp_dump_expect>:
    3eb0:	e8 00 00 00 00       	call   3eb5 <ctnetlink_exp_dump_expect+0x5>
    3eb5:	55                   	push   %rbp
    3eb6:	48 89 e5             	mov    %rsp,%rbp
    3eb9:	41 57                	push   %r15
    3ebb:	41 56                	push   %r14
    3ebd:	41 55                	push   %r13
    3ebf:	41 54                	push   %r12
    3ec1:	49 89 fc             	mov    %rdi,%r12
    3ec4:	53                   	push   %rbx
    3ec5:	48 89 f3             	mov    %rsi,%rbx
    3ec8:	48 83 e4 f0          	and    $0xfffffffffffffff0,%rsp
    3ecc:	48 83 ec 70          	sub    $0x70,%rsp
    3ed0:	48 8b 8e 88 00 00 00 	mov    0x88(%rsi),%rcx
    3ed7:	4c 8b 76 70          	mov    0x70(%rsi),%r14
    3edb:	65 48 8b 04 25 28 00 	mov    %gs:0x28,%rax
    3ee2:	00 00 
    3ee4:	48 89 44 24 68       	mov    %rax,0x68(%rsp)
    3ee9:	31 c0                	xor    %eax,%eax
    3eeb:	48 c7 44 24 18 00 00 	movq   $0x0,0x18(%rsp)
    3ef2:	00 00 
    3ef4:	48 c7 44 24 20 00 00 	movq   $0x0,0x20(%rsp)
    3efb:	00 00 
    3efd:	48 c7 44 24 28 00 00 	movq   $0x0,0x28(%rsp)
    3f04:	00 00 
    3f06:	48 8b 05 00 00 00 00 	mov    0x0(%rip),%rax        # 3f0d <ctnetlink_exp_dump_expect+0x5d>
    3f0d:	48 c7 44 24 30 00 00 	movq   $0x0,0x30(%rsp)
    3f14:	00 00 
    3f16:	48 c7 44 24 38 00 00 	movq   $0x0,0x38(%rsp)
    3f1d:	00 00 
    3f1f:	48 29 c1             	sub    %rax,%rcx
    3f22:	48 c7 44 24 08 00 00 	movq   $0x0,0x8(%rsp)
    3f29:	00 00 
    3f2b:	48 81 f9 07 ff ff ff 	cmp    $0xffffffffffffff07,%rcx
    3f32:	7c 20                	jl     3f54 <ctnetlink_exp_dump_expect+0xa4>
    3f34:	48 ba cf f7 53 e3 a5 	movabs $0x20c49ba5e353f7cf,%rdx
    3f3b:	9b c4 20 
    3f3e:	48 89 c8             	mov    %rcx,%rax
    3f41:	48 c1 f9 3f          	sar    $0x3f,%rcx
    3f45:	48 f7 ea             	imul   %rdx
    3f48:	48 c1 fa 05          	sar    $0x5,%rdx
    3f4c:	48 29 ca             	sub    %rcx,%rdx
    3f4f:	48 89 54 24 08       	mov    %rdx,0x8(%rsp)
    3f54:	48 8d 73 20          	lea    0x20(%rbx),%rsi
    3f58:	ba 02 00 00 00       	mov    $0x2,%edx
    3f5d:	4c 89 e7             	mov    %r12,%rdi
    3f60:	e8 eb dd ff ff       	call   1d50 <ctnetlink_exp_dump_tuple>
    3f65:	85 c0                	test   %eax,%eax
    3f67:	0f 88 30 03 00 00    	js     429d <ctnetlink_exp_dump_expect+0x3ed>
    3f6d:	48 8b 43 48          	mov    0x48(%rbx),%rax
    3f71:	48 8b 53 50          	mov    0x50(%rbx),%rdx
    3f75:	31 c9                	xor    %ecx,%ecx
    3f77:	be 03 80 00 00       	mov    $0x8003,%esi
    3f7c:	48 c7 44 24 50 ff ff 	movq   $0xffffffffffffffff,0x50(%rsp)
    3f83:	ff ff 
    3f85:	4c 89 e7             	mov    %r12,%rdi
    3f88:	45 8b ac 24 b8 00 00 	mov    0xb8(%r12),%r13d
    3f8f:	00 
    3f90:	48 89 44 24 40       	mov    %rax,0x40(%rsp)
    3f95:	0f b7 43 58          	movzwl 0x58(%rbx),%eax
    3f99:	48 89 54 24 48       	mov    %rdx,0x48(%rsp)
    3f9e:	31 d2                	xor    %edx,%edx
    3fa0:	4d 03 ac 24 c0 00 00 	add    0xc0(%r12),%r13
    3fa7:	00 
    3fa8:	66 89 44 24 50       	mov    %ax,0x50(%rsp)
    3fad:	0f b7 43 32          	movzwl 0x32(%rbx),%eax
    3fb1:	48 c7 44 24 60 ff ff 	movq   $0xffffffffffffffff,0x60(%rsp)
    3fb8:	ff ff 
    3fba:	66 89 44 24 52       	mov    %ax,0x52(%rsp)
    3fbf:	0f b6 43 46          	movzbl 0x46(%rbx),%eax
    3fc3:	48 c7 44 24 58 ff ff 	movq   $0xffffffffffffffff,0x58(%rsp)
    3fca:	ff ff 
    3fcc:	88 44 24 66          	mov    %al,0x66(%rsp)
    3fd0:	e8 00 00 00 00       	call   3fd5 <ctnetlink_exp_dump_expect+0x125>
    3fd5:	85 c0                	test   %eax,%eax
    3fd7:	0f 88 c0 02 00 00    	js     429d <ctnetlink_exp_dump_expect+0x3ed>
    3fdd:	4d 85 ed             	test   %r13,%r13
    3fe0:	0f 84 b7 02 00 00    	je     429d <ctnetlink_exp_dump_expect+0x3ed>
    3fe6:	48 8d 74 24 40       	lea    0x40(%rsp),%rsi
    3feb:	4c 89 e7             	mov    %r12,%rdi
    3fee:	e8 bd db ff ff       	call   1bb0 <ctnetlink_dump_tuples_ip>
    3ff3:	41 89 c7             	mov    %eax,%r15d
    3ff6:	85 c0                	test   %eax,%eax
    3ff8:	0f 89 aa 02 00 00    	jns    42a8 <ctnetlink_exp_dump_expect+0x3f8>
    3ffe:	e8 00 00 00 00       	call   4003 <ctnetlink_exp_dump_expect+0x153>
    4003:	45 85 ff             	test   %r15d,%r15d
    4006:	0f 88 91 02 00 00    	js     429d <ctnetlink_exp_dump_expect+0x3ed>
    400c:	41 8b 84 24 b8 00 00 	mov    0xb8(%r12),%eax
    4013:	00 
    4014:	49 8d 76 20          	lea    0x20(%r14),%rsi
    4018:	ba 01 00 00 00       	mov    $0x1,%edx
    401d:	4c 89 e7             	mov    %r12,%rdi
    4020:	49 03 84 24 c0 00 00 	add    0xc0(%r12),%rax
    4027:	00 
    4028:	4c 29 e8             	sub    %r13,%rax
    402b:	66 41 89 45 00       	mov    %ax,0x0(%r13)
    4030:	e8 1b dd ff ff       	call   1d50 <ctnetlink_exp_dump_tuple>
    4035:	85 c0                	test   %eax,%eax
    4037:	0f 88 60 02 00 00    	js     429d <ctnetlink_exp_dump_expect+0x3ed>
    403d:	48 8b 83 b4 00 00 00 	mov    0xb4(%rbx),%rax
    4044:	48 0b 83 ac 00 00 00 	or     0xac(%rbx),%rax
    404b:	0f 85 32 01 00 00    	jne    4183 <ctnetlink_exp_dump_expect+0x2d3>
    4051:	66 83 bb bc 00 00 00 	cmpw   $0x0,0xbc(%rbx)
    4058:	00 
    4059:	4c 8d 6c 24 14       	lea    0x14(%rsp),%r13
    405e:	0f 85 1f 01 00 00    	jne    4183 <ctnetlink_exp_dump_expect+0x2d3>
    4064:	8b 44 24 08          	mov    0x8(%rsp),%eax
    4068:	4c 89 e9             	mov    %r13,%rcx
    406b:	ba 04 00 00 00       	mov    $0x4,%edx
    4070:	4c 89 e7             	mov    %r12,%rdi
    4073:	be 04 00 00 00       	mov    $0x4,%esi
    4078:	0f c8                	bswap  %eax
    407a:	89 44 24 14          	mov    %eax,0x14(%rsp)
    407e:	e8 00 00 00 00       	call   4083 <ctnetlink_exp_dump_expect+0x1d3>
    4083:	85 c0                	test   %eax,%eax
    4085:	0f 85 12 02 00 00    	jne    429d <ctnetlink_exp_dump_expect+0x3ed>
    408b:	48 89 df             	mov    %rbx,%rdi
    408e:	e8 4d cd ff ff       	call   de0 <nf_expect_get_id>
    4093:	4c 89 e9             	mov    %r13,%rcx
    4096:	ba 04 00 00 00       	mov    $0x4,%edx
    409b:	4c 89 e7             	mov    %r12,%rdi
    409e:	be 05 00 00 00       	mov    $0x5,%esi
    40a3:	89 44 24 14          	mov    %eax,0x14(%rsp)
    40a7:	e8 00 00 00 00       	call   40ac <ctnetlink_exp_dump_expect+0x1fc>
    40ac:	85 c0                	test   %eax,%eax
    40ae:	0f 85 e9 01 00 00    	jne    429d <ctnetlink_exp_dump_expect+0x3ed>
    40b4:	4c 89 e9             	mov    %r13,%rcx
    40b7:	ba 04 00 00 00       	mov    $0x4,%edx
    40bc:	be 08 00 00 00       	mov    $0x8,%esi
    40c1:	4c 89 e7             	mov    %r12,%rdi
    40c4:	8b 83 a4 00 00 00    	mov    0xa4(%rbx),%eax
    40ca:	0f c8                	bswap  %eax
    40cc:	89 44 24 14          	mov    %eax,0x14(%rsp)
    40d0:	e8 00 00 00 00       	call   40d5 <ctnetlink_exp_dump_expect+0x225>
    40d5:	85 c0                	test   %eax,%eax
    40d7:	0f 85 c0 01 00 00    	jne    429d <ctnetlink_exp_dump_expect+0x3ed>
    40dd:	4c 89 e9             	mov    %r13,%rcx
    40e0:	ba 04 00 00 00       	mov    $0x4,%edx
    40e5:	be 09 00 00 00       	mov    $0x9,%esi
    40ea:	4c 89 e7             	mov    %r12,%rdi
    40ed:	8b 83 a8 00 00 00    	mov    0xa8(%rbx),%eax
    40f3:	0f c8                	bswap  %eax
    40f5:	89 44 24 14          	mov    %eax,0x14(%rsp)
    40f9:	e8 00 00 00 00       	call   40fe <ctnetlink_exp_dump_expect+0x24e>
    40fe:	41 89 c5             	mov    %eax,%r13d
    4101:	85 c0                	test   %eax,%eax
    4103:	0f 85 94 01 00 00    	jne    429d <ctnetlink_exp_dump_expect+0x3ed>
    4109:	49 8b 86 b8 00 00 00 	mov    0xb8(%r14),%rax
    4110:	48 85 c0             	test   %rax,%rax
    4113:	74 0b                	je     4120 <ctnetlink_exp_dump_expect+0x270>
    4115:	0f b6 10             	movzbl (%rax),%edx
    4118:	84 d2                	test   %dl,%dl
    411a:	0f 85 2c 01 00 00    	jne    424c <ctnetlink_exp_dump_expect+0x39c>
    4120:	48 8b 7b 60          	mov    0x60(%rbx),%rdi
    4124:	e8 00 00 00 00       	call   4129 <ctnetlink_exp_dump_expect+0x279>
    4129:	48 85 c0             	test   %rax,%rax
    412c:	74 2b                	je     4159 <ctnetlink_exp_dump_expect+0x2a9>
    412e:	4c 8b 68 10          	mov    0x10(%rax),%r13
    4132:	4c 89 ef             	mov    %r13,%rdi
    4135:	e8 00 00 00 00       	call   413a <ctnetlink_exp_dump_expect+0x28a>
    413a:	4c 89 e9             	mov    %r13,%rcx
    413d:	be 0b 00 00 00       	mov    $0xb,%esi
    4142:	4c 89 e7             	mov    %r12,%rdi
    4145:	8d 50 01             	lea    0x1(%rax),%edx
    4148:	45 31 ed             	xor    %r13d,%r13d
    414b:	e8 00 00 00 00       	call   4150 <ctnetlink_exp_dump_expect+0x2a0>
    4150:	85 c0                	test   %eax,%eax
    4152:	41 0f 95 c5          	setne  %r13b
    4156:	41 f7 dd             	neg    %r13d
    4159:	48 8b 44 24 68       	mov    0x68(%rsp),%rax
    415e:	65 48 33 04 25 28 00 	xor    %gs:0x28,%rax
    4165:	00 00 
    4167:	0f 85 5d 01 00 00    	jne    42ca <ctnetlink_exp_dump_expect+0x41a>
    416d:	48 8d 65 d8          	lea    -0x28(%rbp),%rsp
    4171:	44 89 e8             	mov    %r13d,%eax
    4174:	5b                   	pop    %rbx
    4175:	41 5c                	pop    %r12
    4177:	41 5d                	pop    %r13
    4179:	41 5e                	pop    %r14
    417b:	41 5f                	pop    %r15
    417d:	5d                   	pop    %rbp
    417e:	e9 00 00 00 00       	jmp    4183 <ctnetlink_exp_dump_expect+0x2d3>
    4183:	45 8b bc 24 b8 00 00 	mov    0xb8(%r12),%r15d
    418a:	00 
    418b:	31 c9                	xor    %ecx,%ecx
    418d:	31 d2                	xor    %edx,%edx
    418f:	4c 89 e7             	mov    %r12,%rdi
    4192:	4d 03 bc 24 c0 00 00 	add    0xc0(%r12),%r15
    4199:	00 
    419a:	be 0a 80 00 00       	mov    $0x800a,%esi
    419f:	e8 00 00 00 00       	call   41a4 <ctnetlink_exp_dump_expect+0x2f4>
    41a4:	4d 85 ff             	test   %r15,%r15
    41a7:	0f 84 f0 00 00 00    	je     429d <ctnetlink_exp_dump_expect+0x3ed>
    41ad:	85 c0                	test   %eax,%eax
    41af:	0f 88 e8 00 00 00    	js     429d <ctnetlink_exp_dump_expect+0x3ed>
    41b5:	8b 83 c0 00 00 00    	mov    0xc0(%rbx),%eax
    41bb:	4c 8d 6c 24 14       	lea    0x14(%rsp),%r13
    41c0:	ba 04 00 00 00       	mov    $0x4,%edx
    41c5:	4c 89 e7             	mov    %r12,%rdi
    41c8:	4c 89 e9             	mov    %r13,%rcx
    41cb:	be 01 00 00 00       	mov    $0x1,%esi
    41d0:	0f c8                	bswap  %eax
    41d2:	89 44 24 14          	mov    %eax,0x14(%rsp)
    41d6:	e8 00 00 00 00       	call   41db <ctnetlink_exp_dump_expect+0x32b>
    41db:	85 c0                	test   %eax,%eax
    41dd:	0f 85 ba 00 00 00    	jne    429d <ctnetlink_exp_dump_expect+0x3ed>
    41e3:	41 0f b7 46 32       	movzwl 0x32(%r14),%eax
    41e8:	48 8b 93 b4 00 00 00 	mov    0xb4(%rbx),%rdx
    41ef:	48 8d 74 24 18       	lea    0x18(%rsp),%rsi
    41f4:	4c 89 e7             	mov    %r12,%rdi
    41f7:	66 89 44 24 2a       	mov    %ax,0x2a(%rsp)
    41fc:	48 8b 83 ac 00 00 00 	mov    0xac(%rbx),%rax
    4203:	48 89 54 24 20       	mov    %rdx,0x20(%rsp)
    4208:	ba 02 00 00 00       	mov    $0x2,%edx
    420d:	48 89 44 24 18       	mov    %rax,0x18(%rsp)
    4212:	41 0f b6 46 46       	movzbl 0x46(%r14),%eax
    4217:	88 44 24 3e          	mov    %al,0x3e(%rsp)
    421b:	0f b7 83 bc 00 00 00 	movzwl 0xbc(%rbx),%eax
    4222:	66 89 44 24 28       	mov    %ax,0x28(%rsp)
    4227:	e8 24 db ff ff       	call   1d50 <ctnetlink_exp_dump_tuple>
    422c:	85 c0                	test   %eax,%eax
    422e:	78 6d                	js     429d <ctnetlink_exp_dump_expect+0x3ed>
    4230:	41 8b 84 24 b8 00 00 	mov    0xb8(%r12),%eax
    4237:	00 
    4238:	49 03 84 24 c0 00 00 	add    0xc0(%r12),%rax
    423f:	00 
    4240:	4c 29 f8             	sub    %r15,%rax
    4243:	66 41 89 07          	mov    %ax,(%r15)
    4247:	e9 18 fe ff ff       	jmp    4064 <ctnetlink_exp_dump_expect+0x1b4>
    424c:	48 01 d0             	add    %rdx,%rax
    424f:	0f 84 cb fe ff ff    	je     4120 <ctnetlink_exp_dump_expect+0x270>
    4255:	48 8b 08             	mov    (%rax),%rcx
    4258:	48 85 c9             	test   %rcx,%rcx
    425b:	0f 84 bf fe ff ff    	je     4120 <ctnetlink_exp_dump_expect+0x270>
    4261:	4c 8d 71 10          	lea    0x10(%rcx),%r14
    4265:	be 10 00 00 00       	mov    $0x10,%esi
    426a:	4c 89 f7             	mov    %r14,%rdi
    426d:	e8 00 00 00 00       	call   4272 <ctnetlink_exp_dump_expect+0x3c2>
    4272:	48 83 f8 10          	cmp    $0x10,%rax
    4276:	0f 87 00 00 00 00    	ja     427c <ctnetlink_exp_dump_expect+0x3cc>
    427c:	0f 84 00 00 00 00    	je     4282 <ctnetlink_exp_dump_expect+0x3d2>
    4282:	8d 50 01             	lea    0x1(%rax),%edx
    4285:	4c 89 f1             	mov    %r14,%rcx
    4288:	be 06 00 00 00       	mov    $0x6,%esi
    428d:	4c 89 e7             	mov    %r12,%rdi
    4290:	e8 00 00 00 00       	call   4295 <ctnetlink_exp_dump_expect+0x3e5>
    4295:	85 c0                	test   %eax,%eax
    4297:	0f 84 83 fe ff ff    	je     4120 <ctnetlink_exp_dump_expect+0x270>
    429d:	41 bd ff ff ff ff    	mov    $0xffffffff,%r13d
    42a3:	e9 b1 fe ff ff       	jmp    4159 <ctnetlink_exp_dump_expect+0x2a9>
    42a8:	0f b6 7b 46          	movzbl 0x46(%rbx),%edi
    42ac:	e8 00 00 00 00       	call   42b1 <ctnetlink_exp_dump_expect+0x401>
    42b1:	4c 89 e7             	mov    %r12,%rdi
    42b4:	48 8d 50 20          	lea    0x20(%rax),%rdx
    42b8:	48 8d 74 24 40       	lea    0x40(%rsp),%rsi
    42bd:	e8 ae d7 ff ff       	call   1a70 <ctnetlink_dump_tuples_proto.isra.0>
    42c2:	41 89 c7             	mov    %eax,%r15d
    42c5:	e9 34 fd ff ff       	jmp    3ffe <ctnetlink_exp_dump_expect+0x14e>
    42ca:	e8 00 00 00 00       	call   42cf <ctnetlink_exp_dump_expect+0x41f>
    42cf:	90                   	nop

00000000000042d0 <ctnetlink_expect_event>:
    42d0:	e8 00 00 00 00       	call   42d5 <ctnetlink_expect_event+0x5>
    42d5:	55                   	push   %rbp
    42d6:	48 89 e5             	mov    %rsp,%rbp
    42d9:	41 57                	push   %r15
    42db:	41 56                	push   %r14
    42dd:	41 55                	push   %r13
    42df:	41 54                	push   %r12
    42e1:	41 89 fc             	mov    %edi,%r12d
    42e4:	53                   	push   %rbx
    42e5:	48 89 f3             	mov    %rsi,%rbx
    42e8:	48 83 ec 10          	sub    $0x10,%rsp
    42ec:	4c 8b 3e             	mov    (%rsi),%r15
    42ef:	49 8b 47 70          	mov    0x70(%r15),%rax
    42f3:	4c 8b a8 90 00 00 00 	mov    0x90(%rax),%r13
    42fa:	41 83 e4 02          	and    $0x2,%r12d
    42fe:	0f 85 12 01 00 00    	jne    4416 <ctnetlink_expect_event+0x146>
    4304:	83 e7 01             	and    $0x1,%edi
    4307:	c7 45 d0 00 06 00 00 	movl   $0x600,-0x30(%rbp)
    430e:	41 be 04 00 00 00    	mov    $0x4,%r14d
    4314:	0f 84 e7 00 00 00    	je     4401 <ctnetlink_expect_event+0x131>
    431a:	8b 4b 0c             	mov    0xc(%rbx),%ecx
    431d:	85 c9                	test   %ecx,%ecx
    431f:	75 13                	jne    4334 <ctnetlink_expect_event+0x64>
    4321:	44 89 f6             	mov    %r14d,%esi
    4324:	4c 89 ef             	mov    %r13,%rdi
    4327:	e8 00 00 00 00       	call   432c <ctnetlink_expect_event+0x5c>
    432c:	85 c0                	test   %eax,%eax
    432e:	0f 84 cd 00 00 00    	je     4401 <ctnetlink_expect_event+0x131>
    4334:	bf c0 0e 00 00       	mov    $0xec0,%edi
    4339:	b9 ff ff ff ff       	mov    $0xffffffff,%ecx
    433e:	31 d2                	xor    %edx,%edx
    4340:	be 20 0a 00 00       	mov    $0xa20,%esi
    4345:	e8 00 00 00 00       	call   434a <ctnetlink_expect_event+0x7a>
    434a:	48 89 c7             	mov    %rax,%rdi
    434d:	48 85 c0             	test   %rax,%rax
    4350:	0f 84 09 01 00 00    	je     445f <ctnetlink_expect_event+0x18f>
    4356:	45 0f b7 5f 32       	movzwl 0x32(%r15),%r11d
    435b:	8b 50 74             	mov    0x74(%rax),%edx
    435e:	66 41 81 cc 00 02    	or     $0x200,%r12w
    4364:	8b 73 08             	mov    0x8(%rbx),%esi
    4367:	41 0f bf cc          	movswl %r12w,%ecx
    436b:	44 89 5d cc          	mov    %r11d,-0x34(%rbp)
    436f:	85 d2                	test   %edx,%edx
    4371:	0f 85 e1 00 00 00    	jne    4458 <ctnetlink_expect_event+0x188>
    4377:	8b 80 bc 00 00 00    	mov    0xbc(%rax),%eax
    437d:	2b 87 b8 00 00 00    	sub    0xb8(%rdi),%eax
    4383:	83 f8 13             	cmp    $0x13,%eax
    4386:	0f 8e cc 00 00 00    	jle    4458 <ctnetlink_expect_event+0x188>
    438c:	44 8b 4d d0          	mov    -0x30(%rbp),%r9d
    4390:	31 d2                	xor    %edx,%edx
    4392:	41 b8 04 00 00 00    	mov    $0x4,%r8d
    4398:	48 89 7d d0          	mov    %rdi,-0x30(%rbp)
    439c:	e8 00 00 00 00       	call   43a1 <ctnetlink_expect_event+0xd1>
    43a1:	48 8b 7d d0          	mov    -0x30(%rbp),%rdi
    43a5:	48 85 c0             	test   %rax,%rax
    43a8:	49 89 c4             	mov    %rax,%r12
    43ab:	0f 84 a7 00 00 00    	je     4458 <ctnetlink_expect_event+0x188>
    43b1:	44 8b 5d cc          	mov    -0x34(%rbp),%r11d
    43b5:	c6 40 11 00          	movb   $0x0,0x11(%rax)
    43b9:	4c 89 fe             	mov    %r15,%rsi
    43bc:	44 88 58 10          	mov    %r11b,0x10(%rax)
    43c0:	31 c0                	xor    %eax,%eax
    43c2:	66 41 89 44 24 12    	mov    %ax,0x12(%r12)
    43c8:	e8 e3 fa ff ff       	call   3eb0 <ctnetlink_exp_dump_expect>
    43cd:	48 8b 7d d0          	mov    -0x30(%rbp),%rdi
    43d1:	85 c0                	test   %eax,%eax
    43d3:	78 64                	js     4439 <ctnetlink_expect_event+0x169>
    43d5:	8b 87 b8 00 00 00    	mov    0xb8(%rdi),%eax
    43db:	48 03 87 c0 00 00 00 	add    0xc0(%rdi),%rax
    43e2:	44 89 f1             	mov    %r14d,%ecx
    43e5:	4c 89 ee             	mov    %r13,%rsi
    43e8:	4c 29 e0             	sub    %r12,%rax
    43eb:	41 b9 20 0a 00 00    	mov    $0xa20,%r9d
    43f1:	41 89 04 24          	mov    %eax,(%r12)
    43f5:	8b 53 08             	mov    0x8(%rbx),%edx
    43f8:	44 8b 43 0c          	mov    0xc(%rbx),%r8d
    43fc:	e8 00 00 00 00       	call   4401 <ctnetlink_expect_event+0x131>
    4401:	48 83 c4 10          	add    $0x10,%rsp
    4405:	31 c0                	xor    %eax,%eax
    4407:	5b                   	pop    %rbx
    4408:	41 5c                	pop    %r12
    440a:	41 5d                	pop    %r13
    440c:	41 5e                	pop    %r14
    440e:	41 5f                	pop    %r15
    4410:	5d                   	pop    %rbp
    4411:	e9 00 00 00 00       	jmp    4416 <ctnetlink_expect_event+0x146>
    4416:	8b 4b 0c             	mov    0xc(%rbx),%ecx
    4419:	c7 45 d0 00 00 00 00 	movl   $0x0,-0x30(%rbp)
    4420:	41 be 06 00 00 00    	mov    $0x6,%r14d
    4426:	41 bc 02 00 00 00    	mov    $0x2,%r12d
    442c:	85 c9                	test   %ecx,%ecx
    442e:	0f 84 ed fe ff ff    	je     4321 <ctnetlink_expect_event+0x51>
    4434:	e9 fb fe ff ff       	jmp    4334 <ctnetlink_expect_event+0x64>
    4439:	48 8b 87 c8 00 00 00 	mov    0xc8(%rdi),%rax
    4440:	4c 39 e0             	cmp    %r12,%rax
    4443:	77 2d                	ja     4472 <ctnetlink_expect_event+0x1a2>
    4445:	4c 89 e6             	mov    %r12,%rsi
    4448:	48 89 7d d0          	mov    %rdi,-0x30(%rbp)
    444c:	48 29 c6             	sub    %rax,%rsi
    444f:	e8 00 00 00 00       	call   4454 <ctnetlink_expect_event+0x184>
    4454:	48 8b 7d d0          	mov    -0x30(%rbp),%rdi
    4458:	31 f6                	xor    %esi,%esi
    445a:	e8 00 00 00 00       	call   445f <ctnetlink_expect_event+0x18f>
    445f:	b9 97 ff ff ff       	mov    $0xffffff97,%ecx
    4464:	31 d2                	xor    %edx,%edx
    4466:	31 f6                	xor    %esi,%esi
    4468:	4c 89 ef             	mov    %r13,%rdi
    446b:	e8 00 00 00 00       	call   4470 <ctnetlink_expect_event+0x1a0>
    4470:	eb 8f                	jmp    4401 <ctnetlink_expect_event+0x131>
    4472:	0f 0b                	ud2    
    4474:	eb cf                	jmp    4445 <ctnetlink_expect_event+0x175>
    4476:	66 2e 0f 1f 84 00 00 	cs nopw 0x0(%rax,%rax,1)
    447d:	00 00 00 

0000000000004480 <ctnetlink_exp_fill_info.constprop.0>:
    4480:	e8 00 00 00 00       	call   4485 <ctnetlink_exp_fill_info.constprop.0+0x5>
    4485:	55                   	push   %rbp
    4486:	45 31 c9             	xor    %r9d,%r9d
    4489:	85 f6                	test   %esi,%esi
    448b:	41 0f 95 c1          	setne  %r9b
    448f:	45 01 c9             	add    %r9d,%r9d
    4492:	48 89 e5             	mov    %rsp,%rbp
    4495:	41 56                	push   %r14
    4497:	41 55                	push   %r13
    4499:	41 54                	push   %r12
    449b:	53                   	push   %rbx
    449c:	44 8b 47 74          	mov    0x74(%rdi),%r8d
    44a0:	44 0f b7 71 32       	movzwl 0x32(%rcx),%r14d
    44a5:	45 85 c0             	test   %r8d,%r8d
    44a8:	0f 85 8e 00 00 00    	jne    453c <ctnetlink_exp_fill_info.constprop.0+0xbc>
    44ae:	8b 87 bc 00 00 00    	mov    0xbc(%rdi),%eax
    44b4:	2b 87 b8 00 00 00    	sub    0xb8(%rdi),%eax
    44ba:	49 89 fc             	mov    %rdi,%r12
    44bd:	83 f8 13             	cmp    $0x13,%eax
    44c0:	7e 7a                	jle    453c <ctnetlink_exp_fill_info.constprop.0+0xbc>
    44c2:	49 89 cd             	mov    %rcx,%r13
    44c5:	41 b8 04 00 00 00    	mov    $0x4,%r8d
    44cb:	b9 00 02 00 00       	mov    $0x200,%ecx
    44d0:	e8 00 00 00 00       	call   44d5 <ctnetlink_exp_fill_info.constprop.0+0x55>
    44d5:	48 89 c3             	mov    %rax,%rbx
    44d8:	48 85 c0             	test   %rax,%rax
    44db:	74 5f                	je     453c <ctnetlink_exp_fill_info.constprop.0+0xbc>
    44dd:	44 88 70 10          	mov    %r14b,0x10(%rax)
    44e1:	4c 89 ee             	mov    %r13,%rsi
    44e4:	4c 89 e7             	mov    %r12,%rdi
    44e7:	c6 40 11 00          	movb   $0x0,0x11(%rax)
    44eb:	31 c0                	xor    %eax,%eax
    44ed:	66 89 43 12          	mov    %ax,0x12(%rbx)
    44f1:	e8 ba f9 ff ff       	call   3eb0 <ctnetlink_exp_dump_expect>
    44f6:	85 c0                	test   %eax,%eax
    44f8:	78 27                	js     4521 <ctnetlink_exp_fill_info.constprop.0+0xa1>
    44fa:	41 8b 84 24 b8 00 00 	mov    0xb8(%r12),%eax
    4501:	00 
    4502:	49 03 84 24 c0 00 00 	add    0xc0(%r12),%rax
    4509:	00 
    450a:	48 29 d8             	sub    %rbx,%rax
    450d:	89 03                	mov    %eax,(%rbx)
    450f:	5b                   	pop    %rbx
    4510:	41 8b 44 24 70       	mov    0x70(%r12),%eax
    4515:	41 5c                	pop    %r12
    4517:	41 5d                	pop    %r13
    4519:	41 5e                	pop    %r14
    451b:	5d                   	pop    %rbp
    451c:	e9 00 00 00 00       	jmp    4521 <ctnetlink_exp_fill_info.constprop.0+0xa1>
    4521:	49 8b 84 24 c8 00 00 	mov    0xc8(%r12),%rax
    4528:	00 
    4529:	48 39 d8             	cmp    %rbx,%rax
    452c:	77 20                	ja     454e <ctnetlink_exp_fill_info.constprop.0+0xce>
    452e:	48 29 c3             	sub    %rax,%rbx
    4531:	4c 89 e7             	mov    %r12,%rdi
    4534:	48 89 de             	mov    %rbx,%rsi
    4537:	e8 00 00 00 00       	call   453c <ctnetlink_exp_fill_info.constprop.0+0xbc>
    453c:	5b                   	pop    %rbx
    453d:	b8 ff ff ff ff       	mov    $0xffffffff,%eax
    4542:	41 5c                	pop    %r12
    4544:	41 5d                	pop    %r13
    4546:	41 5e                	pop    %r14
    4548:	5d                   	pop    %rbp
    4549:	e9 00 00 00 00       	jmp    454e <ctnetlink_exp_fill_info.constprop.0+0xce>
    454e:	0f 0b                	ud2    
    4550:	eb dc                	jmp    452e <ctnetlink_exp_fill_info.constprop.0+0xae>
    4552:	66 66 2e 0f 1f 84 00 	data16 cs nopw 0x0(%rax,%rax,1)
    4559:	00 00 00 00 
    455d:	0f 1f 00             	nopl   (%rax)

0000000000004560 <ctnetlink_exp_ct_dump_table>:
    4560:	e8 00 00 00 00       	call   4565 <ctnetlink_exp_ct_dump_table+0x5>
    4565:	55                   	push   %rbp
    4566:	48 89 e5             	mov    %rsp,%rbp
    4569:	41 57                	push   %r15
    456b:	49 89 f7             	mov    %rsi,%r15
    456e:	41 56                	push   %r14
    4570:	41 55                	push   %r13
    4572:	41 54                	push   %r12
    4574:	49 89 fc             	mov    %rdi,%r12
    4577:	53                   	push   %rbx
    4578:	48 83 ec 10          	sub    $0x10,%rsp
    457c:	48 8b 46 20          	mov    0x20(%rsi),%rax
    4580:	48 8b b8 b8 00 00 00 	mov    0xb8(%rax),%rdi
    4587:	48 89 7d c8          	mov    %rdi,-0x38(%rbp)
    458b:	48 85 ff             	test   %rdi,%rdi
    458e:	74 16                	je     45a6 <ctnetlink_exp_ct_dump_table+0x46>
    4590:	0f b6 07             	movzbl (%rdi),%eax
    4593:	4c 8d 34 07          	lea    (%rdi,%rax,1),%r14
    4597:	84 c0                	test   %al,%al
    4599:	b8 00 00 00 00       	mov    $0x0,%eax
    459e:	49 0f 45 c6          	cmovne %r14,%rax
    45a2:	48 89 45 c8          	mov    %rax,-0x38(%rbp)
    45a6:	31 c0                	xor    %eax,%eax
    45a8:	49 83 7f 50 00       	cmpq   $0x0,0x50(%r15)
    45ad:	0f 85 d7 00 00 00    	jne    468a <ctnetlink_exp_ct_dump_table+0x12a>
    45b3:	49 8b 47 08          	mov    0x8(%r15),%rax
    45b7:	44 0f b6 70 10       	movzbl 0x10(%rax),%r14d
    45bc:	48 8b 45 c8          	mov    -0x38(%rbp),%rax
    45c0:	4d 8b 6f 58          	mov    0x58(%r15),%r13
    45c4:	48 8b 58 08          	mov    0x8(%rax),%rbx
    45c8:	4c 89 e8             	mov    %r13,%rax
    45cb:	48 85 db             	test   %rbx,%rbx
    45ce:	74 53                	je     4623 <ctnetlink_exp_ct_dump_table+0xc3>
    45d0:	41 0f b6 f6          	movzbl %r14b,%esi
    45d4:	66 89 75 d6          	mov    %si,-0x2a(%rbp)
    45d8:	eb 0d                	jmp    45e7 <ctnetlink_exp_ct_dump_table+0x87>
    45da:	49 39 dd             	cmp    %rbx,%r13
    45dd:	74 6a                	je     4649 <ctnetlink_exp_ct_dump_table+0xe9>
    45df:	48 8b 1b             	mov    (%rbx),%rbx
    45e2:	48 85 db             	test   %rbx,%rbx
    45e5:	74 3c                	je     4623 <ctnetlink_exp_ct_dump_table+0xc3>
    45e7:	45 84 f6             	test   %r14b,%r14b
    45ea:	74 0a                	je     45f6 <ctnetlink_exp_ct_dump_table+0x96>
    45ec:	0f b7 4d d6          	movzwl -0x2a(%rbp),%ecx
    45f0:	66 39 4b 32          	cmp    %cx,0x32(%rbx)
    45f4:	75 e9                	jne    45df <ctnetlink_exp_ct_dump_table+0x7f>
    45f6:	48 85 c0             	test   %rax,%rax
    45f9:	75 df                	jne    45da <ctnetlink_exp_ct_dump_table+0x7a>
    45fb:	49 8b 47 08          	mov    0x8(%r15),%rax
    45ff:	48 89 d9             	mov    %rbx,%rcx
    4602:	4c 89 e7             	mov    %r12,%rdi
    4605:	8b 50 08             	mov    0x8(%rax),%edx
    4608:	49 8b 07             	mov    (%r15),%rax
    460b:	8b 70 34             	mov    0x34(%rax),%esi
    460e:	e8 6d fe ff ff       	call   4480 <ctnetlink_exp_fill_info.constprop.0>
    4613:	85 c0                	test   %eax,%eax
    4615:	78 3c                	js     4653 <ctnetlink_exp_ct_dump_table+0xf3>
    4617:	48 8b 1b             	mov    (%rbx),%rbx
    461a:	49 8b 47 58          	mov    0x58(%r15),%rax
    461e:	48 85 db             	test   %rbx,%rbx
    4621:	75 c4                	jne    45e7 <ctnetlink_exp_ct_dump_table+0x87>
    4623:	48 85 c0             	test   %rax,%rax
    4626:	74 17                	je     463f <ctnetlink_exp_ct_dump_table+0xdf>
    4628:	48 8b 45 c8          	mov    -0x38(%rbp),%rax
    462c:	49 c7 47 58 00 00 00 	movq   $0x0,0x58(%r15)
    4633:	00 
    4634:	48 8b 58 08          	mov    0x8(%rax),%rbx
    4638:	31 c0                	xor    %eax,%eax
    463a:	48 85 db             	test   %rbx,%rbx
    463d:	75 91                	jne    45d0 <ctnetlink_exp_ct_dump_table+0x70>
    463f:	49 c7 47 50 01 00 00 	movq   $0x1,0x50(%r15)
    4646:	00 
    4647:	eb 32                	jmp    467b <ctnetlink_exp_ct_dump_table+0x11b>
    4649:	49 c7 47 58 00 00 00 	movq   $0x0,0x58(%r15)
    4650:	00 
    4651:	eb a8                	jmp    45fb <ctnetlink_exp_ct_dump_table+0x9b>
    4653:	8b 93 a0 00 00 00    	mov    0xa0(%rbx),%edx
    4659:	48 8d bb a0 00 00 00 	lea    0xa0(%rbx),%rdi
    4660:	85 d2                	test   %edx,%edx
    4662:	74 b3                	je     4617 <ctnetlink_exp_ct_dump_table+0xb7>
    4664:	8d 4a 01             	lea    0x1(%rdx),%ecx
    4667:	89 d0                	mov    %edx,%eax
    4669:	f0 0f b1 0f          	lock cmpxchg %ecx,(%rdi)
    466d:	75 41                	jne    46b0 <ctnetlink_exp_ct_dump_table+0x150>
    466f:	85 d2                	test   %edx,%edx
    4671:	78 34                	js     46a7 <ctnetlink_exp_ct_dump_table+0x147>
    4673:	85 c9                	test   %ecx,%ecx
    4675:	78 30                	js     46a7 <ctnetlink_exp_ct_dump_table+0x147>
    4677:	49 89 5f 58          	mov    %rbx,0x58(%r15)
    467b:	e8 00 00 00 00       	call   4680 <ctnetlink_exp_ct_dump_table+0x120>
    4680:	4d 85 ed             	test   %r13,%r13
    4683:	75 18                	jne    469d <ctnetlink_exp_ct_dump_table+0x13d>
    4685:	41 8b 44 24 70       	mov    0x70(%r12),%eax
    468a:	48 83 c4 10          	add    $0x10,%rsp
    468e:	5b                   	pop    %rbx
    468f:	41 5c                	pop    %r12
    4691:	41 5d                	pop    %r13
    4693:	41 5e                	pop    %r14
    4695:	41 5f                	pop    %r15
    4697:	5d                   	pop    %rbp
    4698:	e9 00 00 00 00       	jmp    469d <ctnetlink_exp_ct_dump_table+0x13d>
    469d:	4c 89 ef             	mov    %r13,%rdi
    46a0:	e8 00 00 00 00       	call   46a5 <ctnetlink_exp_ct_dump_table+0x145>
    46a5:	eb de                	jmp    4685 <ctnetlink_exp_ct_dump_table+0x125>
    46a7:	31 f6                	xor    %esi,%esi
    46a9:	e8 00 00 00 00       	call   46ae <ctnetlink_exp_ct_dump_table+0x14e>
    46ae:	eb c7                	jmp    4677 <ctnetlink_exp_ct_dump_table+0x117>
    46b0:	89 c2                	mov    %eax,%edx
    46b2:	eb ac                	jmp    4660 <ctnetlink_exp_ct_dump_table+0x100>
    46b4:	66 66 2e 0f 1f 84 00 	data16 cs nopw 0x0(%rax,%rax,1)
    46bb:	00 00 00 00 
    46bf:	90                   	nop

00000000000046c0 <ctnetlink_exp_dump_table>:
    46c0:	e8 00 00 00 00       	call   46c5 <ctnetlink_exp_dump_table+0x5>
    46c5:	55                   	push   %rbp
    46c6:	48 89 e5             	mov    %rsp,%rbp
    46c9:	41 57                	push   %r15
    46cb:	41 56                	push   %r14
    46cd:	49 89 f6             	mov    %rsi,%r14
    46d0:	41 55                	push   %r13
    46d2:	41 54                	push   %r12
    46d4:	49 89 fc             	mov    %rdi,%r12
    46d7:	53                   	push   %rbx
    46d8:	48 83 ec 10          	sub    $0x10,%rsp
    46dc:	48 8b 47 18          	mov    0x18(%rdi),%rax
    46e0:	4c 8b 40 30          	mov    0x30(%rax),%r8
    46e4:	48 8b 46 08          	mov    0x8(%rsi),%rax
    46e8:	44 0f b6 68 10       	movzbl 0x10(%rax),%r13d
    46ed:	45 89 ef             	mov    %r13d,%r15d
    46f0:	48 8b 46 58          	mov    0x58(%rsi),%rax
    46f4:	8b 0d 00 00 00 00    	mov    0x0(%rip),%ecx        # 46fa <ctnetlink_exp_dump_table+0x3a>
    46fa:	48 89 45 c8          	mov    %rax,-0x38(%rbp)
    46fe:	48 89 c2             	mov    %rax,%rdx
    4701:	48 8b 46 50          	mov    0x50(%rsi),%rax
    4705:	48 39 c1             	cmp    %rax,%rcx
    4708:	0f 8e c7 00 00 00    	jle    47d5 <ctnetlink_exp_dump_table+0x115>
    470e:	48 8b 0d 00 00 00 00 	mov    0x0(%rip),%rcx        # 4715 <ctnetlink_exp_dump_table+0x55>
    4715:	48 8d 0c c1          	lea    (%rcx,%rax,8),%rcx
    4719:	48 8b 19             	mov    (%rcx),%rbx
    471c:	48 85 db             	test   %rbx,%rbx
    471f:	74 78                	je     4799 <ctnetlink_exp_dump_table+0xd9>
    4721:	48 83 eb 10          	sub    $0x10,%rbx
    4725:	75 11                	jne    4738 <ctnetlink_exp_dump_table+0x78>
    4727:	eb 70                	jmp    4799 <ctnetlink_exp_dump_table+0xd9>
    4729:	48 8b 5b 10          	mov    0x10(%rbx),%rbx
    472d:	48 85 db             	test   %rbx,%rbx
    4730:	74 63                	je     4795 <ctnetlink_exp_dump_table+0xd5>
    4732:	48 83 eb 10          	sub    $0x10,%rbx
    4736:	74 5d                	je     4795 <ctnetlink_exp_dump_table+0xd5>
    4738:	45 84 ff             	test   %r15b,%r15b
    473b:	74 07                	je     4744 <ctnetlink_exp_dump_table+0x84>
    473d:	66 44 39 6b 32       	cmp    %r13w,0x32(%rbx)
    4742:	75 e5                	jne    4729 <ctnetlink_exp_dump_table+0x69>
    4744:	48 8b 43 70          	mov    0x70(%rbx),%rax
    4748:	4c 3b 80 90 00 00 00 	cmp    0x90(%rax),%r8
    474f:	75 d8                	jne    4729 <ctnetlink_exp_dump_table+0x69>
    4751:	48 85 d2             	test   %rdx,%rdx
    4754:	74 0e                	je     4764 <ctnetlink_exp_dump_table+0xa4>
    4756:	48 39 5d c8          	cmp    %rbx,-0x38(%rbp)
    475a:	75 cd                	jne    4729 <ctnetlink_exp_dump_table+0x69>
    475c:	49 c7 46 58 00 00 00 	movq   $0x0,0x58(%r14)
    4763:	00 
    4764:	49 8b 46 08          	mov    0x8(%r14),%rax
    4768:	48 89 d9             	mov    %rbx,%rcx
    476b:	4c 89 e7             	mov    %r12,%rdi
    476e:	4c 89 45 d0          	mov    %r8,-0x30(%rbp)
    4772:	8b 50 08             	mov    0x8(%rax),%edx
    4775:	49 8b 06             	mov    (%r14),%rax
    4778:	8b 70 34             	mov    0x34(%rax),%esi
    477b:	e8 00 fd ff ff       	call   4480 <ctnetlink_exp_fill_info.constprop.0>
    4780:	4c 8b 45 d0          	mov    -0x30(%rbp),%r8
    4784:	85 c0                	test   %eax,%eax
    4786:	78 25                	js     47ad <ctnetlink_exp_dump_table+0xed>
    4788:	48 8b 5b 10          	mov    0x10(%rbx),%rbx
    478c:	49 8b 56 58          	mov    0x58(%r14),%rdx
    4790:	48 85 db             	test   %rbx,%rbx
    4793:	75 9d                	jne    4732 <ctnetlink_exp_dump_table+0x72>
    4795:	49 8b 46 50          	mov    0x50(%r14),%rax
    4799:	48 85 d2             	test   %rdx,%rdx
    479c:	74 73                	je     4811 <ctnetlink_exp_dump_table+0x151>
    479e:	49 c7 46 58 00 00 00 	movq   $0x0,0x58(%r14)
    47a5:	00 
    47a6:	31 d2                	xor    %edx,%edx
    47a8:	e9 61 ff ff ff       	jmp    470e <ctnetlink_exp_dump_table+0x4e>
    47ad:	8b 93 a0 00 00 00    	mov    0xa0(%rbx),%edx
    47b3:	48 8d bb a0 00 00 00 	lea    0xa0(%rbx),%rdi
    47ba:	85 d2                	test   %edx,%edx
    47bc:	74 ca                	je     4788 <ctnetlink_exp_dump_table+0xc8>
    47be:	8d 4a 01             	lea    0x1(%rdx),%ecx
    47c1:	89 d0                	mov    %edx,%eax
    47c3:	f0 0f b1 0f          	lock cmpxchg %ecx,(%rdi)
    47c7:	75 44                	jne    480d <ctnetlink_exp_dump_table+0x14d>
    47c9:	85 d2                	test   %edx,%edx
    47cb:	78 2c                	js     47f9 <ctnetlink_exp_dump_table+0x139>
    47cd:	85 c9                	test   %ecx,%ecx
    47cf:	78 28                	js     47f9 <ctnetlink_exp_dump_table+0x139>
    47d1:	49 89 5e 58          	mov    %rbx,0x58(%r14)
    47d5:	e8 00 00 00 00       	call   47da <ctnetlink_exp_dump_table+0x11a>
    47da:	48 83 7d c8 00       	cmpq   $0x0,-0x38(%rbp)
    47df:	75 21                	jne    4802 <ctnetlink_exp_dump_table+0x142>
    47e1:	41 8b 44 24 70       	mov    0x70(%r12),%eax
    47e6:	48 83 c4 10          	add    $0x10,%rsp
    47ea:	5b                   	pop    %rbx
    47eb:	41 5c                	pop    %r12
    47ed:	41 5d                	pop    %r13
    47ef:	41 5e                	pop    %r14
    47f1:	41 5f                	pop    %r15
    47f3:	5d                   	pop    %rbp
    47f4:	e9 00 00 00 00       	jmp    47f9 <ctnetlink_exp_dump_table+0x139>
    47f9:	31 f6                	xor    %esi,%esi
    47fb:	e8 00 00 00 00       	call   4800 <ctnetlink_exp_dump_table+0x140>
    4800:	eb cf                	jmp    47d1 <ctnetlink_exp_dump_table+0x111>
    4802:	48 8b 7d c8          	mov    -0x38(%rbp),%rdi
    4806:	e8 00 00 00 00       	call   480b <ctnetlink_exp_dump_table+0x14b>
    480b:	eb d4                	jmp    47e1 <ctnetlink_exp_dump_table+0x121>
    480d:	89 c2                	mov    %eax,%edx
    480f:	eb a9                	jmp    47ba <ctnetlink_exp_dump_table+0xfa>
    4811:	8b 0d 00 00 00 00    	mov    0x0(%rip),%ecx        # 4817 <ctnetlink_exp_dump_table+0x157>
    4817:	48 83 c0 01          	add    $0x1,%rax
    481b:	49 89 46 50          	mov    %rax,0x50(%r14)
    481f:	48 39 c8             	cmp    %rcx,%rax
    4822:	0f 8c e6 fe ff ff    	jl     470e <ctnetlink_exp_dump_table+0x4e>
    4828:	eb ab                	jmp    47d5 <ctnetlink_exp_dump_table+0x115>
    482a:	66 0f 1f 44 00 00    	nopw   0x0(%rax,%rax,1)

0000000000004830 <ctnetlink_dump_table>:
    4830:	e8 00 00 00 00       	call   4835 <ctnetlink_dump_table+0x5>
    4835:	55                   	push   %rbp
    4836:	48 89 e5             	mov    %rsp,%rbp
    4839:	41 57                	push   %r15
    483b:	49 89 f7             	mov    %rsi,%r15
    483e:	41 56                	push   %r14
    4840:	41 55                	push   %r13
    4842:	41 54                	push   %r12
    4844:	53                   	push   %rbx
    4845:	48 83 ec 68          	sub    $0x68,%rsp
    4849:	48 89 bd 78 ff ff ff 	mov    %rdi,-0x88(%rbp)
    4850:	65 48 8b 04 25 28 00 	mov    %gs:0x28,%rax
    4857:	00 00 
    4859:	48 89 45 d0          	mov    %rax,-0x30(%rbp)
    485d:	31 c0                	xor    %eax,%eax
    485f:	31 c0                	xor    %eax,%eax
    4861:	48 83 7e 20 00       	cmpq   $0x0,0x20(%rsi)
    4866:	0f 95 c0             	setne  %al
    4869:	c1 e0 05             	shl    $0x5,%eax
    486c:	89 85 74 ff ff ff    	mov    %eax,-0x8c(%rbp)
    4872:	48 8b 47 18          	mov    0x18(%rdi),%rax
    4876:	65 81 05 00 00 00 00 	addl   $0x200,%gs:0x0(%rip)        # 4881 <ctnetlink_dump_table+0x51>
    487d:	00 02 00 00 
    4881:	4c 8b 60 30          	mov    0x30(%rax),%r12
    4885:	48 8b 46 58          	mov    0x58(%rsi),%rax
    4889:	48 89 45 88          	mov    %rax,-0x78(%rbp)
    488d:	8b 05 00 00 00 00    	mov    0x0(%rip),%eax        # 4893 <ctnetlink_dump_table+0x63>
    4893:	31 db                	xor    %ebx,%ebx
    4895:	48 39 46 50          	cmp    %rax,0x50(%rsi)
    4899:	0f 8d 33 01 00 00    	jge    49d2 <ctnetlink_dump_table+0x1a2>
    489f:	85 db                	test   %ebx,%ebx
    48a1:	0f 85 88 02 00 00    	jne    4b2f <ctnetlink_dump_table+0x2ff>
    48a7:	49 8b 47 50          	mov    0x50(%r15),%rax
    48ab:	48 99                	cqto   
    48ad:	48 c1 ea 36          	shr    $0x36,%rdx
    48b1:	48 8d 1c 10          	lea    (%rax,%rdx,1),%rbx
    48b5:	81 e3 ff 03 00 00    	and    $0x3ff,%ebx
    48bb:	48 29 d3             	sub    %rdx,%rbx
    48be:	48 81 fb 00 04 00 00 	cmp    $0x400,%rbx
    48c5:	0f 87 01 04 00 00    	ja     4ccc <ctnetlink_dump_table+0x49c>
    48cb:	48 8d 04 9d 00 00 00 	lea    0x0(,%rbx,4),%rax
    48d2:	00 
    48d3:	48 89 c7             	mov    %rax,%rdi
    48d6:	48 89 45 80          	mov    %rax,-0x80(%rbp)
    48da:	e8 00 00 00 00       	call   48df <ctnetlink_dump_table+0xaf>
    48df:	49 8b 47 50          	mov    0x50(%r15),%rax
    48e3:	8b 15 00 00 00 00    	mov    0x0(%rip),%edx        # 48e9 <ctnetlink_dump_table+0xb9>
    48e9:	48 39 d0             	cmp    %rdx,%rax
    48ec:	0f 8d 42 03 00 00    	jge    4c34 <ctnetlink_dump_table+0x404>
    48f2:	48 8b 15 00 00 00 00 	mov    0x0(%rip),%rdx        # 48f9 <ctnetlink_dump_table+0xc9>
    48f9:	4c 8b 2c c2          	mov    (%rdx,%rax,8),%r13
    48fd:	44 89 eb             	mov    %r13d,%ebx
    4900:	83 e3 01             	and    $0x1,%ebx
    4903:	74 13                	je     4918 <ctnetlink_dump_table+0xe8>
    4905:	e9 23 03 00 00       	jmp    4c2d <ctnetlink_dump_table+0x3fd>
    490a:	4d 8b 6d 00          	mov    0x0(%r13),%r13
    490e:	41 f6 c5 01          	test   $0x1,%r13b
    4912:	0f 85 f1 01 00 00    	jne    4b09 <ctnetlink_dump_table+0x2d9>
    4918:	41 80 7d 37 00       	cmpb   $0x0,0x37(%r13)
    491d:	75 eb                	jne    490a <ctnetlink_dump_table+0xda>
    491f:	41 8b 45 f8          	mov    -0x8(%r13),%eax
    4923:	48 8b 15 00 00 00 00 	mov    0x0(%rip),%rdx        # 492a <ctnetlink_dump_table+0xfa>
    492a:	4d 8d 75 f0          	lea    -0x10(%r13),%r14
    492e:	29 d0                	sub    %edx,%eax
    4930:	85 c0                	test   %eax,%eax
    4932:	0f 8e 77 01 00 00    	jle    4aaf <ctnetlink_dump_table+0x27f>
    4938:	4d 3b a5 80 00 00 00 	cmp    0x80(%r13),%r12
    493f:	75 c9                	jne    490a <ctnetlink_dump_table+0xda>
    4941:	49 83 7f 58 00       	cmpq   $0x0,0x58(%r15)
    4946:	74 0e                	je     4956 <ctnetlink_dump_table+0x126>
    4948:	4c 39 75 88          	cmp    %r14,-0x78(%rbp)
    494c:	75 bc                	jne    490a <ctnetlink_dump_table+0xda>
    494e:	49 c7 47 58 00 00 00 	movq   $0x0,0x58(%r15)
    4955:	00 
    4956:	49 8b 77 20          	mov    0x20(%r15),%rsi
    495a:	4c 89 f7             	mov    %r14,%rdi
    495d:	e8 9e e3 ff ff       	call   2d00 <ctnetlink_filter_match>
    4962:	85 c0                	test   %eax,%eax
    4964:	74 a4                	je     490a <ctnetlink_dump_table+0xda>
    4966:	49 8b 47 08          	mov    0x8(%r15),%rax
    496a:	41 b9 01 00 00 00    	mov    $0x1,%r9d
    4970:	4d 89 f0             	mov    %r14,%r8
    4973:	8b 50 08             	mov    0x8(%rax),%edx
    4976:	0f b6 48 04          	movzbl 0x4(%rax),%ecx
    497a:	49 8b 07             	mov    (%r15),%rax
    497d:	8b 70 34             	mov    0x34(%rax),%esi
    4980:	8b 85 74 ff ff ff    	mov    -0x8c(%rbp),%eax
    4986:	50                   	push   %rax
    4987:	48 8b bd 78 ff ff ff 	mov    -0x88(%rbp),%rdi
    498e:	e8 dd eb ff ff       	call   3570 <ctnetlink_fill_info>
    4993:	5a                   	pop    %rdx
    4994:	85 c0                	test   %eax,%eax
    4996:	0f 89 6e ff ff ff    	jns    490a <ctnetlink_dump_table+0xda>
    499c:	4d 85 f6             	test   %r14,%r14
    499f:	74 22                	je     49c3 <ctnetlink_dump_table+0x193>
    49a1:	b8 01 00 00 00       	mov    $0x1,%eax
    49a6:	f0 41 0f c1 45 f0    	lock xadd %eax,-0x10(%r13)
    49ac:	85 c0                	test   %eax,%eax
    49ae:	0f 84 f2 02 00 00    	je     4ca6 <ctnetlink_dump_table+0x476>
    49b4:	0f 88 cc 02 00 00    	js     4c86 <ctnetlink_dump_table+0x456>
    49ba:	83 c0 01             	add    $0x1,%eax
    49bd:	0f 88 c3 02 00 00    	js     4c86 <ctnetlink_dump_table+0x456>
    49c3:	4d 89 77 58          	mov    %r14,0x58(%r15)
    49c7:	48 8b 7d 80          	mov    -0x80(%rbp),%rdi
    49cb:	ff 14 25 00 00 00 00 	call   *0x0
    49d2:	be 00 02 00 00       	mov    $0x200,%esi
    49d7:	48 c7 c7 00 00 00 00 	mov    $0x0,%rdi
    49de:	e8 00 00 00 00       	call   49e3 <ctnetlink_dump_table+0x1b3>
    49e3:	48 8b 45 88          	mov    -0x78(%rbp),%rax
    49e7:	48 85 c0             	test   %rax,%rax
    49ea:	74 28                	je     4a14 <ctnetlink_dump_table+0x1e4>
    49ec:	49 3b 47 58          	cmp    0x58(%r15),%rax
    49f0:	0f 84 70 02 00 00    	je     4c66 <ctnetlink_dump_table+0x436>
    49f6:	48 8b 4d 88          	mov    -0x78(%rbp),%rcx
    49fa:	b8 ff ff ff ff       	mov    $0xffffffff,%eax
    49ff:	f0 0f c1 01          	lock xadd %eax,(%rcx)
    4a03:	83 f8 01             	cmp    $0x1,%eax
    4a06:	0f 84 8c 02 00 00    	je     4c98 <ctnetlink_dump_table+0x468>
    4a0c:	85 c0                	test   %eax,%eax
    4a0e:	0f 8e 5f 02 00 00    	jle    4c73 <ctnetlink_dump_table+0x443>
    4a14:	41 be ff ff ff ff    	mov    $0xffffffff,%r14d
    4a1a:	85 db                	test   %ebx,%ebx
    4a1c:	74 61                	je     4a7f <ctnetlink_dump_table+0x24f>
    4a1e:	83 eb 01             	sub    $0x1,%ebx
    4a21:	4c 63 eb             	movslq %ebx,%r13
    4a24:	49 83 fd 07          	cmp    $0x7,%r13
    4a28:	0f 87 13 03 00 00    	ja     4d41 <ctnetlink_dump_table+0x511>
    4a2e:	4e 8b 64 ed 90       	mov    -0x70(%rbp,%r13,8),%r12
    4a33:	41 8b 44 24 08       	mov    0x8(%r12),%eax
    4a38:	48 8b 15 00 00 00 00 	mov    0x0(%rip),%rdx        # 4a3f <ctnetlink_dump_table+0x20f>
    4a3f:	29 d0                	sub    %edx,%eax
    4a41:	85 c0                	test   %eax,%eax
    4a43:	0f 8e 94 01 00 00    	jle    4bdd <ctnetlink_dump_table+0x3ad>
    4a49:	49 83 fd 07          	cmp    $0x7,%r13
    4a4d:	0f 87 da 02 00 00    	ja     4d2d <ctnetlink_dump_table+0x4fd>
    4a53:	4d 85 e4             	test   %r12,%r12
    4a56:	74 c2                	je     4a1a <ctnetlink_dump_table+0x1ea>
    4a58:	44 89 f0             	mov    %r14d,%eax
    4a5b:	f0 41 0f c1 04 24    	lock xadd %eax,(%r12)
    4a61:	83 f8 01             	cmp    $0x1,%eax
    4a64:	0f 84 af 01 00 00    	je     4c19 <ctnetlink_dump_table+0x3e9>
    4a6a:	85 c0                	test   %eax,%eax
    4a6c:	7f ac                	jg     4a1a <ctnetlink_dump_table+0x1ea>
    4a6e:	be 03 00 00 00       	mov    $0x3,%esi
    4a73:	4c 89 e7             	mov    %r12,%rdi
    4a76:	e8 00 00 00 00       	call   4a7b <ctnetlink_dump_table+0x24b>
    4a7b:	85 db                	test   %ebx,%ebx
    4a7d:	75 9f                	jne    4a1e <ctnetlink_dump_table+0x1ee>
    4a7f:	48 8b 4d d0          	mov    -0x30(%rbp),%rcx
    4a83:	65 48 33 0c 25 28 00 	xor    %gs:0x28,%rcx
    4a8a:	00 00 
    4a8c:	48 8b 85 78 ff ff ff 	mov    -0x88(%rbp),%rax
    4a93:	8b 40 70             	mov    0x70(%rax),%eax
    4a96:	0f 85 44 02 00 00    	jne    4ce0 <ctnetlink_dump_table+0x4b0>
    4a9c:	48 8d 65 d8          	lea    -0x28(%rbp),%rsp
    4aa0:	5b                   	pop    %rbx
    4aa1:	41 5c                	pop    %r12
    4aa3:	41 5d                	pop    %r13
    4aa5:	41 5e                	pop    %r14
    4aa7:	41 5f                	pop    %r15
    4aa9:	5d                   	pop    %rbp
    4aaa:	e9 00 00 00 00       	jmp    4aaf <ctnetlink_dump_table+0x27f>
    4aaf:	83 fb 07             	cmp    $0x7,%ebx
    4ab2:	0f 8f 52 fe ff ff    	jg     490a <ctnetlink_dump_table+0xda>
    4ab8:	41 8b 55 f0          	mov    -0x10(%r13),%edx
    4abc:	85 d2                	test   %edx,%edx
    4abe:	0f 84 46 fe ff ff    	je     490a <ctnetlink_dump_table+0xda>
    4ac4:	8d 4a 01             	lea    0x1(%rdx),%ecx
    4ac7:	89 d0                	mov    %edx,%eax
    4ac9:	f0 41 0f b1 0e       	lock cmpxchg %ecx,(%r14)
    4ace:	0f 85 52 01 00 00    	jne    4c26 <ctnetlink_dump_table+0x3f6>
    4ad4:	85 d2                	test   %edx,%edx
    4ad6:	0f 88 f2 00 00 00    	js     4bce <ctnetlink_dump_table+0x39e>
    4adc:	85 c9                	test   %ecx,%ecx
    4ade:	0f 88 ea 00 00 00    	js     4bce <ctnetlink_dump_table+0x39e>
    4ae4:	8d 43 01             	lea    0x1(%rbx),%eax
    4ae7:	48 63 db             	movslq %ebx,%rbx
    4aea:	48 83 fb 07          	cmp    $0x7,%rbx
    4aee:	0f 87 05 02 00 00    	ja     4cf9 <ctnetlink_dump_table+0x4c9>
    4af4:	4d 8b 6d 00          	mov    0x0(%r13),%r13
    4af8:	4c 89 74 dd 90       	mov    %r14,-0x70(%rbp,%rbx,8)
    4afd:	89 c3                	mov    %eax,%ebx
    4aff:	41 f6 c5 01          	test   $0x1,%r13b
    4b03:	0f 84 0f fe ff ff    	je     4918 <ctnetlink_dump_table+0xe8>
    4b09:	48 8b 7d 80          	mov    -0x80(%rbp),%rdi
    4b0d:	ff 14 25 00 00 00 00 	call   *0x0
    4b14:	49 83 7f 58 00       	cmpq   $0x0,0x58(%r15)
    4b19:	0f 84 27 01 00 00    	je     4c46 <ctnetlink_dump_table+0x416>
    4b1f:	49 c7 47 58 00 00 00 	movq   $0x0,0x58(%r15)
    4b26:	00 
    4b27:	85 db                	test   %ebx,%ebx
    4b29:	0f 84 78 fd ff ff    	je     48a7 <ctnetlink_dump_table+0x77>
    4b2f:	83 eb 01             	sub    $0x1,%ebx
    4b32:	4c 63 f3             	movslq %ebx,%r14
    4b35:	49 83 fe 07          	cmp    $0x7,%r14
    4b39:	0f 87 a6 01 00 00    	ja     4ce5 <ctnetlink_dump_table+0x4b5>
    4b3f:	4e 8b 6c f5 90       	mov    -0x70(%rbp,%r14,8),%r13
    4b44:	41 8b 45 08          	mov    0x8(%r13),%eax
    4b48:	48 8b 15 00 00 00 00 	mov    0x0(%rip),%rdx        # 4b4f <ctnetlink_dump_table+0x31f>
    4b4f:	29 d0                	sub    %edx,%eax
    4b51:	85 c0                	test   %eax,%eax
    4b53:	7e 3d                	jle    4b92 <ctnetlink_dump_table+0x362>
    4b55:	49 83 fe 07          	cmp    $0x7,%r14
    4b59:	0f 87 59 01 00 00    	ja     4cb8 <ctnetlink_dump_table+0x488>
    4b5f:	4d 85 ed             	test   %r13,%r13
    4b62:	0f 84 37 fd ff ff    	je     489f <ctnetlink_dump_table+0x6f>
    4b68:	b8 ff ff ff ff       	mov    $0xffffffff,%eax
    4b6d:	f0 41 0f c1 45 00    	lock xadd %eax,0x0(%r13)
    4b73:	83 f8 01             	cmp    $0x1,%eax
    4b76:	74 49                	je     4bc1 <ctnetlink_dump_table+0x391>
    4b78:	85 c0                	test   %eax,%eax
    4b7a:	0f 8f 1f fd ff ff    	jg     489f <ctnetlink_dump_table+0x6f>
    4b80:	be 03 00 00 00       	mov    $0x3,%esi
    4b85:	4c 89 ef             	mov    %r13,%rdi
    4b88:	e8 00 00 00 00       	call   4b8d <ctnetlink_dump_table+0x35d>
    4b8d:	e9 0d fd ff ff       	jmp    489f <ctnetlink_dump_table+0x6f>
    4b92:	49 8b 85 80 00 00 00 	mov    0x80(%r13),%rax
    4b99:	a8 08                	test   $0x8,%al
    4b9b:	74 b8                	je     4b55 <ctnetlink_dump_table+0x325>
    4b9d:	49 8b 85 80 00 00 00 	mov    0x80(%r13),%rax
    4ba4:	f6 c4 02             	test   $0x2,%ah
    4ba7:	75 ac                	jne    4b55 <ctnetlink_dump_table+0x325>
    4ba9:	49 83 fe 07          	cmp    $0x7,%r14
    4bad:	0f 87 a2 01 00 00    	ja     4d55 <ctnetlink_dump_table+0x525>
    4bb3:	31 d2                	xor    %edx,%edx
    4bb5:	31 f6                	xor    %esi,%esi
    4bb7:	4c 89 ef             	mov    %r13,%rdi
    4bba:	e8 00 00 00 00       	call   4bbf <ctnetlink_dump_table+0x38f>
    4bbf:	eb 94                	jmp    4b55 <ctnetlink_dump_table+0x325>
    4bc1:	4c 89 ef             	mov    %r13,%rdi
    4bc4:	e8 00 00 00 00       	call   4bc9 <ctnetlink_dump_table+0x399>
    4bc9:	e9 d1 fc ff ff       	jmp    489f <ctnetlink_dump_table+0x6f>
    4bce:	31 f6                	xor    %esi,%esi
    4bd0:	4c 89 f7             	mov    %r14,%rdi
    4bd3:	e8 00 00 00 00       	call   4bd8 <ctnetlink_dump_table+0x3a8>
    4bd8:	e9 07 ff ff ff       	jmp    4ae4 <ctnetlink_dump_table+0x2b4>
    4bdd:	49 8b 84 24 80 00 00 	mov    0x80(%r12),%rax
    4be4:	00 
    4be5:	a8 08                	test   $0x8,%al
    4be7:	0f 84 5c fe ff ff    	je     4a49 <ctnetlink_dump_table+0x219>
    4bed:	49 8b 84 24 80 00 00 	mov    0x80(%r12),%rax
    4bf4:	00 
    4bf5:	f6 c4 02             	test   $0x2,%ah
    4bf8:	0f 85 4b fe ff ff    	jne    4a49 <ctnetlink_dump_table+0x219>
    4bfe:	49 83 fd 07          	cmp    $0x7,%r13
    4c02:	0f 87 11 01 00 00    	ja     4d19 <ctnetlink_dump_table+0x4e9>
    4c08:	31 d2                	xor    %edx,%edx
    4c0a:	31 f6                	xor    %esi,%esi
    4c0c:	4c 89 e7             	mov    %r12,%rdi
    4c0f:	e8 00 00 00 00       	call   4c14 <ctnetlink_dump_table+0x3e4>
    4c14:	e9 30 fe ff ff       	jmp    4a49 <ctnetlink_dump_table+0x219>
    4c19:	4c 89 e7             	mov    %r12,%rdi
    4c1c:	e8 00 00 00 00       	call   4c21 <ctnetlink_dump_table+0x3f1>
    4c21:	e9 f4 fd ff ff       	jmp    4a1a <ctnetlink_dump_table+0x1ea>
    4c26:	89 c2                	mov    %eax,%edx
    4c28:	e9 8f fe ff ff       	jmp    4abc <ctnetlink_dump_table+0x28c>
    4c2d:	31 db                	xor    %ebx,%ebx
    4c2f:	e9 d5 fe ff ff       	jmp    4b09 <ctnetlink_dump_table+0x2d9>
    4c34:	48 8b 7d 80          	mov    -0x80(%rbp),%rdi
    4c38:	ff 14 25 00 00 00 00 	call   *0x0
    4c3f:	31 db                	xor    %ebx,%ebx
    4c41:	e9 8c fd ff ff       	jmp    49d2 <ctnetlink_dump_table+0x1a2>
    4c46:	49 8b 47 50          	mov    0x50(%r15),%rax
    4c4a:	8b 15 00 00 00 00    	mov    0x0(%rip),%edx        # 4c50 <ctnetlink_dump_table+0x420>
    4c50:	48 83 c0 01          	add    $0x1,%rax
    4c54:	49 89 47 50          	mov    %rax,0x50(%r15)
    4c58:	48 39 d0             	cmp    %rdx,%rax
    4c5b:	0f 8c 3e fc ff ff    	jl     489f <ctnetlink_dump_table+0x6f>
    4c61:	e9 6c fd ff ff       	jmp    49d2 <ctnetlink_dump_table+0x1a2>
    4c66:	49 c7 47 58 00 00 00 	movq   $0x0,0x58(%r15)
    4c6d:	00 
    4c6e:	e9 83 fd ff ff       	jmp    49f6 <ctnetlink_dump_table+0x1c6>
    4c73:	48 8b 7d 88          	mov    -0x78(%rbp),%rdi
    4c77:	be 03 00 00 00       	mov    $0x3,%esi
    4c7c:	e8 00 00 00 00       	call   4c81 <ctnetlink_dump_table+0x451>
    4c81:	e9 8e fd ff ff       	jmp    4a14 <ctnetlink_dump_table+0x1e4>
    4c86:	be 01 00 00 00       	mov    $0x1,%esi
    4c8b:	4c 89 f7             	mov    %r14,%rdi
    4c8e:	e8 00 00 00 00       	call   4c93 <ctnetlink_dump_table+0x463>
    4c93:	e9 2b fd ff ff       	jmp    49c3 <ctnetlink_dump_table+0x193>
    4c98:	48 8b 7d 88          	mov    -0x78(%rbp),%rdi
    4c9c:	e8 00 00 00 00       	call   4ca1 <ctnetlink_dump_table+0x471>
    4ca1:	e9 6e fd ff ff       	jmp    4a14 <ctnetlink_dump_table+0x1e4>
    4ca6:	be 02 00 00 00       	mov    $0x2,%esi
    4cab:	4c 89 f7             	mov    %r14,%rdi
    4cae:	e8 00 00 00 00       	call   4cb3 <ctnetlink_dump_table+0x483>
    4cb3:	e9 0b fd ff ff       	jmp    49c3 <ctnetlink_dump_table+0x193>
    4cb8:	4c 89 f6             	mov    %r14,%rsi
    4cbb:	48 c7 c7 00 00 00 00 	mov    $0x0,%rdi
    4cc2:	e8 00 00 00 00       	call   4cc7 <ctnetlink_dump_table+0x497>
    4cc7:	e9 93 fe ff ff       	jmp    4b5f <ctnetlink_dump_table+0x32f>
    4ccc:	48 89 de             	mov    %rbx,%rsi
    4ccf:	48 c7 c7 00 00 00 00 	mov    $0x0,%rdi
    4cd6:	e8 00 00 00 00       	call   4cdb <ctnetlink_dump_table+0x4ab>
    4cdb:	e9 eb fb ff ff       	jmp    48cb <ctnetlink_dump_table+0x9b>
    4ce0:	e8 00 00 00 00       	call   4ce5 <ctnetlink_dump_table+0x4b5>
    4ce5:	4c 89 f6             	mov    %r14,%rsi
    4ce8:	48 c7 c7 00 00 00 00 	mov    $0x0,%rdi
    4cef:	e8 00 00 00 00       	call   4cf4 <ctnetlink_dump_table+0x4c4>
    4cf4:	e9 46 fe ff ff       	jmp    4b3f <ctnetlink_dump_table+0x30f>
    4cf9:	48 89 de             	mov    %rbx,%rsi
    4cfc:	48 c7 c7 00 00 00 00 	mov    $0x0,%rdi
    4d03:	89 85 70 ff ff ff    	mov    %eax,-0x90(%rbp)
    4d09:	e8 00 00 00 00       	call   4d0e <ctnetlink_dump_table+0x4de>
    4d0e:	8b 85 70 ff ff ff    	mov    -0x90(%rbp),%eax
    4d14:	e9 db fd ff ff       	jmp    4af4 <ctnetlink_dump_table+0x2c4>
    4d19:	4c 89 ee             	mov    %r13,%rsi
    4d1c:	48 c7 c7 00 00 00 00 	mov    $0x0,%rdi
    4d23:	e8 00 00 00 00       	call   4d28 <ctnetlink_dump_table+0x4f8>
    4d28:	e9 db fe ff ff       	jmp    4c08 <ctnetlink_dump_table+0x3d8>
    4d2d:	4c 89 ee             	mov    %r13,%rsi
    4d30:	48 c7 c7 00 00 00 00 	mov    $0x0,%rdi
    4d37:	e8 00 00 00 00       	call   4d3c <ctnetlink_dump_table+0x50c>
    4d3c:	e9 12 fd ff ff       	jmp    4a53 <ctnetlink_dump_table+0x223>
    4d41:	4c 89 ee             	mov    %r13,%rsi
    4d44:	48 c7 c7 00 00 00 00 	mov    $0x0,%rdi
    4d4b:	e8 00 00 00 00       	call   4d50 <ctnetlink_dump_table+0x520>
    4d50:	e9 d9 fc ff ff       	jmp    4a2e <ctnetlink_dump_table+0x1fe>
    4d55:	4c 89 f6             	mov    %r14,%rsi
    4d58:	48 c7 c7 00 00 00 00 	mov    $0x0,%rdi
    4d5f:	e8 00 00 00 00       	call   4d64 <ctnetlink_dump_table+0x534>
    4d64:	e9 4a fe ff ff       	jmp    4bb3 <ctnetlink_dump_table+0x383>
    4d69:	0f 1f 80 00 00 00 00 	nopl   0x0(%rax)

0000000000004d70 <ctnetlink_dump_list>:
    4d70:	e8 00 00 00 00       	call   4d75 <ctnetlink_dump_list+0x5>
    4d75:	55                   	push   %rbp
    4d76:	31 c0                	xor    %eax,%eax
    4d78:	48 89 e5             	mov    %rsp,%rbp
    4d7b:	41 57                	push   %r15
    4d7d:	41 56                	push   %r14
    4d7f:	41 55                	push   %r13
    4d81:	41 54                	push   %r12
    4d83:	53                   	push   %rbx
    4d84:	48 83 ec 38          	sub    $0x38,%rsp
    4d88:	48 83 7e 60 00       	cmpq   $0x0,0x60(%rsi)
    4d8d:	88 55 c7             	mov    %dl,-0x39(%rbp)
    4d90:	75 75                	jne    4e07 <ctnetlink_dump_list+0x97>
    4d92:	48 8b 56 50          	mov    0x50(%rsi),%rdx
    4d96:	48 8b 46 58          	mov    0x58(%rsi),%rax
    4d9a:	49 89 fd             	mov    %rdi,%r13
    4d9d:	49 89 f6             	mov    %rsi,%r14
    4da0:	39 15 00 00 00 00    	cmp    %edx,0x0(%rip)        # 4da6 <ctnetlink_dump_list+0x36>
    4da6:	48 89 45 c8          	mov    %rax,-0x38(%rbp)
    4daa:	89 d0                	mov    %edx,%eax
    4dac:	89 55 c0             	mov    %edx,-0x40(%rbp)
    4daf:	76 3f                	jbe    4df0 <ctnetlink_dump_list+0x80>
    4db1:	48 8b 56 08          	mov    0x8(%rsi),%rdx
    4db5:	4d 89 ee             	mov    %r13,%r14
    4db8:	49 89 f7             	mov    %rsi,%r15
    4dbb:	44 0f b6 62 10       	movzbl 0x10(%rdx),%r12d
    4dc0:	48 8b 57 18          	mov    0x18(%rdi),%rdx
    4dc4:	48 8b 7a 30          	mov    0x30(%rdx),%rdi
    4dc8:	45 89 e5             	mov    %r12d,%r13d
    4dcb:	48 89 7d a8          	mov    %rdi,-0x58(%rbp)
    4dcf:	48 0f a3 05 00 00 00 	bt     %rax,0x0(%rip)        # 4dd7 <ctnetlink_dump_list+0x67>
    4dd6:	00 
    4dd7:	72 41                	jb     4e1a <ctnetlink_dump_list+0xaa>
    4dd9:	83 45 c0 01          	addl   $0x1,-0x40(%rbp)
    4ddd:	8b 7d c0             	mov    -0x40(%rbp),%edi
    4de0:	39 3d 00 00 00 00    	cmp    %edi,0x0(%rip)        # 4de6 <ctnetlink_dump_list+0x76>
    4de6:	89 f8                	mov    %edi,%eax
    4de8:	77 e5                	ja     4dcf <ctnetlink_dump_list+0x5f>
    4dea:	4d 89 f5             	mov    %r14,%r13
    4ded:	4d 89 fe             	mov    %r15,%r14
    4df0:	48 83 7d c8 00       	cmpq   $0x0,-0x38(%rbp)
    4df5:	49 c7 46 60 01 00 00 	movq   $0x1,0x60(%r14)
    4dfc:	00 
    4dfd:	0f 85 83 01 00 00    	jne    4f86 <ctnetlink_dump_list+0x216>
    4e03:	41 8b 45 70          	mov    0x70(%r13),%eax
    4e07:	48 8d 65 d8          	lea    -0x28(%rbp),%rsp
    4e0b:	5b                   	pop    %rbx
    4e0c:	41 5c                	pop    %r12
    4e0e:	41 5d                	pop    %r13
    4e10:	41 5e                	pop    %r14
    4e12:	41 5f                	pop    %r15
    4e14:	5d                   	pop    %rbp
    4e15:	e9 00 00 00 00       	jmp    4e1a <ctnetlink_dump_list+0xaa>
    4e1a:	48 8b 45 a8          	mov    -0x58(%rbp),%rax
    4e1e:	48 8b 80 90 0a 00 00 	mov    0xa90(%rax),%rax
    4e25:	48 89 c3             	mov    %rax,%rbx
    4e28:	48 89 45 d0          	mov    %rax,-0x30(%rbp)
    4e2c:	48 63 45 c0          	movslq -0x40(%rbp),%rax
    4e30:	48 89 45 b8          	mov    %rax,-0x48(%rbp)
    4e34:	48 3d ff 1f 00 00    	cmp    $0x1fff,%rax
    4e3a:	0f 87 88 01 00 00    	ja     4fc8 <ctnetlink_dump_list+0x258>
    4e40:	48 8b 45 b8          	mov    -0x48(%rbp),%rax
    4e44:	48 03 1c c5 00 00 00 	add    0x0(,%rax,8),%rbx
    4e4b:	00 
    4e4c:	48 89 df             	mov    %rbx,%rdi
    4e4f:	48 89 5d a0          	mov    %rbx,-0x60(%rbp)
    4e53:	e8 00 00 00 00       	call   4e58 <ctnetlink_dump_list+0xe8>
    4e58:	48 8d 43 10          	lea    0x10(%rbx),%rax
    4e5c:	48 8d 53 08          	lea    0x8(%rbx),%rdx
    4e60:	80 7d c7 00          	cmpb   $0x0,-0x39(%rbp)
    4e64:	48 0f 44 c2          	cmove  %rdx,%rax
    4e68:	49 8b 4f 58          	mov    0x58(%r15),%rcx
    4e6c:	48 8b 18             	mov    (%rax),%rbx
    4e6f:	48 89 45 b0          	mov    %rax,-0x50(%rbp)
    4e73:	f6 c3 01             	test   $0x1,%bl
    4e76:	0f 85 85 00 00 00    	jne    4f01 <ctnetlink_dump_list+0x191>
    4e7c:	49 c7 c4 f0 ff ff ff 	mov    $0xfffffffffffffff0,%r12
    4e83:	eb 12                	jmp    4e97 <ctnetlink_dump_list+0x127>
    4e85:	4c 39 45 c8          	cmp    %r8,-0x38(%rbp)
    4e89:	0f 84 9f 00 00 00    	je     4f2e <ctnetlink_dump_list+0x1be>
    4e8f:	48 8b 1b             	mov    (%rbx),%rbx
    4e92:	f6 c3 01             	test   $0x1,%bl
    4e95:	75 6a                	jne    4f01 <ctnetlink_dump_list+0x191>
    4e97:	0f b6 53 37          	movzbl 0x37(%rbx),%edx
    4e9b:	4d 89 e0             	mov    %r12,%r8
    4e9e:	48 8d 04 d5 00 00 00 	lea    0x0(,%rdx,8),%rax
    4ea5:	00 
    4ea6:	48 29 d0             	sub    %rdx,%rax
    4ea9:	48 c1 e0 03          	shl    $0x3,%rax
    4ead:	49 29 c0             	sub    %rax,%r8
    4eb0:	49 01 d8             	add    %rbx,%r8
    4eb3:	45 84 ed             	test   %r13b,%r13b
    4eb6:	74 0b                	je     4ec3 <ctnetlink_dump_list+0x153>
    4eb8:	41 0f b6 c5          	movzbl %r13b,%eax
    4ebc:	66 41 3b 40 32       	cmp    0x32(%r8),%ax
    4ec1:	75 cc                	jne    4e8f <ctnetlink_dump_list+0x11f>
    4ec3:	48 85 c9             	test   %rcx,%rcx
    4ec6:	75 bd                	jne    4e85 <ctnetlink_dump_list+0x115>
    4ec8:	49 8b 47 08          	mov    0x8(%r15),%rax
    4ecc:	44 0f b6 4d c7       	movzbl -0x39(%rbp),%r9d
    4ed1:	4c 89 f7             	mov    %r14,%rdi
    4ed4:	4c 89 45 d0          	mov    %r8,-0x30(%rbp)
    4ed8:	8b 50 08             	mov    0x8(%rax),%edx
    4edb:	0f b6 48 04          	movzbl 0x4(%rax),%ecx
    4edf:	49 8b 07             	mov    (%r15),%rax
    4ee2:	8b 70 34             	mov    0x34(%rax),%esi
    4ee5:	6a 00                	push   $0x0
    4ee7:	e8 84 e6 ff ff       	call   3570 <ctnetlink_fill_info>
    4eec:	4c 8b 45 d0          	mov    -0x30(%rbp),%r8
    4ef0:	5a                   	pop    %rdx
    4ef1:	85 c0                	test   %eax,%eax
    4ef3:	78 43                	js     4f38 <ctnetlink_dump_list+0x1c8>
    4ef5:	48 8b 1b             	mov    (%rbx),%rbx
    4ef8:	49 8b 4f 58          	mov    0x58(%r15),%rcx
    4efc:	f6 c3 01             	test   $0x1,%bl
    4eff:	74 96                	je     4e97 <ctnetlink_dump_list+0x127>
    4f01:	48 85 c9             	test   %rcx,%rcx
    4f04:	74 1a                	je     4f20 <ctnetlink_dump_list+0x1b0>
    4f06:	48 8b 45 b0          	mov    -0x50(%rbp),%rax
    4f0a:	49 c7 47 58 00 00 00 	movq   $0x0,0x58(%r15)
    4f11:	00 
    4f12:	31 c9                	xor    %ecx,%ecx
    4f14:	48 8b 18             	mov    (%rax),%rbx
    4f17:	f6 c3 01             	test   $0x1,%bl
    4f1a:	0f 84 5c ff ff ff    	je     4e7c <ctnetlink_dump_list+0x10c>
    4f20:	48 8b 7d a0          	mov    -0x60(%rbp),%rdi
    4f24:	e8 00 00 00 00       	call   4f29 <ctnetlink_dump_list+0x1b9>
    4f29:	e9 ab fe ff ff       	jmp    4dd9 <ctnetlink_dump_list+0x69>
    4f2e:	49 c7 47 58 00 00 00 	movq   $0x0,0x58(%r15)
    4f35:	00 
    4f36:	eb 90                	jmp    4ec8 <ctnetlink_dump_list+0x158>
    4f38:	41 8b 10             	mov    (%r8),%edx
    4f3b:	85 d2                	test   %edx,%edx
    4f3d:	74 b6                	je     4ef5 <ctnetlink_dump_list+0x185>
    4f3f:	8d 4a 01             	lea    0x1(%rdx),%ecx
    4f42:	89 d0                	mov    %edx,%eax
    4f44:	f0 41 0f b1 08       	lock cmpxchg %ecx,(%r8)
    4f49:	75 76                	jne    4fc1 <ctnetlink_dump_list+0x251>
    4f4b:	4d 89 f5             	mov    %r14,%r13
    4f4e:	4d 89 fe             	mov    %r15,%r14
    4f51:	4d 89 c7             	mov    %r8,%r15
    4f54:	85 d2                	test   %edx,%edx
    4f56:	78 04                	js     4f5c <ctnetlink_dump_list+0x1ec>
    4f58:	85 c9                	test   %ecx,%ecx
    4f5a:	79 0a                	jns    4f66 <ctnetlink_dump_list+0x1f6>
    4f5c:	31 f6                	xor    %esi,%esi
    4f5e:	4c 89 ff             	mov    %r15,%rdi
    4f61:	e8 00 00 00 00       	call   4f66 <ctnetlink_dump_list+0x1f6>
    4f66:	48 8b 45 b8          	mov    -0x48(%rbp),%rax
    4f6a:	48 8b 7d a0          	mov    -0x60(%rbp),%rdi
    4f6e:	4d 89 7e 58          	mov    %r15,0x58(%r14)
    4f72:	49 89 46 50          	mov    %rax,0x50(%r14)
    4f76:	e8 00 00 00 00       	call   4f7b <ctnetlink_dump_list+0x20b>
    4f7b:	48 83 7d c8 00       	cmpq   $0x0,-0x38(%rbp)
    4f80:	0f 84 7d fe ff ff    	je     4e03 <ctnetlink_dump_list+0x93>
    4f86:	48 8b 7d c8          	mov    -0x38(%rbp),%rdi
    4f8a:	b8 ff ff ff ff       	mov    $0xffffffff,%eax
    4f8f:	f0 0f c1 07          	lock xadd %eax,(%rdi)
    4f93:	83 f8 01             	cmp    $0x1,%eax
    4f96:	74 1b                	je     4fb3 <ctnetlink_dump_list+0x243>
    4f98:	85 c0                	test   %eax,%eax
    4f9a:	0f 8f 63 fe ff ff    	jg     4e03 <ctnetlink_dump_list+0x93>
    4fa0:	48 8b 7d c8          	mov    -0x38(%rbp),%rdi
    4fa4:	be 03 00 00 00       	mov    $0x3,%esi
    4fa9:	e8 00 00 00 00       	call   4fae <ctnetlink_dump_list+0x23e>
    4fae:	e9 50 fe ff ff       	jmp    4e03 <ctnetlink_dump_list+0x93>
    4fb3:	48 8b 7d c8          	mov    -0x38(%rbp),%rdi
    4fb7:	e8 00 00 00 00       	call   4fbc <ctnetlink_dump_list+0x24c>
    4fbc:	e9 42 fe ff ff       	jmp    4e03 <ctnetlink_dump_list+0x93>
    4fc1:	89 c2                	mov    %eax,%edx
    4fc3:	e9 73 ff ff ff       	jmp    4f3b <ctnetlink_dump_list+0x1cb>
    4fc8:	48 89 c6             	mov    %rax,%rsi
    4fcb:	48 c7 c7 00 00 00 00 	mov    $0x0,%rdi
    4fd2:	e8 00 00 00 00       	call   4fd7 <ctnetlink_dump_list+0x267>
    4fd7:	e9 64 fe ff ff       	jmp    4e40 <ctnetlink_dump_list+0xd0>
    4fdc:	0f 1f 40 00          	nopl   0x0(%rax)

0000000000004fe0 <ctnetlink_dump_unconfirmed>:
    4fe0:	e8 00 00 00 00       	call   4fe5 <ctnetlink_dump_unconfirmed+0x5>
    4fe5:	55                   	push   %rbp
    4fe6:	31 d2                	xor    %edx,%edx
    4fe8:	48 89 e5             	mov    %rsp,%rbp
    4feb:	e8 80 fd ff ff       	call   4d70 <ctnetlink_dump_list>
    4ff0:	5d                   	pop    %rbp
    4ff1:	e9 00 00 00 00       	jmp    4ff6 <ctnetlink_dump_unconfirmed+0x16>
    4ff6:	66 2e 0f 1f 84 00 00 	cs nopw 0x0(%rax,%rax,1)
    4ffd:	00 00 00 

0000000000005000 <ctnetlink_dump_dying>:
    5000:	e8 00 00 00 00       	call   5005 <ctnetlink_dump_dying+0x5>
    5005:	55                   	push   %rbp
    5006:	ba 01 00 00 00       	mov    $0x1,%edx
    500b:	48 89 e5             	mov    %rsp,%rbp
    500e:	e8 5d fd ff ff       	call   4d70 <ctnetlink_dump_list>
    5013:	5d                   	pop    %rbp
    5014:	e9 00 00 00 00       	jmp    5019 <ctnetlink_dump_dying+0x19>
    5019:	0f 1f 80 00 00 00 00 	nopl   0x0(%rax)

0000000000005020 <ctnetlink_get_conntrack>:
    5020:	e8 00 00 00 00       	call   5025 <ctnetlink_get_conntrack+0x5>
    5025:	55                   	push   %rbp
    5026:	48 89 e5             	mov    %rsp,%rbp
    5029:	41 57                	push   %r15
    502b:	41 56                	push   %r14
    502d:	41 55                	push   %r13
    502f:	41 54                	push   %r12
    5031:	49 89 fc             	mov    %rdi,%r12
    5034:	48 89 d7             	mov    %rdx,%rdi
    5037:	53                   	push   %rbx
    5038:	48 89 f3             	mov    %rsi,%rbx
    503b:	48 83 ec 60          	sub    $0x60,%rsp
    503f:	48 8b 56 10          	mov    0x10(%rsi),%rdx
    5043:	65 48 8b 04 25 28 00 	mov    %gs:0x28,%rax
    504a:	00 00 
    504c:	48 89 45 d0          	mov    %rax,-0x30(%rbp)
    5050:	31 c0                	xor    %eax,%eax
    5052:	66 f7 42 06 00 03    	testw  $0x300,0x6(%rdx)
    5058:	0f 85 6a 01 00 00    	jne    51c8 <ctnetlink_get_conntrack+0x1a8>
    505e:	48 8b 46 18          	mov    0x18(%rsi),%rax
    5062:	0f b6 08             	movzbl (%rax),%ecx
    5065:	48 8b 87 90 00 00 00 	mov    0x90(%rdi),%rax
    506c:	c7 85 78 ff ff ff 00 	movl   $0x3000000,-0x88(%rbp)
    5073:	00 00 03 
    5076:	48 85 c0             	test   %rax,%rax
    5079:	74 0f                	je     508a <ctnetlink_get_conntrack+0x6a>
    507b:	0f b7 40 04          	movzwl 0x4(%rax),%eax
    507f:	66 c1 c0 08          	rol    $0x8,%ax
    5083:	66 89 85 78 ff ff ff 	mov    %ax,-0x88(%rbp)
    508a:	48 83 7f 08 00       	cmpq   $0x0,0x8(%rdi)
    508f:	0f 84 02 01 00 00    	je     5197 <ctnetlink_get_conntrack+0x177>
    5095:	4c 8d ad 78 ff ff ff 	lea    -0x88(%rbp),%r13
    509c:	4c 8d 75 a8          	lea    -0x58(%rbp),%r14
    50a0:	41 b9 ff 0f 00 00    	mov    $0xfff,%r9d
    50a6:	ba 01 00 00 00       	mov    $0x1,%edx
    50ab:	4d 89 e8             	mov    %r13,%r8
    50ae:	4c 89 f6             	mov    %r14,%rsi
    50b1:	e8 7a c1 ff ff       	call   1230 <ctnetlink_parse_tuple_filter>
    50b6:	85 c0                	test   %eax,%eax
    50b8:	0f 88 b3 00 00 00    	js     5171 <ctnetlink_get_conntrack+0x151>
    50be:	48 8b 3b             	mov    (%rbx),%rdi
    50c1:	4c 89 f2             	mov    %r14,%rdx
    50c4:	4c 89 ee             	mov    %r13,%rsi
    50c7:	e8 00 00 00 00       	call   50cc <ctnetlink_get_conntrack+0xac>
    50cc:	48 85 c0             	test   %rax,%rax
    50cf:	0f 84 59 01 00 00    	je     522e <ctnetlink_get_conntrack+0x20e>
    50d5:	0f b6 48 37          	movzbl 0x37(%rax),%ecx
    50d9:	be c0 0c 00 00       	mov    $0xcc0,%esi
    50de:	bf c0 0e 00 00       	mov    $0xec0,%edi
    50e3:	48 8d 14 cd 00 00 00 	lea    0x0(,%rcx,8),%rdx
    50ea:	00 
    50eb:	48 29 ca             	sub    %rcx,%rdx
    50ee:	b9 ff ff ff ff       	mov    $0xffffffff,%ecx
    50f3:	48 c1 e2 03          	shl    $0x3,%rdx
    50f7:	48 29 d0             	sub    %rdx,%rax
    50fa:	31 d2                	xor    %edx,%edx
    50fc:	4c 8d 70 f0          	lea    -0x10(%rax),%r14
    5100:	e8 00 00 00 00       	call   5105 <ctnetlink_get_conntrack+0xe5>
    5105:	49 89 c5             	mov    %rax,%r13
    5108:	48 85 c0             	test   %rax,%rax
    510b:	0f 84 27 01 00 00    	je     5238 <ctnetlink_get_conntrack+0x218>
    5111:	48 8b 43 10          	mov    0x10(%rbx),%rax
    5115:	41 8b 74 24 34       	mov    0x34(%r12),%esi
    511a:	4d 89 f0             	mov    %r14,%r8
    511d:	4c 89 ef             	mov    %r13,%rdi
    5120:	41 b9 01 00 00 00    	mov    $0x1,%r9d
    5126:	0f b6 48 04          	movzbl 0x4(%rax),%ecx
    512a:	8b 50 08             	mov    0x8(%rax),%edx
    512d:	6a 00                	push   $0x0
    512f:	e8 3c e4 ff ff       	call   3570 <ctnetlink_fill_info>
    5134:	41 89 c7             	mov    %eax,%r15d
    5137:	58                   	pop    %rax
    5138:	4d 85 f6             	test   %r14,%r14
    513b:	74 1b                	je     5158 <ctnetlink_get_conntrack+0x138>
    513d:	b8 ff ff ff ff       	mov    $0xffffffff,%eax
    5142:	f0 41 0f c1 06       	lock xadd %eax,(%r14)
    5147:	83 f8 01             	cmp    $0x1,%eax
    514a:	0f 84 bf 00 00 00    	je     520f <ctnetlink_get_conntrack+0x1ef>
    5150:	85 c0                	test   %eax,%eax
    5152:	0f 8e c4 00 00 00    	jle    521c <ctnetlink_get_conntrack+0x1fc>
    5158:	45 85 ff             	test   %r15d,%r15d
    515b:	0f 8e 03 01 00 00    	jle    5264 <ctnetlink_get_conntrack+0x244>
    5161:	41 8b 54 24 34       	mov    0x34(%r12),%edx
    5166:	48 8b 33             	mov    (%rbx),%rsi
    5169:	4c 89 ef             	mov    %r13,%rdi
    516c:	e8 00 00 00 00       	call   5171 <ctnetlink_get_conntrack+0x151>
    5171:	48 8b 5d d0          	mov    -0x30(%rbp),%rbx
    5175:	65 48 33 1c 25 28 00 	xor    %gs:0x28,%rbx
    517c:	00 00 
    517e:	0f 85 fe 00 00 00    	jne    5282 <ctnetlink_get_conntrack+0x262>
    5184:	48 8d 65 d8          	lea    -0x28(%rbp),%rsp
    5188:	5b                   	pop    %rbx
    5189:	41 5c                	pop    %r12
    518b:	41 5d                	pop    %r13
    518d:	41 5e                	pop    %r14
    518f:	41 5f                	pop    %r15
    5191:	5d                   	pop    %rbp
    5192:	e9 00 00 00 00       	jmp    5197 <ctnetlink_get_conntrack+0x177>
    5197:	48 83 7f 10 00       	cmpq   $0x0,0x10(%rdi)
    519c:	0f 84 b8 00 00 00    	je     525a <ctnetlink_get_conntrack+0x23a>
    51a2:	4c 8d ad 78 ff ff ff 	lea    -0x88(%rbp),%r13
    51a9:	4c 8d 75 a8          	lea    -0x58(%rbp),%r14
    51ad:	41 b9 ff 0f 00 00    	mov    $0xfff,%r9d
    51b3:	ba 02 00 00 00       	mov    $0x2,%edx
    51b8:	4d 89 e8             	mov    %r13,%r8
    51bb:	4c 89 f6             	mov    %r14,%rsi
    51be:	e8 6d c0 ff ff       	call   1230 <ctnetlink_parse_tuple_filter>
    51c3:	e9 ee fe ff ff       	jmp    50b6 <ctnetlink_get_conntrack+0x96>
    51c8:	48 89 7d 90          	mov    %rdi,-0x70(%rbp)
    51cc:	48 8b 7e 08          	mov    0x8(%rsi),%rdi
    51d0:	48 8d 8d 78 ff ff ff 	lea    -0x88(%rbp),%rcx
    51d7:	4c 89 e6             	mov    %r12,%rsi
    51da:	48 c7 45 a0 00 00 00 	movq   $0x0,-0x60(%rbp)
    51e1:	00 
    51e2:	48 c7 85 78 ff ff ff 	movq   $0x0,-0x88(%rbp)
    51e9:	00 00 00 00 
    51ed:	48 c7 45 80 00 00 00 	movq   $0x0,-0x80(%rbp)
    51f4:	00 
    51f5:	48 c7 45 88 00 00 00 	movq   $0x0,-0x78(%rbp)
    51fc:	00 
    51fd:	48 c7 45 98 00 00 00 	movq   $0x0,-0x68(%rbp)
    5204:	00 
    5205:	e8 00 00 00 00       	call   520a <ctnetlink_get_conntrack+0x1ea>
    520a:	e9 62 ff ff ff       	jmp    5171 <ctnetlink_get_conntrack+0x151>
    520f:	4c 89 f7             	mov    %r14,%rdi
    5212:	e8 00 00 00 00       	call   5217 <ctnetlink_get_conntrack+0x1f7>
    5217:	e9 3c ff ff ff       	jmp    5158 <ctnetlink_get_conntrack+0x138>
    521c:	be 03 00 00 00       	mov    $0x3,%esi
    5221:	4c 89 f7             	mov    %r14,%rdi
    5224:	e8 00 00 00 00       	call   5229 <ctnetlink_get_conntrack+0x209>
    5229:	e9 2a ff ff ff       	jmp    5158 <ctnetlink_get_conntrack+0x138>
    522e:	b8 fe ff ff ff       	mov    $0xfffffffe,%eax
    5233:	e9 39 ff ff ff       	jmp    5171 <ctnetlink_get_conntrack+0x151>
    5238:	4d 85 f6             	test   %r14,%r14
    523b:	74 13                	je     5250 <ctnetlink_get_conntrack+0x230>
    523d:	b8 ff ff ff ff       	mov    $0xffffffff,%eax
    5242:	f0 41 0f c1 06       	lock xadd %eax,(%r14)
    5247:	83 f8 01             	cmp    $0x1,%eax
    524a:	74 2c                	je     5278 <ctnetlink_get_conntrack+0x258>
    524c:	85 c0                	test   %eax,%eax
    524e:	7e 37                	jle    5287 <ctnetlink_get_conntrack+0x267>
    5250:	b8 f4 ff ff ff       	mov    $0xfffffff4,%eax
    5255:	e9 17 ff ff ff       	jmp    5171 <ctnetlink_get_conntrack+0x151>
    525a:	b8 ea ff ff ff       	mov    $0xffffffea,%eax
    525f:	e9 0d ff ff ff       	jmp    5171 <ctnetlink_get_conntrack+0x151>
    5264:	31 f6                	xor    %esi,%esi
    5266:	4c 89 ef             	mov    %r13,%rdi
    5269:	e8 00 00 00 00       	call   526e <ctnetlink_get_conntrack+0x24e>
    526e:	b8 f4 ff ff ff       	mov    $0xfffffff4,%eax
    5273:	e9 f9 fe ff ff       	jmp    5171 <ctnetlink_get_conntrack+0x151>
    5278:	4c 89 f7             	mov    %r14,%rdi
    527b:	e8 00 00 00 00       	call   5280 <ctnetlink_get_conntrack+0x260>
    5280:	eb ce                	jmp    5250 <ctnetlink_get_conntrack+0x230>
    5282:	e8 00 00 00 00       	call   5287 <ctnetlink_get_conntrack+0x267>
    5287:	be 03 00 00 00       	mov    $0x3,%esi
    528c:	4c 89 f7             	mov    %r14,%rdi
    528f:	e8 00 00 00 00       	call   5294 <ctnetlink_get_conntrack+0x274>
    5294:	b8 f4 ff ff ff       	mov    $0xfffffff4,%eax
    5299:	e9 d3 fe ff ff       	jmp    5171 <ctnetlink_get_conntrack+0x151>
    529e:	66 90                	xchg   %ax,%ax

00000000000052a0 <ctnetlink_dump_exp_ct.isra.0>:
    52a0:	e8 00 00 00 00       	call   52a5 <ctnetlink_dump_exp_ct.isra.0+0x5>
    52a5:	55                   	push   %rbp
    52a6:	41 b9 ff 0f 00 00    	mov    $0xfff,%r9d
    52ac:	48 89 e5             	mov    %rsp,%rbp
    52af:	41 57                	push   %r15
    52b1:	41 56                	push   %r14
    52b3:	4c 8d bd 78 ff ff ff 	lea    -0x88(%rbp),%r15
    52ba:	49 89 d6             	mov    %rdx,%r14
    52bd:	ba 01 00 00 00       	mov    $0x1,%edx
    52c2:	41 55                	push   %r13
    52c4:	49 89 fd             	mov    %rdi,%r13
    52c7:	4c 89 ff             	mov    %r15,%rdi
    52ca:	41 54                	push   %r12
    52cc:	49 89 cc             	mov    %rcx,%r12
    52cf:	b9 06 00 00 00       	mov    $0x6,%ecx
    52d4:	53                   	push   %rbx
    52d5:	4c 89 c3             	mov    %r8,%rbx
    52d8:	45 31 c0             	xor    %r8d,%r8d
    52db:	48 83 ec 70          	sub    $0x70,%rsp
    52df:	48 89 b5 68 ff ff ff 	mov    %rsi,-0x98(%rbp)
    52e6:	48 8d 75 a8          	lea    -0x58(%rbp),%rsi
    52ea:	65 48 8b 04 25 28 00 	mov    %gs:0x28,%rax
    52f1:	00 00 
    52f3:	48 89 45 d0          	mov    %rax,-0x30(%rbp)
    52f7:	31 c0                	xor    %eax,%eax
    52f9:	f3 48 ab             	rep stos %rax,%es:(%rdi)
    52fc:	41 0f b6 4c 24 10    	movzbl 0x10(%r12),%ecx
    5302:	48 89 df             	mov    %rbx,%rdi
    5305:	48 c7 45 80 00 00 00 	movq   $0x0,-0x80(%rbp)
    530c:	00 
    530d:	48 c7 45 88 00 00 00 	movq   $0x0,-0x78(%rbp)
    5314:	00 
    5315:	e8 16 bf ff ff       	call   1230 <ctnetlink_parse_tuple_filter>
    531a:	85 c0                	test   %eax,%eax
    531c:	0f 88 a7 00 00 00    	js     53c9 <ctnetlink_dump_exp_ct.isra.0+0x129>
    5322:	c7 85 74 ff ff ff 00 	movl   $0x3000000,-0x8c(%rbp)
    5329:	00 00 03 
    532c:	48 8b 43 38          	mov    0x38(%rbx),%rax
    5330:	48 85 c0             	test   %rax,%rax
    5333:	74 0f                	je     5344 <ctnetlink_dump_exp_ct.isra.0+0xa4>
    5335:	0f b7 40 04          	movzwl 0x4(%rax),%eax
    5339:	66 c1 c0 08          	rol    $0x8,%ax
    533d:	66 89 85 74 ff ff ff 	mov    %ax,-0x8c(%rbp)
    5344:	48 8d 55 a8          	lea    -0x58(%rbp),%rdx
    5348:	48 8d b5 74 ff ff ff 	lea    -0x8c(%rbp),%rsi
    534f:	4c 89 ef             	mov    %r13,%rdi
    5352:	e8 00 00 00 00       	call   5357 <ctnetlink_dump_exp_ct.isra.0+0xb7>
    5357:	48 85 c0             	test   %rax,%rax
    535a:	0f 84 08 01 00 00    	je     5468 <ctnetlink_dump_exp_ct.isra.0+0x1c8>
    5360:	0f b6 48 37          	movzbl 0x37(%rax),%ecx
    5364:	48 8d 14 cd 00 00 00 	lea    0x0(,%rcx,8),%rdx
    536b:	00 
    536c:	48 29 ca             	sub    %rcx,%rdx
    536f:	48 c1 e2 03          	shl    $0x3,%rdx
    5373:	48 29 d0             	sub    %rdx,%rax
    5376:	48 8b 90 a8 00 00 00 	mov    0xa8(%rax),%rdx
    537d:	48 8d 58 f0          	lea    -0x10(%rax),%rbx
    5381:	48 85 d2             	test   %rdx,%rdx
    5384:	74 69                	je     53ef <ctnetlink_dump_exp_ct.isra.0+0x14f>
    5386:	0f b6 02             	movzbl (%rdx),%eax
    5389:	84 c0                	test   %al,%al
    538b:	74 62                	je     53ef <ctnetlink_dump_exp_ct.isra.0+0x14f>
    538d:	48 01 c2             	add    %rax,%rdx
    5390:	74 5d                	je     53ef <ctnetlink_dump_exp_ct.isra.0+0x14f>
    5392:	48 83 7d 98 00       	cmpq   $0x0,-0x68(%rbp)
    5397:	48 89 5d 90          	mov    %rbx,-0x70(%rbp)
    539b:	74 6d                	je     540a <ctnetlink_dump_exp_ct.isra.0+0x16a>
    539d:	48 8b bd 68 ff ff ff 	mov    -0x98(%rbp),%rdi
    53a4:	4c 89 f9             	mov    %r15,%rcx
    53a7:	4c 89 e2             	mov    %r12,%rdx
    53aa:	4c 89 f6             	mov    %r14,%rsi
    53ad:	e8 00 00 00 00       	call   53b2 <ctnetlink_dump_exp_ct.isra.0+0x112>
    53b2:	48 85 db             	test   %rbx,%rbx
    53b5:	74 12                	je     53c9 <ctnetlink_dump_exp_ct.isra.0+0x129>
    53b7:	ba ff ff ff ff       	mov    $0xffffffff,%edx
    53bc:	f0 0f c1 13          	lock xadd %edx,(%rbx)
    53c0:	83 fa 01             	cmp    $0x1,%edx
    53c3:	74 4f                	je     5414 <ctnetlink_dump_exp_ct.isra.0+0x174>
    53c5:	85 d2                	test   %edx,%edx
    53c7:	7e 61                	jle    542a <ctnetlink_dump_exp_ct.isra.0+0x18a>
    53c9:	48 8b 5d d0          	mov    -0x30(%rbp),%rbx
    53cd:	65 48 33 1c 25 28 00 	xor    %gs:0x28,%rbx
    53d4:	00 00 
    53d6:	0f 85 96 00 00 00    	jne    5472 <ctnetlink_dump_exp_ct.isra.0+0x1d2>
    53dc:	48 83 c4 70          	add    $0x70,%rsp
    53e0:	5b                   	pop    %rbx
    53e1:	41 5c                	pop    %r12
    53e3:	41 5d                	pop    %r13
    53e5:	41 5e                	pop    %r14
    53e7:	41 5f                	pop    %r15
    53e9:	5d                   	pop    %rbp
    53ea:	e9 00 00 00 00       	jmp    53ef <ctnetlink_dump_exp_ct.isra.0+0x14f>
    53ef:	48 85 db             	test   %rbx,%rbx
    53f2:	74 12                	je     5406 <ctnetlink_dump_exp_ct.isra.0+0x166>
    53f4:	b8 ff ff ff ff       	mov    $0xffffffff,%eax
    53f9:	f0 0f c1 03          	lock xadd %eax,(%rbx)
    53fd:	83 f8 01             	cmp    $0x1,%eax
    5400:	74 57                	je     5459 <ctnetlink_dump_exp_ct.isra.0+0x1b9>
    5402:	85 c0                	test   %eax,%eax
    5404:	7e 3f                	jle    5445 <ctnetlink_dump_exp_ct.isra.0+0x1a5>
    5406:	31 c0                	xor    %eax,%eax
    5408:	eb bf                	jmp    53c9 <ctnetlink_dump_exp_ct.isra.0+0x129>
    540a:	48 c7 45 98 00 00 00 	movq   $0x0,-0x68(%rbp)
    5411:	00 
    5412:	eb 89                	jmp    539d <ctnetlink_dump_exp_ct.isra.0+0xfd>
    5414:	89 85 68 ff ff ff    	mov    %eax,-0x98(%rbp)
    541a:	48 89 df             	mov    %rbx,%rdi
    541d:	e8 00 00 00 00       	call   5422 <ctnetlink_dump_exp_ct.isra.0+0x182>
    5422:	8b 85 68 ff ff ff    	mov    -0x98(%rbp),%eax
    5428:	eb 9f                	jmp    53c9 <ctnetlink_dump_exp_ct.isra.0+0x129>
    542a:	be 03 00 00 00       	mov    $0x3,%esi
    542f:	48 89 df             	mov    %rbx,%rdi
    5432:	89 85 68 ff ff ff    	mov    %eax,-0x98(%rbp)
    5438:	e8 00 00 00 00       	call   543d <ctnetlink_dump_exp_ct.isra.0+0x19d>
    543d:	8b 85 68 ff ff ff    	mov    -0x98(%rbp),%eax
    5443:	eb 84                	jmp    53c9 <ctnetlink_dump_exp_ct.isra.0+0x129>
    5445:	be 03 00 00 00       	mov    $0x3,%esi
    544a:	48 89 df             	mov    %rbx,%rdi
    544d:	e8 00 00 00 00       	call   5452 <ctnetlink_dump_exp_ct.isra.0+0x1b2>
    5452:	31 c0                	xor    %eax,%eax
    5454:	e9 70 ff ff ff       	jmp    53c9 <ctnetlink_dump_exp_ct.isra.0+0x129>
    5459:	48 89 df             	mov    %rbx,%rdi
    545c:	e8 00 00 00 00       	call   5461 <ctnetlink_dump_exp_ct.isra.0+0x1c1>
    5461:	31 c0                	xor    %eax,%eax
    5463:	e9 61 ff ff ff       	jmp    53c9 <ctnetlink_dump_exp_ct.isra.0+0x129>
    5468:	b8 fe ff ff ff       	mov    $0xfffffffe,%eax
    546d:	e9 57 ff ff ff       	jmp    53c9 <ctnetlink_dump_exp_ct.isra.0+0x129>
    5472:	e8 00 00 00 00       	call   5477 <ctnetlink_dump_exp_ct.isra.0+0x1d7>
    5477:	66 0f 1f 84 00 00 00 	nopw   0x0(%rax,%rax,1)
    547e:	00 00 

0000000000005480 <ctnetlink_get_expect>:
    5480:	e8 00 00 00 00       	call   5485 <ctnetlink_get_expect+0x5>
    5485:	55                   	push   %rbp
    5486:	48 89 e5             	mov    %rsp,%rbp
    5489:	41 57                	push   %r15
    548b:	41 56                	push   %r14
    548d:	41 55                	push   %r13
    548f:	49 89 fd             	mov    %rdi,%r13
    5492:	41 54                	push   %r12
    5494:	49 89 d4             	mov    %rdx,%r12
    5497:	53                   	push   %rbx
    5498:	48 89 f3             	mov    %rsi,%rbx
    549b:	48 83 ec 60          	sub    $0x60,%rsp
    549f:	4c 8b 4e 10          	mov    0x10(%rsi),%r9
    54a3:	65 48 8b 04 25 28 00 	mov    %gs:0x28,%rax
    54aa:	00 00 
    54ac:	48 89 45 d0          	mov    %rax,-0x30(%rbp)
    54b0:	31 c0                	xor    %eax,%eax
    54b2:	66 41 f7 41 06 00 03 	testw  $0x300,0x6(%r9)
    54b9:	74 49                	je     5504 <ctnetlink_get_expect+0x84>
    54bb:	48 83 7a 08 00       	cmpq   $0x0,0x8(%rdx)
    54c0:	4c 8b 56 08          	mov    0x8(%rsi),%r10
    54c4:	0f 84 60 01 00 00    	je     562a <ctnetlink_get_expect+0x1aa>
    54ca:	49 89 d0             	mov    %rdx,%r8
    54cd:	48 89 fa             	mov    %rdi,%rdx
    54d0:	48 8b 3b             	mov    (%rbx),%rdi
    54d3:	4c 89 c9             	mov    %r9,%rcx
    54d6:	4c 89 d6             	mov    %r10,%rsi
    54d9:	e8 c2 fd ff ff       	call   52a0 <ctnetlink_dump_exp_ct.isra.0>
    54de:	48 8b 4d d0          	mov    -0x30(%rbp),%rcx
    54e2:	65 48 33 0c 25 28 00 	xor    %gs:0x28,%rcx
    54e9:	00 00 
    54eb:	0f 85 c8 01 00 00    	jne    56b9 <ctnetlink_get_expect+0x239>
    54f1:	48 83 c4 60          	add    $0x60,%rsp
    54f5:	5b                   	pop    %rbx
    54f6:	41 5c                	pop    %r12
    54f8:	41 5d                	pop    %r13
    54fa:	41 5e                	pop    %r14
    54fc:	41 5f                	pop    %r15
    54fe:	5d                   	pop    %rbp
    54ff:	e9 00 00 00 00       	jmp    5504 <ctnetlink_get_expect+0x84>
    5504:	48 8b 46 18          	mov    0x18(%rsi),%rax
    5508:	0f b6 08             	movzbl (%rax),%ecx
    550b:	48 8b 42 38          	mov    0x38(%rdx),%rax
    550f:	c7 85 78 ff ff ff 00 	movl   $0x3000000,-0x88(%rbp)
    5516:	00 00 03 
    5519:	48 85 c0             	test   %rax,%rax
    551c:	74 0f                	je     552d <ctnetlink_get_expect+0xad>
    551e:	0f b7 40 04          	movzwl 0x4(%rax),%eax
    5522:	66 c1 c0 08          	rol    $0x8,%ax
    5526:	66 89 85 78 ff ff ff 	mov    %ax,-0x88(%rbp)
    552d:	49 83 7c 24 10 00    	cmpq   $0x0,0x10(%r12)
    5533:	0f 84 c3 00 00 00    	je     55fc <ctnetlink_get_expect+0x17c>
    5539:	4c 8d 75 a8          	lea    -0x58(%rbp),%r14
    553d:	41 b9 ff 0f 00 00    	mov    $0xfff,%r9d
    5543:	45 31 c0             	xor    %r8d,%r8d
    5546:	4c 89 e7             	mov    %r12,%rdi
    5549:	ba 02 00 00 00       	mov    $0x2,%edx
    554e:	4c 89 f6             	mov    %r14,%rsi
    5551:	e8 da bc ff ff       	call   1230 <ctnetlink_parse_tuple_filter>
    5556:	85 c0                	test   %eax,%eax
    5558:	78 84                	js     54de <ctnetlink_get_expect+0x5e>
    555a:	48 8b 3b             	mov    (%rbx),%rdi
    555d:	4c 89 f2             	mov    %r14,%rdx
    5560:	48 8d b5 78 ff ff ff 	lea    -0x88(%rbp),%rsi
    5567:	e8 00 00 00 00       	call   556c <ctnetlink_get_expect+0xec>
    556c:	49 89 c6             	mov    %rax,%r14
    556f:	48 85 c0             	test   %rax,%rax
    5572:	0f 84 25 01 00 00    	je     569d <ctnetlink_get_expect+0x21d>
    5578:	49 8b 44 24 28       	mov    0x28(%r12),%rax
    557d:	48 85 c0             	test   %rax,%rax
    5580:	74 15                	je     5597 <ctnetlink_get_expect+0x117>
    5582:	44 8b 60 04          	mov    0x4(%rax),%r12d
    5586:	4c 89 f7             	mov    %r14,%rdi
    5589:	e8 52 b8 ff ff       	call   de0 <nf_expect_get_id>
    558e:	44 39 e0             	cmp    %r12d,%eax
    5591:	0f 85 d6 00 00 00    	jne    566d <ctnetlink_get_expect+0x1ed>
    5597:	b9 ff ff ff ff       	mov    $0xffffffff,%ecx
    559c:	31 d2                	xor    %edx,%edx
    559e:	be c0 0c 00 00       	mov    $0xcc0,%esi
    55a3:	bf c0 0e 00 00       	mov    $0xec0,%edi
    55a8:	e8 00 00 00 00       	call   55ad <ctnetlink_get_expect+0x12d>
    55ad:	49 89 c4             	mov    %rax,%r12
    55b0:	48 85 c0             	test   %rax,%rax
    55b3:	0f 84 ee 00 00 00    	je     56a7 <ctnetlink_get_expect+0x227>
    55b9:	48 8b 43 10          	mov    0x10(%rbx),%rax
    55bd:	41 8b 75 34          	mov    0x34(%r13),%esi
    55c1:	4c 89 f1             	mov    %r14,%rcx
    55c4:	4c 89 e7             	mov    %r12,%rdi
    55c7:	8b 50 08             	mov    0x8(%rax),%edx
    55ca:	e8 b1 ee ff ff       	call   4480 <ctnetlink_exp_fill_info.constprop.0>
    55cf:	41 89 c7             	mov    %eax,%r15d
    55d2:	e8 00 00 00 00       	call   55d7 <ctnetlink_get_expect+0x157>
    55d7:	4c 89 f7             	mov    %r14,%rdi
    55da:	e8 00 00 00 00       	call   55df <ctnetlink_get_expect+0x15f>
    55df:	45 85 ff             	test   %r15d,%r15d
    55e2:	0f 8e 97 00 00 00    	jle    567f <ctnetlink_get_expect+0x1ff>
    55e8:	41 8b 55 34          	mov    0x34(%r13),%edx
    55ec:	48 8b 33             	mov    (%rbx),%rsi
    55ef:	4c 89 e7             	mov    %r12,%rdi
    55f2:	e8 00 00 00 00       	call   55f7 <ctnetlink_get_expect+0x177>
    55f7:	e9 e2 fe ff ff       	jmp    54de <ctnetlink_get_expect+0x5e>
    55fc:	49 83 7c 24 08 00    	cmpq   $0x0,0x8(%r12)
    5602:	0f 84 8b 00 00 00    	je     5693 <ctnetlink_get_expect+0x213>
    5608:	4c 8d 75 a8          	lea    -0x58(%rbp),%r14
    560c:	41 b9 ff 0f 00 00    	mov    $0xfff,%r9d
    5612:	45 31 c0             	xor    %r8d,%r8d
    5615:	4c 89 e7             	mov    %r12,%rdi
    5618:	ba 01 00 00 00       	mov    $0x1,%edx
    561d:	4c 89 f6             	mov    %r14,%rsi
    5620:	e8 0b bc ff ff       	call   1230 <ctnetlink_parse_tuple_filter>
    5625:	e9 2c ff ff ff       	jmp    5556 <ctnetlink_get_expect+0xd6>
    562a:	48 8d bd 78 ff ff ff 	lea    -0x88(%rbp),%rdi
    5631:	31 c0                	xor    %eax,%eax
    5633:	4c 89 ca             	mov    %r9,%rdx
    5636:	4c 89 ee             	mov    %r13,%rsi
    5639:	b9 06 00 00 00       	mov    $0x6,%ecx
    563e:	f3 48 ab             	rep stos %rax,%es:(%rdi)
    5641:	48 8d 8d 78 ff ff ff 	lea    -0x88(%rbp),%rcx
    5648:	4c 89 d7             	mov    %r10,%rdi
    564b:	48 c7 45 80 00 00 00 	movq   $0x0,-0x80(%rbp)
    5652:	00 
    5653:	48 c7 45 88 00 00 00 	movq   $0x0,-0x78(%rbp)
    565a:	00 
    565b:	48 c7 45 98 00 00 00 	movq   $0x0,-0x68(%rbp)
    5662:	00 
    5663:	e8 00 00 00 00       	call   5668 <ctnetlink_get_expect+0x1e8>
    5668:	e9 71 fe ff ff       	jmp    54de <ctnetlink_get_expect+0x5e>
    566d:	4c 89 f7             	mov    %r14,%rdi
    5670:	e8 00 00 00 00       	call   5675 <ctnetlink_get_expect+0x1f5>
    5675:	b8 fe ff ff ff       	mov    $0xfffffffe,%eax
    567a:	e9 5f fe ff ff       	jmp    54de <ctnetlink_get_expect+0x5e>
    567f:	31 f6                	xor    %esi,%esi
    5681:	4c 89 e7             	mov    %r12,%rdi
    5684:	e8 00 00 00 00       	call   5689 <ctnetlink_get_expect+0x209>
    5689:	b8 f4 ff ff ff       	mov    $0xfffffff4,%eax
    568e:	e9 4b fe ff ff       	jmp    54de <ctnetlink_get_expect+0x5e>
    5693:	b8 ea ff ff ff       	mov    $0xffffffea,%eax
    5698:	e9 41 fe ff ff       	jmp    54de <ctnetlink_get_expect+0x5e>
    569d:	b8 fe ff ff ff       	mov    $0xfffffffe,%eax
    56a2:	e9 37 fe ff ff       	jmp    54de <ctnetlink_get_expect+0x5e>
    56a7:	4c 89 f7             	mov    %r14,%rdi
    56aa:	e8 00 00 00 00       	call   56af <ctnetlink_get_expect+0x22f>
    56af:	b8 f4 ff ff ff       	mov    $0xfffffff4,%eax
    56b4:	e9 25 fe ff ff       	jmp    54de <ctnetlink_get_expect+0x5e>
    56b9:	e8 00 00 00 00       	call   56be <ctnetlink_get_expect+0x23e>
    56be:	66 90                	xchg   %ax,%ax

00000000000056c0 <ctnetlink_create_expect>:
    56c0:	e8 00 00 00 00       	call   56c5 <ctnetlink_create_expect+0x5>
    56c5:	55                   	push   %rbp
    56c6:	48 89 e5             	mov    %rsp,%rbp
    56c9:	41 57                	push   %r15
    56cb:	49 89 d7             	mov    %rdx,%r15
    56ce:	ba 02 00 00 00       	mov    $0x2,%edx
    56d3:	41 56                	push   %r14
    56d5:	49 89 f6             	mov    %rsi,%r14
    56d8:	48 8d b5 58 ff ff ff 	lea    -0xa8(%rbp),%rsi
    56df:	41 55                	push   %r13
    56e1:	49 89 fd             	mov    %rdi,%r13
    56e4:	4c 89 ff             	mov    %r15,%rdi
    56e7:	41 54                	push   %r12
    56e9:	44 0f b6 e1          	movzbl %cl,%r12d
    56ed:	53                   	push   %rbx
    56ee:	44 89 e1             	mov    %r12d,%ecx
    56f1:	44 89 cb             	mov    %r9d,%ebx
    56f4:	41 b9 ff 0f 00 00    	mov    $0xfff,%r9d
    56fa:	48 81 ec 88 00 00 00 	sub    $0x88,%rsp
    5701:	44 89 85 54 ff ff ff 	mov    %r8d,-0xac(%rbp)
    5708:	45 31 c0             	xor    %r8d,%r8d
    570b:	65 48 8b 04 25 28 00 	mov    %gs:0x28,%rax
    5712:	00 00 
    5714:	48 89 45 d0          	mov    %rax,-0x30(%rbp)
    5718:	31 c0                	xor    %eax,%eax
    571a:	e8 11 bb ff ff       	call   1230 <ctnetlink_parse_tuple_filter>
    571f:	85 c0                	test   %eax,%eax
    5721:	0f 88 1a 01 00 00    	js     5841 <ctnetlink_create_expect+0x181>
    5727:	45 31 c0             	xor    %r8d,%r8d
    572a:	41 b9 ff 0f 00 00    	mov    $0xfff,%r9d
    5730:	44 89 e1             	mov    %r12d,%ecx
    5733:	4c 89 ff             	mov    %r15,%rdi
    5736:	ba 03 00 00 00       	mov    $0x3,%edx
    573b:	48 8d 75 80          	lea    -0x80(%rbp),%rsi
    573f:	e8 ec ba ff ff       	call   1230 <ctnetlink_parse_tuple_filter>
    5744:	85 c0                	test   %eax,%eax
    5746:	0f 88 f5 00 00 00    	js     5841 <ctnetlink_create_expect+0x181>
    574c:	45 31 c0             	xor    %r8d,%r8d
    574f:	41 b9 ff 0f 00 00    	mov    $0xfff,%r9d
    5755:	44 89 e1             	mov    %r12d,%ecx
    5758:	4c 89 ff             	mov    %r15,%rdi
    575b:	ba 01 00 00 00       	mov    $0x1,%edx
    5760:	48 8d 75 a8          	lea    -0x58(%rbp),%rsi
    5764:	e8 c7 ba ff ff       	call   1230 <ctnetlink_parse_tuple_filter>
    5769:	85 c0                	test   %eax,%eax
    576b:	0f 88 d0 00 00 00    	js     5841 <ctnetlink_create_expect+0x181>
    5771:	48 8d 55 a8          	lea    -0x58(%rbp),%rdx
    5775:	4c 89 f6             	mov    %r14,%rsi
    5778:	4c 89 ef             	mov    %r13,%rdi
    577b:	e8 00 00 00 00       	call   5780 <ctnetlink_create_expect+0xc0>
    5780:	48 85 c0             	test   %rax,%rax
    5783:	0f 84 6c 01 00 00    	je     58f5 <ctnetlink_create_expect+0x235>
    5789:	0f b6 48 37          	movzbl 0x37(%rax),%ecx
    578d:	48 8d 14 cd 00 00 00 	lea    0x0(,%rcx,8),%rdx
    5794:	00 
    5795:	48 29 ca             	sub    %rcx,%rdx
    5798:	48 c1 e2 03          	shl    $0x3,%rdx
    579c:	48 29 d0             	sub    %rdx,%rax
    579f:	4c 8d 68 f0          	lea    -0x10(%rax),%r13
    57a3:	49 8b 57 30          	mov    0x30(%r15),%rdx
    57a7:	48 85 d2             	test   %rdx,%rdx
    57aa:	74 20                	je     57cc <ctnetlink_create_expect+0x10c>
    57ac:	4c 8d 72 04          	lea    0x4(%rdx),%r14
    57b0:	41 0f b6 55 46       	movzbl 0x46(%r13),%edx
    57b5:	44 89 e6             	mov    %r12d,%esi
    57b8:	4c 89 f7             	mov    %r14,%rdi
    57bb:	e8 00 00 00 00       	call   57c0 <ctnetlink_create_expect+0x100>
    57c0:	48 89 c2             	mov    %rax,%rdx
    57c3:	48 85 c0             	test   %rax,%rax
    57c6:	0f 84 cf 00 00 00    	je     589b <ctnetlink_create_expect+0x1db>
    57cc:	4c 8d 4d 90          	lea    -0x70(%rbp),%r9
    57d0:	4c 8d 45 80          	lea    -0x80(%rbp),%r8
    57d4:	4c 89 ee             	mov    %r13,%rsi
    57d7:	4c 89 ff             	mov    %r15,%rdi
    57da:	48 8d 8d 58 ff ff ff 	lea    -0xa8(%rbp),%rcx
    57e1:	e8 7a be ff ff       	call   1660 <ctnetlink_alloc_expect.isra.0>
    57e6:	49 89 c4             	mov    %rax,%r12
    57e9:	48 3d 00 f0 ff ff    	cmp    $0xfffffffffffff000,%rax
    57ef:	77 26                	ja     5817 <ctnetlink_create_expect+0x157>
    57f1:	8b b5 54 ff ff ff    	mov    -0xac(%rbp),%esi
    57f7:	31 c9                	xor    %ecx,%ecx
    57f9:	89 da                	mov    %ebx,%edx
    57fb:	48 89 c7             	mov    %rax,%rdi
    57fe:	e8 00 00 00 00       	call   5803 <ctnetlink_create_expect+0x143>
    5803:	4c 89 e7             	mov    %r12,%rdi
    5806:	89 85 54 ff ff ff    	mov    %eax,-0xac(%rbp)
    580c:	e8 00 00 00 00       	call   5811 <ctnetlink_create_expect+0x151>
    5811:	8b 85 54 ff ff ff    	mov    -0xac(%rbp),%eax
    5817:	89 85 54 ff ff ff    	mov    %eax,-0xac(%rbp)
    581d:	e8 00 00 00 00       	call   5822 <ctnetlink_create_expect+0x162>
    5822:	8b 85 54 ff ff ff    	mov    -0xac(%rbp),%eax
    5828:	4d 85 ed             	test   %r13,%r13
    582b:	74 14                	je     5841 <ctnetlink_create_expect+0x181>
    582d:	ba ff ff ff ff       	mov    $0xffffffff,%edx
    5832:	f0 41 0f c1 55 00    	lock xadd %edx,0x0(%r13)
    5838:	83 fa 01             	cmp    $0x1,%edx
    583b:	74 48                	je     5885 <ctnetlink_create_expect+0x1c5>
    583d:	85 d2                	test   %edx,%edx
    583f:	7e 29                	jle    586a <ctnetlink_create_expect+0x1aa>
    5841:	48 8b 5d d0          	mov    -0x30(%rbp),%rbx
    5845:	65 48 33 1c 25 28 00 	xor    %gs:0x28,%rbx
    584c:	00 00 
    584e:	0f 85 ab 00 00 00    	jne    58ff <ctnetlink_create_expect+0x23f>
    5854:	48 81 c4 88 00 00 00 	add    $0x88,%rsp
    585b:	5b                   	pop    %rbx
    585c:	41 5c                	pop    %r12
    585e:	41 5d                	pop    %r13
    5860:	41 5e                	pop    %r14
    5862:	41 5f                	pop    %r15
    5864:	5d                   	pop    %rbp
    5865:	e9 00 00 00 00       	jmp    586a <ctnetlink_create_expect+0x1aa>
    586a:	be 03 00 00 00       	mov    $0x3,%esi
    586f:	4c 89 ef             	mov    %r13,%rdi
    5872:	89 85 54 ff ff ff    	mov    %eax,-0xac(%rbp)
    5878:	e8 00 00 00 00       	call   587d <ctnetlink_create_expect+0x1bd>
    587d:	8b 85 54 ff ff ff    	mov    -0xac(%rbp),%eax
    5883:	eb bc                	jmp    5841 <ctnetlink_create_expect+0x181>
    5885:	89 85 54 ff ff ff    	mov    %eax,-0xac(%rbp)
    588b:	4c 89 ef             	mov    %r13,%rdi
    588e:	e8 00 00 00 00       	call   5893 <ctnetlink_create_expect+0x1d3>
    5893:	8b 85 54 ff ff ff    	mov    -0xac(%rbp),%eax
    5899:	eb a6                	jmp    5841 <ctnetlink_create_expect+0x181>
    589b:	e8 00 00 00 00       	call   58a0 <ctnetlink_create_expect+0x1e0>
    58a0:	4c 89 f2             	mov    %r14,%rdx
    58a3:	bf 01 00 00 00       	mov    $0x1,%edi
    58a8:	48 c7 c6 00 00 00 00 	mov    $0x0,%rsi
    58af:	e8 00 00 00 00       	call   58b4 <ctnetlink_create_expect+0x1f4>
    58b4:	41 89 c0             	mov    %eax,%r8d
    58b7:	b8 a1 ff ff ff       	mov    $0xffffffa1,%eax
    58bc:	45 85 c0             	test   %r8d,%r8d
    58bf:	0f 88 63 ff ff ff    	js     5828 <ctnetlink_create_expect+0x168>
    58c5:	41 0f b6 55 46       	movzbl 0x46(%r13),%edx
    58ca:	44 89 e6             	mov    %r12d,%esi
    58cd:	4c 89 f7             	mov    %r14,%rdi
    58d0:	e8 00 00 00 00       	call   58d5 <ctnetlink_create_expect+0x215>
    58d5:	49 89 c0             	mov    %rax,%r8
    58d8:	b8 f5 ff ff ff       	mov    $0xfffffff5,%eax
    58dd:	4d 85 c0             	test   %r8,%r8
    58e0:	0f 85 31 ff ff ff    	jne    5817 <ctnetlink_create_expect+0x157>
    58e6:	e8 00 00 00 00       	call   58eb <ctnetlink_create_expect+0x22b>
    58eb:	b8 a1 ff ff ff       	mov    $0xffffffa1,%eax
    58f0:	e9 33 ff ff ff       	jmp    5828 <ctnetlink_create_expect+0x168>
    58f5:	b8 fe ff ff ff       	mov    $0xfffffffe,%eax
    58fa:	e9 42 ff ff ff       	jmp    5841 <ctnetlink_create_expect+0x181>
    58ff:	e8 00 00 00 00       	call   5904 <ctnetlink_create_expect+0x244>
    5904:	66 66 2e 0f 1f 84 00 	data16 cs nopw 0x0(%rax,%rax,1)
    590b:	00 00 00 00 
    590f:	90                   	nop

0000000000005910 <ctnetlink_new_expect>:
    5910:	e8 00 00 00 00       	call   5915 <ctnetlink_new_expect+0x5>
    5915:	55                   	push   %rbp
    5916:	48 89 e5             	mov    %rsp,%rbp
    5919:	41 57                	push   %r15
    591b:	41 56                	push   %r14
    591d:	41 55                	push   %r13
    591f:	41 54                	push   %r12
    5921:	53                   	push   %rbx
    5922:	48 83 ec 40          	sub    $0x40,%rsp
    5926:	65 48 8b 04 25 28 00 	mov    %gs:0x28,%rax
    592d:	00 00 
    592f:	48 89 45 d0          	mov    %rax,-0x30(%rbp)
    5933:	31 c0                	xor    %eax,%eax
    5935:	48 8b 46 18          	mov    0x18(%rsi),%rax
    5939:	48 83 7a 10 00       	cmpq   $0x0,0x10(%rdx)
    593e:	44 0f b6 30          	movzbl (%rax),%r14d
    5942:	0f 84 73 01 00 00    	je     5abb <ctnetlink_new_expect+0x1ab>
    5948:	48 83 7a 18 00       	cmpq   $0x0,0x18(%rdx)
    594d:	49 89 d4             	mov    %rdx,%r12
    5950:	0f 84 65 01 00 00    	je     5abb <ctnetlink_new_expect+0x1ab>
    5956:	48 83 7a 08 00       	cmpq   $0x0,0x8(%rdx)
    595b:	0f 84 5a 01 00 00    	je     5abb <ctnetlink_new_expect+0x1ab>
    5961:	48 8b 42 38          	mov    0x38(%rdx),%rax
    5965:	c7 45 a4 00 00 00 03 	movl   $0x3000000,-0x5c(%rbp)
    596c:	49 89 ff             	mov    %rdi,%r15
    596f:	48 89 f3             	mov    %rsi,%rbx
    5972:	48 85 c0             	test   %rax,%rax
    5975:	74 0c                	je     5983 <ctnetlink_new_expect+0x73>
    5977:	0f b7 40 04          	movzwl 0x4(%rax),%eax
    597b:	66 c1 c0 08          	rol    $0x8,%ax
    597f:	66 89 45 a4          	mov    %ax,-0x5c(%rbp)
    5983:	41 b9 ff 0f 00 00    	mov    $0xfff,%r9d
    5989:	45 31 c0             	xor    %r8d,%r8d
    598c:	44 89 f1             	mov    %r14d,%ecx
    598f:	4c 89 e7             	mov    %r12,%rdi
    5992:	ba 02 00 00 00       	mov    $0x2,%edx
    5997:	48 8d 75 a8          	lea    -0x58(%rbp),%rsi
    599b:	e8 90 b8 ff ff       	call   1230 <ctnetlink_parse_tuple_filter>
    59a0:	41 89 c5             	mov    %eax,%r13d
    59a3:	85 c0                	test   %eax,%eax
    59a5:	78 44                	js     59eb <ctnetlink_new_expect+0xdb>
    59a7:	48 c7 c7 00 00 00 00 	mov    $0x0,%rdi
    59ae:	e8 00 00 00 00       	call   59b3 <ctnetlink_new_expect+0xa3>
    59b3:	48 8b 3b             	mov    (%rbx),%rdi
    59b6:	48 8d 55 a8          	lea    -0x58(%rbp),%rdx
    59ba:	48 8d 75 a4          	lea    -0x5c(%rbp),%rsi
    59be:	e8 00 00 00 00       	call   59c3 <ctnetlink_new_expect+0xb3>
    59c3:	48 89 c2             	mov    %rax,%rdx
    59c6:	48 85 c0             	test   %rax,%rax
    59c9:	0f 84 9a 00 00 00    	je     5a69 <ctnetlink_new_expect+0x159>
    59cf:	48 8b 43 10          	mov    0x10(%rbx),%rax
    59d3:	41 bd ef ff ff ff    	mov    $0xffffffef,%r13d
    59d9:	f6 40 07 02          	testb  $0x2,0x7(%rax)
    59dd:	74 35                	je     5a14 <ctnetlink_new_expect+0x104>
    59df:	48 c7 c7 00 00 00 00 	mov    $0x0,%rdi
    59e6:	e8 00 00 00 00       	call   59eb <ctnetlink_new_expect+0xdb>
    59eb:	48 8b 45 d0          	mov    -0x30(%rbp),%rax
    59ef:	65 48 33 04 25 28 00 	xor    %gs:0x28,%rax
    59f6:	00 00 
    59f8:	0f 85 d3 00 00 00    	jne    5ad1 <ctnetlink_new_expect+0x1c1>
    59fe:	48 83 c4 40          	add    $0x40,%rsp
    5a02:	44 89 e8             	mov    %r13d,%eax
    5a05:	5b                   	pop    %rbx
    5a06:	41 5c                	pop    %r12
    5a08:	41 5d                	pop    %r13
    5a0a:	41 5e                	pop    %r14
    5a0c:	41 5f                	pop    %r15
    5a0e:	5d                   	pop    %rbp
    5a0f:	e9 00 00 00 00       	jmp    5a14 <ctnetlink_new_expect+0x104>
    5a14:	45 31 ed             	xor    %r13d,%r13d
    5a17:	49 83 7c 24 20 00    	cmpq   $0x0,0x20(%r12)
    5a1d:	74 c0                	je     59df <ctnetlink_new_expect+0xcf>
    5a1f:	4c 8d 72 78          	lea    0x78(%rdx),%r14
    5a23:	48 89 55 98          	mov    %rdx,-0x68(%rbp)
    5a27:	4c 89 f7             	mov    %r14,%rdi
    5a2a:	e8 00 00 00 00       	call   5a2f <ctnetlink_new_expect+0x11f>
    5a2f:	85 c0                	test   %eax,%eax
    5a31:	0f 84 8f 00 00 00    	je     5ac6 <ctnetlink_new_expect+0x1b6>
    5a37:	49 8b 44 24 20       	mov    0x20(%r12),%rax
    5a3c:	48 8b 0d 00 00 00 00 	mov    0x0(%rip),%rcx        # 5a43 <ctnetlink_new_expect+0x133>
    5a43:	4c 89 f7             	mov    %r14,%rdi
    5a46:	48 8b 55 98          	mov    -0x68(%rbp),%rdx
    5a4a:	8b 40 04             	mov    0x4(%rax),%eax
    5a4d:	0f c8                	bswap  %eax
    5a4f:	69 c0 fa 00 00 00    	imul   $0xfa,%eax,%eax
    5a55:	48 01 c8             	add    %rcx,%rax
    5a58:	48 89 82 88 00 00 00 	mov    %rax,0x88(%rdx)
    5a5f:	e8 00 00 00 00       	call   5a64 <ctnetlink_new_expect+0x154>
    5a64:	e9 76 ff ff ff       	jmp    59df <ctnetlink_new_expect+0xcf>
    5a69:	48 c7 c7 00 00 00 00 	mov    $0x0,%rdi
    5a70:	41 bd fe ff ff ff    	mov    $0xfffffffe,%r13d
    5a76:	e8 00 00 00 00       	call   5a7b <ctnetlink_new_expect+0x16b>
    5a7b:	48 8b 53 10          	mov    0x10(%rbx),%rdx
    5a7f:	0f b7 42 06          	movzwl 0x6(%rdx),%eax
    5a83:	f6 c4 04             	test   $0x4,%ah
    5a86:	0f 84 5f ff ff ff    	je     59eb <ctnetlink_new_expect+0xdb>
    5a8c:	66 c1 e8 03          	shr    $0x3,%ax
    5a90:	45 31 c9             	xor    %r9d,%r9d
    5a93:	45 8b 47 34          	mov    0x34(%r15),%r8d
    5a97:	48 8b 3b             	mov    (%rbx),%rdi
    5a9a:	83 e0 01             	and    $0x1,%eax
    5a9d:	48 85 d2             	test   %rdx,%rdx
    5aa0:	44 89 f1             	mov    %r14d,%ecx
    5aa3:	4c 89 e2             	mov    %r12,%rdx
    5aa6:	44 0f 45 c8          	cmovne %eax,%r9d
    5aaa:	48 8d 75 a4          	lea    -0x5c(%rbp),%rsi
    5aae:	e8 0d fc ff ff       	call   56c0 <ctnetlink_create_expect>
    5ab3:	41 89 c5             	mov    %eax,%r13d
    5ab6:	e9 30 ff ff ff       	jmp    59eb <ctnetlink_new_expect+0xdb>
    5abb:	41 bd ea ff ff ff    	mov    $0xffffffea,%r13d
    5ac1:	e9 25 ff ff ff       	jmp    59eb <ctnetlink_new_expect+0xdb>
    5ac6:	41 bd c2 ff ff ff    	mov    $0xffffffc2,%r13d
    5acc:	e9 0e ff ff ff       	jmp    59df <ctnetlink_new_expect+0xcf>
    5ad1:	e8 00 00 00 00       	call   5ad6 <ctnetlink_new_expect+0x1c6>
    5ad6:	66 2e 0f 1f 84 00 00 	cs nopw 0x0(%rax,%rax,1)
    5add:	00 00 00 

0000000000005ae0 <ctnetlink_create_conntrack>:
    5ae0:	e8 00 00 00 00       	call   5ae5 <ctnetlink_create_conntrack+0x5>
    5ae5:	55                   	push   %rbp
    5ae6:	48 89 e5             	mov    %rsp,%rbp
    5ae9:	41 57                	push   %r15
    5aeb:	49 89 f7             	mov    %rsi,%r15
    5aee:	41 56                	push   %r14
    5af0:	49 89 fe             	mov    %rdi,%r14
    5af3:	41 55                	push   %r13
    5af5:	49 89 d5             	mov    %rdx,%r13
    5af8:	48 89 ca             	mov    %rcx,%rdx
    5afb:	4c 89 c1             	mov    %r8,%rcx
    5afe:	41 54                	push   %r12
    5b00:	41 b8 20 0a 00 00    	mov    $0xa20,%r8d
    5b06:	53                   	push   %rbx
    5b07:	44 89 cb             	mov    %r9d,%ebx
    5b0a:	48 83 ec 50          	sub    $0x50,%rsp
    5b0e:	65 48 8b 04 25 28 00 	mov    %gs:0x28,%rax
    5b15:	00 00 
    5b17:	48 89 45 d0          	mov    %rax,-0x30(%rbp)
    5b1b:	31 c0                	xor    %eax,%eax
    5b1d:	e8 00 00 00 00       	call   5b22 <ctnetlink_create_conntrack+0x42>
    5b22:	48 3d 00 f0 ff ff    	cmp    $0xfffffffffffff000,%rax
    5b28:	0f 87 e7 03 00 00    	ja     5f15 <ctnetlink_create_conntrack+0x435>
    5b2e:	49 89 c4             	mov    %rax,%r12
    5b31:	49 8b 45 38          	mov    0x38(%r13),%rax
    5b35:	48 85 c0             	test   %rax,%rax
    5b38:	0f 84 ce 03 00 00    	je     5f0c <ctnetlink_create_conntrack+0x42c>
    5b3e:	8b 40 04             	mov    0x4(%rax),%eax
    5b41:	b9 ff ff ff 7f       	mov    $0x7fffffff,%ecx
    5b46:	48 8b 15 00 00 00 00 	mov    0x0(%rip),%rdx        # 5b4d <ctnetlink_create_conntrack+0x6d>
    5b4d:	0f c8                	bswap  %eax
    5b4f:	89 c0                	mov    %eax,%eax
    5b51:	48 69 c0 fa 00 00 00 	imul   $0xfa,%rax,%rax
    5b58:	48 3d ff ff ff 7f    	cmp    $0x7fffffff,%rax
    5b5e:	48 0f 47 c1          	cmova  %rcx,%rax
    5b62:	01 d0                	add    %edx,%eax
    5b64:	41 89 44 24 08       	mov    %eax,0x8(%r12)
    5b69:	49 8b 7d 28          	mov    0x28(%r13),%rdi
    5b6d:	48 85 ff             	test   %rdi,%rdi
    5b70:	0f 84 36 03 00 00    	je     5eac <ctnetlink_create_conntrack+0x3cc>
    5b76:	48 8d 55 a0          	lea    -0x60(%rbp),%rdx
    5b7a:	48 8d 75 98          	lea    -0x68(%rbp),%rsi
    5b7e:	48 c7 45 98 00 00 00 	movq   $0x0,-0x68(%rbp)
    5b85:	00 
    5b86:	48 c7 45 a0 00 00 00 	movq   $0x0,-0x60(%rbp)
    5b8d:	00 
    5b8e:	e8 9d c3 ff ff       	call   1f30 <ctnetlink_parse_help.constprop.0>
    5b93:	85 c0                	test   %eax,%eax
    5b95:	0f 88 28 03 00 00    	js     5ec3 <ctnetlink_create_conntrack+0x3e3>
    5b9b:	41 0f b6 54 24 46    	movzbl 0x46(%r12),%edx
    5ba1:	41 0f b7 74 24 32    	movzwl 0x32(%r12),%esi
    5ba7:	48 8b 7d 98          	mov    -0x68(%rbp),%rdi
    5bab:	e8 00 00 00 00       	call   5bb0 <ctnetlink_create_conntrack+0xd0>
    5bb0:	48 85 c0             	test   %rax,%rax
    5bb3:	0f 84 65 03 00 00    	je     5f1e <ctnetlink_create_conntrack+0x43e>
    5bb9:	be 20 0a 00 00       	mov    $0xa20,%esi
    5bbe:	4c 89 e7             	mov    %r12,%rdi
    5bc1:	48 89 45 90          	mov    %rax,-0x70(%rbp)
    5bc5:	e8 00 00 00 00       	call   5bca <ctnetlink_create_conntrack+0xea>
    5bca:	48 89 c1             	mov    %rax,%rcx
    5bcd:	48 85 c0             	test   %rax,%rax
    5bd0:	0f 84 af 03 00 00    	je     5f85 <ctnetlink_create_conntrack+0x4a5>
    5bd6:	48 8b 55 90          	mov    -0x70(%rbp),%rdx
    5bda:	48 8b 42 70          	mov    0x70(%rdx),%rax
    5bde:	48 85 c0             	test   %rax,%rax
    5be1:	74 18                	je     5bfb <ctnetlink_create_conntrack+0x11b>
    5be3:	48 89 4d 88          	mov    %rcx,-0x78(%rbp)
    5be7:	48 8b 7d a0          	mov    -0x60(%rbp),%rdi
    5beb:	4c 89 e6             	mov    %r12,%rsi
    5bee:	e8 00 00 00 00       	call   5bf3 <ctnetlink_create_conntrack+0x113>
    5bf3:	48 8b 4d 88          	mov    -0x78(%rbp),%rcx
    5bf7:	48 8b 55 90          	mov    -0x70(%rbp),%rdx
    5bfb:	49 81 8c 24 80 00 00 	orq    $0x2000,0x80(%r12)
    5c02:	00 00 20 00 00 
    5c07:	48 89 11             	mov    %rdx,(%rcx)
    5c0a:	49 8b 55 68          	mov    0x68(%r13),%rdx
    5c0e:	48 85 d2             	test   %rdx,%rdx
    5c11:	0f 84 e5 02 00 00    	je     5efc <ctnetlink_create_conntrack+0x41c>
    5c17:	be 01 00 00 00       	mov    $0x1,%esi
    5c1c:	4c 89 e7             	mov    %r12,%rdi
    5c1f:	e8 2c c2 ff ff       	call   1e50 <ctnetlink_parse_nat_setup>
    5c24:	85 c0                	test   %eax,%eax
    5c26:	0f 88 97 02 00 00    	js     5ec3 <ctnetlink_create_conntrack+0x3e3>
    5c2c:	49 8b 55 30          	mov    0x30(%r13),%rdx
    5c30:	31 f6                	xor    %esi,%esi
    5c32:	4c 89 e7             	mov    %r12,%rdi
    5c35:	e8 16 c2 ff ff       	call   1e50 <ctnetlink_parse_nat_setup>
    5c3a:	85 c0                	test   %eax,%eax
    5c3c:	0f 88 81 02 00 00    	js     5ec3 <ctnetlink_create_conntrack+0x3e3>
    5c42:	49 8b 84 24 90 00 00 	mov    0x90(%r12),%rax
    5c49:	00 
    5c4a:	80 b8 8b 0a 00 00 00 	cmpb   $0x0,0xa8b(%rax)
    5c51:	74 23                	je     5c76 <ctnetlink_create_conntrack+0x196>
    5c53:	ba 20 0a 00 00       	mov    $0xa20,%edx
    5c58:	be 03 00 00 00       	mov    $0x3,%esi
    5c5d:	4c 89 e7             	mov    %r12,%rdi
    5c60:	e8 00 00 00 00       	call   5c65 <ctnetlink_create_conntrack+0x185>
    5c65:	48 85 c0             	test   %rax,%rax
    5c68:	0f 84 5c 03 00 00    	je     5fca <ctnetlink_create_conntrack+0x4ea>
    5c6e:	49 8b 84 24 90 00 00 	mov    0x90(%r12),%rax
    5c75:	00 
    5c76:	80 b8 8d 0a 00 00 00 	cmpb   $0x0,0xa8d(%rax)
    5c7d:	74 1a                	je     5c99 <ctnetlink_create_conntrack+0x1b9>
    5c7f:	ba 20 0a 00 00       	mov    $0xa20,%edx
    5c84:	be 05 00 00 00       	mov    $0x5,%esi
    5c89:	4c 89 e7             	mov    %r12,%rdi
    5c8c:	e8 00 00 00 00       	call   5c91 <ctnetlink_create_conntrack+0x1b1>
    5c91:	49 8b 84 24 90 00 00 	mov    0x90(%r12),%rax
    5c98:	00 
    5c99:	80 b8 8a 0a 00 00 00 	cmpb   $0x0,0xa8a(%rax)
    5ca0:	74 26                	je     5cc8 <ctnetlink_create_conntrack+0x1e8>
    5ca2:	ba 20 0a 00 00       	mov    $0xa20,%edx
    5ca7:	be 04 00 00 00       	mov    $0x4,%esi
    5cac:	4c 89 e7             	mov    %r12,%rdi
    5caf:	e8 00 00 00 00       	call   5cb4 <ctnetlink_create_conntrack+0x1d4>
    5cb4:	48 85 c0             	test   %rax,%rax
    5cb7:	74 07                	je     5cc0 <ctnetlink_create_conntrack+0x1e0>
    5cb9:	c7 40 0a ff ff ff ff 	movl   $0xffffffff,0xa(%rax)
    5cc0:	49 8b 84 24 90 00 00 	mov    0x90(%r12),%rax
    5cc7:	00 
    5cc8:	8b 80 70 0b 00 00    	mov    0xb70(%rax),%eax
    5cce:	85 c0                	test   %eax,%eax
    5cd0:	74 12                	je     5ce4 <ctnetlink_create_conntrack+0x204>
    5cd2:	ba 20 0a 00 00       	mov    $0xa20,%edx
    5cd7:	be 07 00 00 00       	mov    $0x7,%esi
    5cdc:	4c 89 e7             	mov    %r12,%rdi
    5cdf:	e8 00 00 00 00       	call   5ce4 <ctnetlink_create_conntrack+0x204>
    5ce4:	ba 20 0a 00 00       	mov    $0xa20,%edx
    5ce9:	be 02 00 00 00       	mov    $0x2,%esi
    5cee:	4c 89 e7             	mov    %r12,%rdi
    5cf1:	e8 00 00 00 00       	call   5cf6 <ctnetlink_create_conntrack+0x216>
    5cf6:	ba 20 0a 00 00       	mov    $0xa20,%edx
    5cfb:	be 08 00 00 00       	mov    $0x8,%esi
    5d00:	4c 89 e7             	mov    %r12,%rdi
    5d03:	e8 00 00 00 00       	call   5d08 <ctnetlink_create_conntrack+0x228>
    5d08:	49 83 8c 24 80 00 00 	orq    $0x8,0x80(%r12)
    5d0f:	00 08 
    5d11:	49 83 7d 18 00       	cmpq   $0x0,0x18(%r13)
    5d16:	74 13                	je     5d2b <ctnetlink_create_conntrack+0x24b>
    5d18:	4c 89 ee             	mov    %r13,%rsi
    5d1b:	4c 89 e7             	mov    %r12,%rdi
    5d1e:	e8 ed b3 ff ff       	call   1110 <ctnetlink_change_status>
    5d23:	85 c0                	test   %eax,%eax
    5d25:	0f 88 98 01 00 00    	js     5ec3 <ctnetlink_create_conntrack+0x3e3>
    5d2b:	49 83 7d 78 00       	cmpq   $0x0,0x78(%r13)
    5d30:	0f 84 3c 02 00 00    	je     5f72 <ctnetlink_create_conntrack+0x492>
    5d36:	4c 89 ee             	mov    %r13,%rsi
    5d39:	4c 89 e7             	mov    %r12,%rdi
    5d3c:	e8 af a5 ff ff       	call   2f0 <ctnetlink_change_seq_adj>
    5d41:	85 c0                	test   %eax,%eax
    5d43:	0f 88 7a 01 00 00    	js     5ec3 <ctnetlink_create_conntrack+0x3e3>
    5d49:	49 8d bc 24 c8 00 00 	lea    0xc8(%r12),%rdi
    5d50:	00 
    5d51:	44 89 e0             	mov    %r12d,%eax
    5d54:	49 c7 84 24 c0 00 00 	movq   $0x0,0xc0(%r12)
    5d5b:	00 00 00 00 00 
    5d60:	49 c7 84 24 f8 00 00 	movq   $0x0,0xf8(%r12)
    5d67:	00 00 00 00 00 
    5d6c:	48 83 e7 f8          	and    $0xfffffffffffffff8,%rdi
    5d70:	29 f8                	sub    %edi,%eax
    5d72:	8d 88 00 01 00 00    	lea    0x100(%rax),%ecx
    5d78:	31 c0                	xor    %eax,%eax
    5d7a:	c1 e9 03             	shr    $0x3,%ecx
    5d7d:	f3 48 ab             	rep stos %rax,%es:(%rdi)
    5d80:	49 83 7d 20 00       	cmpq   $0x0,0x20(%r13)
    5d85:	74 13                	je     5d9a <ctnetlink_create_conntrack+0x2ba>
    5d87:	4c 89 ee             	mov    %r13,%rsi
    5d8a:	4c 89 e7             	mov    %r12,%rdi
    5d8d:	e8 ee a2 ff ff       	call   80 <ctnetlink_change_protoinfo>
    5d92:	85 c0                	test   %eax,%eax
    5d94:	0f 88 29 01 00 00    	js     5ec3 <ctnetlink_create_conntrack+0x3e3>
    5d9a:	49 83 bd c0 00 00 00 	cmpq   $0x0,0xc0(%r13)
    5da1:	00 
    5da2:	74 13                	je     5db7 <ctnetlink_create_conntrack+0x2d7>
    5da4:	4c 89 ee             	mov    %r13,%rsi
    5da7:	4c 89 e7             	mov    %r12,%rdi
    5daa:	e8 01 a6 ff ff       	call   3b0 <ctnetlink_change_synproxy>
    5daf:	85 c0                	test   %eax,%eax
    5db1:	0f 88 0c 01 00 00    	js     5ec3 <ctnetlink_create_conntrack+0x3e3>
    5db7:	49 8b 4d 40          	mov    0x40(%r13),%rcx
    5dbb:	48 85 c9             	test   %rcx,%rcx
    5dbe:	74 3e                	je     5dfe <ctnetlink_create_conntrack+0x31e>
    5dc0:	49 8b 85 a8 00 00 00 	mov    0xa8(%r13),%rax
    5dc7:	31 d2                	xor    %edx,%edx
    5dc9:	48 85 c0             	test   %rax,%rax
    5dcc:	74 09                	je     5dd7 <ctnetlink_create_conntrack+0x2f7>
    5dce:	8b 40 04             	mov    0x4(%rax),%eax
    5dd1:	0f c8                	bswap  %eax
    5dd3:	f7 d0                	not    %eax
    5dd5:	89 c2                	mov    %eax,%edx
    5dd7:	8b 41 04             	mov    0x4(%rcx),%eax
    5dda:	0f c8                	bswap  %eax
    5ddc:	89 c1                	mov    %eax,%ecx
    5dde:	41 8b 84 24 b0 00 00 	mov    0xb0(%r12),%eax
    5de5:	00 
    5de6:	21 d0                	and    %edx,%eax
    5de8:	41 8b 94 24 b0 00 00 	mov    0xb0(%r12),%edx
    5def:	00 
    5df0:	31 c8                	xor    %ecx,%eax
    5df2:	39 d0                	cmp    %edx,%eax
    5df4:	74 08                	je     5dfe <ctnetlink_create_conntrack+0x31e>
    5df6:	41 89 84 24 b0 00 00 	mov    %eax,0xb0(%r12)
    5dfd:	00 
    5dfe:	49 83 7d 70 00       	cmpq   $0x0,0x70(%r13)
    5e03:	74 69                	je     5e6e <ctnetlink_create_conntrack+0x38e>
    5e05:	45 31 c0             	xor    %r8d,%r8d
    5e08:	0f b6 cb             	movzbl %bl,%ecx
    5e0b:	41 b9 ff 0f 00 00    	mov    $0xfff,%r9d
    5e11:	4c 89 ef             	mov    %r13,%rdi
    5e14:	ba 0e 00 00 00       	mov    $0xe,%edx
    5e19:	48 8d 75 a8          	lea    -0x58(%rbp),%rsi
    5e1d:	e8 0e b4 ff ff       	call   1230 <ctnetlink_parse_tuple_filter>
    5e22:	85 c0                	test   %eax,%eax
    5e24:	0f 88 99 00 00 00    	js     5ec3 <ctnetlink_create_conntrack+0x3e3>
    5e2a:	48 8d 55 a8          	lea    -0x58(%rbp),%rdx
    5e2e:	4c 89 fe             	mov    %r15,%rsi
    5e31:	4c 89 f7             	mov    %r14,%rdi
    5e34:	e8 00 00 00 00       	call   5e39 <ctnetlink_create_conntrack+0x359>
    5e39:	48 85 c0             	test   %rax,%rax
    5e3c:	0f 84 af 01 00 00    	je     5ff1 <ctnetlink_create_conntrack+0x511>
    5e42:	0f b6 48 37          	movzbl 0x37(%rax),%ecx
    5e46:	48 8d 14 cd 00 00 00 	lea    0x0(,%rcx,8),%rdx
    5e4d:	00 
    5e4e:	48 29 ca             	sub    %rcx,%rdx
    5e51:	48 c1 e2 03          	shl    $0x3,%rdx
    5e55:	48 29 d0             	sub    %rdx,%rax
    5e58:	48 83 e8 10          	sub    $0x10,%rax
    5e5c:	49 0f ba ac 24 80 00 	btsq   $0x0,0x80(%r12)
    5e63:	00 00 00 
    5e66:	49 89 84 24 a8 00 00 	mov    %rax,0xa8(%r12)
    5e6d:	00 
    5e6e:	49 8b 84 24 b8 00 00 	mov    0xb8(%r12),%rax
    5e75:	00 
    5e76:	48 85 c0             	test   %rax,%rax
    5e79:	74 17                	je     5e92 <ctnetlink_create_conntrack+0x3b2>
    5e7b:	0f b6 58 05          	movzbl 0x5(%rax),%ebx
    5e7f:	84 db                	test   %bl,%bl
    5e81:	74 0f                	je     5e92 <ctnetlink_create_conntrack+0x3b2>
    5e83:	48 01 c3             	add    %rax,%rbx
    5e86:	74 0a                	je     5e92 <ctnetlink_create_conntrack+0x3b2>
    5e88:	31 ff                	xor    %edi,%edi
    5e8a:	e8 00 00 00 00       	call   5e8f <ctnetlink_create_conntrack+0x3af>
    5e8f:	48 89 03             	mov    %rax,(%rbx)
    5e92:	4c 89 e7             	mov    %r12,%rdi
    5e95:	e8 00 00 00 00       	call   5e9a <ctnetlink_create_conntrack+0x3ba>
    5e9a:	85 c0                	test   %eax,%eax
    5e9c:	0f 88 ef 00 00 00    	js     5f91 <ctnetlink_create_conntrack+0x4b1>
    5ea2:	e8 00 00 00 00       	call   5ea7 <ctnetlink_create_conntrack+0x3c7>
    5ea7:	4d 89 e5             	mov    %r12,%r13
    5eaa:	eb 27                	jmp    5ed3 <ctnetlink_create_conntrack+0x3f3>
    5eac:	31 f6                	xor    %esi,%esi
    5eae:	ba 20 0a 00 00       	mov    $0xa20,%edx
    5eb3:	4c 89 e7             	mov    %r12,%rdi
    5eb6:	e8 00 00 00 00       	call   5ebb <ctnetlink_create_conntrack+0x3db>
    5ebb:	85 c0                	test   %eax,%eax
    5ebd:	0f 89 47 fd ff ff    	jns    5c0a <ctnetlink_create_conntrack+0x12a>
    5ec3:	4c 63 e8             	movslq %eax,%r13
    5ec6:	e8 00 00 00 00       	call   5ecb <ctnetlink_create_conntrack+0x3eb>
    5ecb:	4c 89 e7             	mov    %r12,%rdi
    5ece:	e8 00 00 00 00       	call   5ed3 <ctnetlink_create_conntrack+0x3f3>
    5ed3:	48 8b 45 d0          	mov    -0x30(%rbp),%rax
    5ed7:	65 48 33 04 25 28 00 	xor    %gs:0x28,%rax
    5ede:	00 00 
    5ee0:	0f 85 21 01 00 00    	jne    6007 <ctnetlink_create_conntrack+0x527>
    5ee6:	48 83 c4 50          	add    $0x50,%rsp
    5eea:	4c 89 e8             	mov    %r13,%rax
    5eed:	5b                   	pop    %rbx
    5eee:	41 5c                	pop    %r12
    5ef0:	41 5d                	pop    %r13
    5ef2:	41 5e                	pop    %r14
    5ef4:	41 5f                	pop    %r15
    5ef6:	5d                   	pop    %rbp
    5ef7:	e9 00 00 00 00       	jmp    5efc <ctnetlink_create_conntrack+0x41c>
    5efc:	49 83 7d 30 00       	cmpq   $0x0,0x30(%r13)
    5f01:	0f 85 10 fd ff ff    	jne    5c17 <ctnetlink_create_conntrack+0x137>
    5f07:	e9 36 fd ff ff       	jmp    5c42 <ctnetlink_create_conntrack+0x162>
    5f0c:	49 c7 c5 ea ff ff ff 	mov    $0xffffffffffffffea,%r13
    5f13:	eb b6                	jmp    5ecb <ctnetlink_create_conntrack+0x3eb>
    5f15:	49 c7 c5 f4 ff ff ff 	mov    $0xfffffffffffffff4,%r13
    5f1c:	eb b5                	jmp    5ed3 <ctnetlink_create_conntrack+0x3f3>
    5f1e:	e8 00 00 00 00       	call   5f23 <ctnetlink_create_conntrack+0x443>
    5f23:	48 8b 55 98          	mov    -0x68(%rbp),%rdx
    5f27:	bf 01 00 00 00       	mov    $0x1,%edi
    5f2c:	48 c7 c6 00 00 00 00 	mov    $0x0,%rsi
    5f33:	e8 00 00 00 00       	call   5f38 <ctnetlink_create_conntrack+0x458>
    5f38:	85 c0                	test   %eax,%eax
    5f3a:	78 2a                	js     5f66 <ctnetlink_create_conntrack+0x486>
    5f3c:	41 0f b6 54 24 46    	movzbl 0x46(%r12),%edx
    5f42:	41 0f b7 74 24 32    	movzwl 0x32(%r12),%esi
    5f48:	49 c7 c5 f5 ff ff ff 	mov    $0xfffffffffffffff5,%r13
    5f4f:	48 8b 7d 98          	mov    -0x68(%rbp),%rdi
    5f53:	e8 00 00 00 00       	call   5f58 <ctnetlink_create_conntrack+0x478>
    5f58:	48 85 c0             	test   %rax,%rax
    5f5b:	0f 85 65 ff ff ff    	jne    5ec6 <ctnetlink_create_conntrack+0x3e6>
    5f61:	e8 00 00 00 00       	call   5f66 <ctnetlink_create_conntrack+0x486>
    5f66:	49 c7 c5 a1 ff ff ff 	mov    $0xffffffffffffffa1,%r13
    5f6d:	e9 59 ff ff ff       	jmp    5ecb <ctnetlink_create_conntrack+0x3eb>
    5f72:	49 83 bd 80 00 00 00 	cmpq   $0x0,0x80(%r13)
    5f79:	00 
    5f7a:	0f 85 b6 fd ff ff    	jne    5d36 <ctnetlink_create_conntrack+0x256>
    5f80:	e9 c4 fd ff ff       	jmp    5d49 <ctnetlink_create_conntrack+0x269>
    5f85:	49 c7 c5 f4 ff ff ff 	mov    $0xfffffffffffffff4,%r13
    5f8c:	e9 35 ff ff ff       	jmp    5ec6 <ctnetlink_create_conntrack+0x3e6>
    5f91:	49 8b bc 24 a8 00 00 	mov    0xa8(%r12),%rdi
    5f98:	00 
    5f99:	4c 63 e8             	movslq %eax,%r13
    5f9c:	48 85 ff             	test   %rdi,%rdi
    5f9f:	0f 84 21 ff ff ff    	je     5ec6 <ctnetlink_create_conntrack+0x3e6>
    5fa5:	b8 ff ff ff ff       	mov    $0xffffffff,%eax
    5faa:	f0 0f c1 07          	lock xadd %eax,(%rdi)
    5fae:	83 f8 01             	cmp    $0x1,%eax
    5fb1:	74 4a                	je     5ffd <ctnetlink_create_conntrack+0x51d>
    5fb3:	85 c0                	test   %eax,%eax
    5fb5:	0f 8f 0b ff ff ff    	jg     5ec6 <ctnetlink_create_conntrack+0x3e6>
    5fbb:	be 03 00 00 00       	mov    $0x3,%esi
    5fc0:	e8 00 00 00 00       	call   5fc5 <ctnetlink_create_conntrack+0x4e5>
    5fc5:	e9 fc fe ff ff       	jmp    5ec6 <ctnetlink_create_conntrack+0x3e6>
    5fca:	66 90                	xchg   %ax,%ax
    5fcc:	49 8b 84 24 90 00 00 	mov    0x90(%r12),%rax
    5fd3:	00 
    5fd4:	e9 9d fc ff ff       	jmp    5c76 <ctnetlink_create_conntrack+0x196>
    5fd9:	48 c7 c6 00 00 00 00 	mov    $0x0,%rsi
    5fe0:	48 c7 c7 00 00 00 00 	mov    $0x0,%rdi
    5fe7:	e8 00 00 00 00       	call   5fec <ctnetlink_create_conntrack+0x50c>
    5fec:	e9 7d fc ff ff       	jmp    5c6e <ctnetlink_create_conntrack+0x18e>
    5ff1:	49 c7 c5 fe ff ff ff 	mov    $0xfffffffffffffffe,%r13
    5ff8:	e9 c9 fe ff ff       	jmp    5ec6 <ctnetlink_create_conntrack+0x3e6>
    5ffd:	e8 00 00 00 00       	call   6002 <ctnetlink_create_conntrack+0x522>
    6002:	e9 bf fe ff ff       	jmp    5ec6 <ctnetlink_create_conntrack+0x3e6>
    6007:	e8 00 00 00 00       	call   600c <ctnetlink_create_conntrack+0x52c>
    600c:	0f 1f 40 00          	nopl   0x0(%rax)

0000000000006010 <ctnetlink_new_conntrack>:
    6010:	e8 00 00 00 00       	call   6015 <ctnetlink_new_conntrack+0x5>
    6015:	55                   	push   %rbp
    6016:	48 89 e5             	mov    %rsp,%rbp
    6019:	41 57                	push   %r15
    601b:	41 56                	push   %r14
    601d:	49 89 f6             	mov    %rsi,%r14
    6020:	41 55                	push   %r13
    6022:	41 54                	push   %r12
    6024:	49 89 d4             	mov    %rdx,%r12
    6027:	53                   	push   %rbx
    6028:	48 89 fb             	mov    %rdi,%rbx
    602b:	48 83 ec 68          	sub    $0x68,%rsp
    602f:	65 48 8b 04 25 28 00 	mov    %gs:0x28,%rax
    6036:	00 00 
    6038:	48 89 45 d0          	mov    %rax,-0x30(%rbp)
    603c:	31 c0                	xor    %eax,%eax
    603e:	48 8b 46 18          	mov    0x18(%rsi),%rax
    6042:	44 0f b6 28          	movzbl (%rax),%r13d
    6046:	48 8b 82 90 00 00 00 	mov    0x90(%rdx),%rax
    604d:	c7 85 7c ff ff ff 00 	movl   $0x3000000,-0x84(%rbp)
    6054:	00 00 03 
    6057:	48 85 c0             	test   %rax,%rax
    605a:	74 0f                	je     606b <ctnetlink_new_conntrack+0x5b>
    605c:	0f b7 40 04          	movzwl 0x4(%rax),%eax
    6060:	66 c1 c0 08          	rol    $0x8,%ax
    6064:	66 89 85 7c ff ff ff 	mov    %ax,-0x84(%rbp)
    606b:	49 83 7c 24 08 00    	cmpq   $0x0,0x8(%r12)
    6071:	0f 84 fa 00 00 00    	je     6171 <ctnetlink_new_conntrack+0x161>
    6077:	41 0f b6 cd          	movzbl %r13b,%ecx
    607b:	ba 01 00 00 00       	mov    $0x1,%edx
    6080:	48 8d 75 80          	lea    -0x80(%rbp),%rsi
    6084:	4c 89 e7             	mov    %r12,%rdi
    6087:	4c 8d bd 7c ff ff ff 	lea    -0x84(%rbp),%r15
    608e:	41 b9 ff 0f 00 00    	mov    $0xfff,%r9d
    6094:	89 8d 74 ff ff ff    	mov    %ecx,-0x8c(%rbp)
    609a:	4d 89 f8             	mov    %r15,%r8
    609d:	e8 8e b1 ff ff       	call   1230 <ctnetlink_parse_tuple_filter>
    60a2:	85 c0                	test   %eax,%eax
    60a4:	0f 88 a1 00 00 00    	js     614b <ctnetlink_new_conntrack+0x13b>
    60aa:	49 83 7c 24 10 00    	cmpq   $0x0,0x10(%r12)
    60b0:	8b 8d 74 ff ff ff    	mov    -0x8c(%rbp),%ecx
    60b6:	74 1e                	je     60d6 <ctnetlink_new_conntrack+0xc6>
    60b8:	41 b9 ff 0f 00 00    	mov    $0xfff,%r9d
    60be:	4d 89 f8             	mov    %r15,%r8
    60c1:	48 8d 75 a8          	lea    -0x58(%rbp),%rsi
    60c5:	4c 89 e7             	mov    %r12,%rdi
    60c8:	ba 02 00 00 00       	mov    $0x2,%edx
    60cd:	e8 5e b1 ff ff       	call   1230 <ctnetlink_parse_tuple_filter>
    60d2:	85 c0                	test   %eax,%eax
    60d4:	78 75                	js     614b <ctnetlink_new_conntrack+0x13b>
    60d6:	49 83 7c 24 08 00    	cmpq   $0x0,0x8(%r12)
    60dc:	0f 84 ab 01 00 00    	je     628d <ctnetlink_new_conntrack+0x27d>
    60e2:	49 8b 3e             	mov    (%r14),%rdi
    60e5:	48 8d 55 80          	lea    -0x80(%rbp),%rdx
    60e9:	4c 89 fe             	mov    %r15,%rsi
    60ec:	e8 00 00 00 00       	call   60f1 <ctnetlink_new_conntrack+0xe1>
    60f1:	49 8b 56 10          	mov    0x10(%r14),%rdx
    60f5:	0f b7 4a 06          	movzwl 0x6(%rdx),%ecx
    60f9:	48 85 c0             	test   %rax,%rax
    60fc:	0f 84 8f 00 00 00    	je     6191 <ctnetlink_new_conntrack+0x181>
    6102:	0f b6 70 37          	movzbl 0x37(%rax),%esi
    6106:	48 8d 14 f5 00 00 00 	lea    0x0(,%rsi,8),%rdx
    610d:	00 
    610e:	48 29 f2             	sub    %rsi,%rdx
    6111:	48 c1 e2 03          	shl    $0x3,%rdx
    6115:	48 29 d0             	sub    %rdx,%rax
    6118:	4c 8d 68 f0          	lea    -0x10(%rax),%r13
    611c:	b8 ef ff ff ff       	mov    $0xffffffef,%eax
    6121:	80 e5 02             	and    $0x2,%ch
    6124:	0f 84 83 01 00 00    	je     62ad <ctnetlink_new_conntrack+0x29d>
    612a:	4d 85 ed             	test   %r13,%r13
    612d:	74 1c                	je     614b <ctnetlink_new_conntrack+0x13b>
    612f:	ba ff ff ff ff       	mov    $0xffffffff,%edx
    6134:	f0 41 0f c1 55 00    	lock xadd %edx,0x0(%r13)
    613a:	83 fa 01             	cmp    $0x1,%edx
    613d:	0f 84 31 01 00 00    	je     6274 <ctnetlink_new_conntrack+0x264>
    6143:	85 d2                	test   %edx,%edx
    6145:	0f 8e f6 02 00 00    	jle    6441 <ctnetlink_new_conntrack+0x431>
    614b:	48 8b 5d d0          	mov    -0x30(%rbp),%rbx
    614f:	65 48 33 1c 25 28 00 	xor    %gs:0x28,%rbx
    6156:	00 00 
    6158:	0f 85 42 03 00 00    	jne    64a0 <ctnetlink_new_conntrack+0x490>
    615e:	48 83 c4 68          	add    $0x68,%rsp
    6162:	5b                   	pop    %rbx
    6163:	41 5c                	pop    %r12
    6165:	41 5d                	pop    %r13
    6167:	41 5e                	pop    %r14
    6169:	41 5f                	pop    %r15
    616b:	5d                   	pop    %rbp
    616c:	e9 00 00 00 00       	jmp    6171 <ctnetlink_new_conntrack+0x161>
    6171:	49 83 7c 24 10 00    	cmpq   $0x0,0x10(%r12)
    6177:	74 10                	je     6189 <ctnetlink_new_conntrack+0x179>
    6179:	41 0f b6 cd          	movzbl %r13b,%ecx
    617d:	4c 8d bd 7c ff ff ff 	lea    -0x84(%rbp),%r15
    6184:	e9 2f ff ff ff       	jmp    60b8 <ctnetlink_new_conntrack+0xa8>
    6189:	49 8b 46 10          	mov    0x10(%r14),%rax
    618d:	0f b7 48 06          	movzwl 0x6(%rax),%ecx
    6191:	b8 fe ff ff ff       	mov    $0xfffffffe,%eax
    6196:	80 e5 04             	and    $0x4,%ch
    6199:	74 b0                	je     614b <ctnetlink_new_conntrack+0x13b>
    619b:	49 83 7c 24 08 00    	cmpq   $0x0,0x8(%r12)
    61a1:	0f 84 db 02 00 00    	je     6482 <ctnetlink_new_conntrack+0x472>
    61a7:	49 83 7c 24 10 00    	cmpq   $0x0,0x10(%r12)
    61ad:	0f 84 cf 02 00 00    	je     6482 <ctnetlink_new_conntrack+0x472>
    61b3:	0f b6 45 ce          	movzbl -0x32(%rbp),%eax
    61b7:	38 45 a6             	cmp    %al,-0x5a(%rbp)
    61ba:	0f 85 c2 02 00 00    	jne    6482 <ctnetlink_new_conntrack+0x472>
    61c0:	49 8b 3e             	mov    (%r14),%rdi
    61c3:	45 0f b6 cd          	movzbl %r13b,%r9d
    61c7:	4c 8d 45 a8          	lea    -0x58(%rbp),%r8
    61cb:	48 8d 4d 80          	lea    -0x80(%rbp),%rcx
    61cf:	4c 89 e2             	mov    %r12,%rdx
    61d2:	48 8d b5 7c ff ff ff 	lea    -0x84(%rbp),%rsi
    61d9:	e8 02 f9 ff ff       	call   5ae0 <ctnetlink_create_conntrack>
    61de:	49 89 c5             	mov    %rax,%r13
    61e1:	48 3d 00 f0 ff ff    	cmp    $0xfffffffffffff000,%rax
    61e7:	0f 87 5e ff ff ff    	ja     614b <ctnetlink_new_conntrack+0x13b>
    61ed:	4c 8b b8 80 00 00 00 	mov    0x80(%rax),%r15
    61f4:	41 83 e7 01          	and    $0x1,%r15d
    61f8:	41 83 c7 01          	add    $0x1,%r15d
    61fc:	49 83 bc 24 b0 00 00 	cmpq   $0x0,0xb0(%r12)
    6203:	00 00 
    6205:	74 1b                	je     6222 <ctnetlink_new_conntrack+0x212>
    6207:	4c 89 e6             	mov    %r12,%rsi
    620a:	48 89 c7             	mov    %rax,%rdi
    620d:	e8 be a2 ff ff       	call   4d0 <ctnetlink_attach_labels>
    6212:	41 89 c0             	mov    %eax,%r8d
    6215:	44 89 f8             	mov    %r15d,%eax
    6218:	80 cc 04             	or     $0x4,%ah
    621b:	45 85 c0             	test   %r8d,%r8d
    621e:	44 0f 44 f8          	cmove  %eax,%r15d
    6222:	49 8b 46 10          	mov    0x10(%r14),%rax
    6226:	31 c9                	xor    %ecx,%ecx
    6228:	48 85 c0             	test   %rax,%rax
    622b:	74 0b                	je     6238 <ctnetlink_new_conntrack+0x228>
    622d:	0f b7 48 06          	movzwl 0x6(%rax),%ecx
    6231:	66 c1 e9 03          	shr    $0x3,%cx
    6235:	83 e1 01             	and    $0x1,%ecx
    6238:	44 89 ff             	mov    %r15d,%edi
    623b:	8b 53 34             	mov    0x34(%rbx),%edx
    623e:	4c 89 ee             	mov    %r13,%rsi
    6241:	81 cf f8 09 00 00    	or     $0x9f8,%edi
    6247:	e8 00 00 00 00       	call   624c <ctnetlink_new_conntrack+0x23c>
    624c:	4d 85 ed             	test   %r13,%r13
    624f:	74 1c                	je     626d <ctnetlink_new_conntrack+0x25d>
    6251:	b8 ff ff ff ff       	mov    $0xffffffff,%eax
    6256:	f0 41 0f c1 45 00    	lock xadd %eax,0x0(%r13)
    625c:	83 f8 01             	cmp    $0x1,%eax
    625f:	0f 84 0e 02 00 00    	je     6473 <ctnetlink_new_conntrack+0x463>
    6265:	85 c0                	test   %eax,%eax
    6267:	0f 8e f2 01 00 00    	jle    645f <ctnetlink_new_conntrack+0x44f>
    626d:	31 c0                	xor    %eax,%eax
    626f:	e9 d7 fe ff ff       	jmp    614b <ctnetlink_new_conntrack+0x13b>
    6274:	89 85 74 ff ff ff    	mov    %eax,-0x8c(%rbp)
    627a:	4c 89 ef             	mov    %r13,%rdi
    627d:	e8 00 00 00 00       	call   6282 <ctnetlink_new_conntrack+0x272>
    6282:	8b 85 74 ff ff ff    	mov    -0x8c(%rbp),%eax
    6288:	e9 be fe ff ff       	jmp    614b <ctnetlink_new_conntrack+0x13b>
    628d:	49 83 7c 24 10 00    	cmpq   $0x0,0x10(%r12)
    6293:	0f 84 f0 fe ff ff    	je     6189 <ctnetlink_new_conntrack+0x179>
    6299:	49 8b 3e             	mov    (%r14),%rdi
    629c:	48 8d 55 a8          	lea    -0x58(%rbp),%rdx
    62a0:	4c 89 fe             	mov    %r15,%rsi
    62a3:	e8 00 00 00 00       	call   62a8 <ctnetlink_new_conntrack+0x298>
    62a8:	e9 44 fe ff ff       	jmp    60f1 <ctnetlink_new_conntrack+0xe1>
    62ad:	49 83 7c 24 30 00    	cmpq   $0x0,0x30(%r12)
    62b3:	0f 85 d3 01 00 00    	jne    648c <ctnetlink_new_conntrack+0x47c>
    62b9:	49 83 7c 24 68 00    	cmpq   $0x0,0x68(%r12)
    62bf:	0f 85 c7 01 00 00    	jne    648c <ctnetlink_new_conntrack+0x47c>
    62c5:	49 83 7c 24 70 00    	cmpq   $0x0,0x70(%r12)
    62cb:	0f 85 bb 01 00 00    	jne    648c <ctnetlink_new_conntrack+0x47c>
    62d1:	49 83 7c 24 28 00    	cmpq   $0x0,0x28(%r12)
    62d7:	74 13                	je     62ec <ctnetlink_new_conntrack+0x2dc>
    62d9:	4c 89 e6             	mov    %r12,%rsi
    62dc:	4c 89 ef             	mov    %r13,%rdi
    62df:	e8 ec bc ff ff       	call   1fd0 <ctnetlink_change_helper>
    62e4:	85 c0                	test   %eax,%eax
    62e6:	0f 88 3e fe ff ff    	js     612a <ctnetlink_new_conntrack+0x11a>
    62ec:	49 8b 44 24 38       	mov    0x38(%r12),%rax
    62f1:	48 85 c0             	test   %rax,%rax
    62f4:	74 3a                	je     6330 <ctnetlink_new_conntrack+0x320>
    62f6:	8b 40 04             	mov    0x4(%rax),%eax
    62f9:	b9 ff ff ff 7f       	mov    $0x7fffffff,%ecx
    62fe:	48 8b 15 00 00 00 00 	mov    0x0(%rip),%rdx        # 6305 <ctnetlink_new_conntrack+0x2f5>
    6305:	0f c8                	bswap  %eax
    6307:	89 c0                	mov    %eax,%eax
    6309:	48 69 c0 fa 00 00 00 	imul   $0xfa,%rax,%rax
    6310:	48 3d ff ff ff 7f    	cmp    $0x7fffffff,%rax
    6316:	48 0f 47 c1          	cmova  %rcx,%rax
    631a:	01 d0                	add    %edx,%eax
    631c:	41 89 45 08          	mov    %eax,0x8(%r13)
    6320:	49 8b 85 80 00 00 00 	mov    0x80(%r13),%rax
    6327:	f6 c4 02             	test   $0x2,%ah
    632a:	0f 85 66 01 00 00    	jne    6496 <ctnetlink_new_conntrack+0x486>
    6330:	49 83 7c 24 18 00    	cmpq   $0x0,0x18(%r12)
    6336:	74 13                	je     634b <ctnetlink_new_conntrack+0x33b>
    6338:	4c 89 e6             	mov    %r12,%rsi
    633b:	4c 89 ef             	mov    %r13,%rdi
    633e:	e8 cd ad ff ff       	call   1110 <ctnetlink_change_status>
    6343:	85 c0                	test   %eax,%eax
    6345:	0f 88 df fd ff ff    	js     612a <ctnetlink_new_conntrack+0x11a>
    634b:	49 83 7c 24 20 00    	cmpq   $0x0,0x20(%r12)
    6351:	74 13                	je     6366 <ctnetlink_new_conntrack+0x356>
    6353:	4c 89 e6             	mov    %r12,%rsi
    6356:	4c 89 ef             	mov    %r13,%rdi
    6359:	e8 22 9d ff ff       	call   80 <ctnetlink_change_protoinfo>
    635e:	85 c0                	test   %eax,%eax
    6360:	0f 88 c4 fd ff ff    	js     612a <ctnetlink_new_conntrack+0x11a>
    6366:	49 8b 4c 24 40       	mov    0x40(%r12),%rcx
    636b:	48 85 c9             	test   %rcx,%rcx
    636e:	74 3c                	je     63ac <ctnetlink_new_conntrack+0x39c>
    6370:	49 8b 84 24 a8 00 00 	mov    0xa8(%r12),%rax
    6377:	00 
    6378:	31 d2                	xor    %edx,%edx
    637a:	48 85 c0             	test   %rax,%rax
    637d:	74 09                	je     6388 <ctnetlink_new_conntrack+0x378>
    637f:	8b 40 04             	mov    0x4(%rax),%eax
    6382:	0f c8                	bswap  %eax
    6384:	f7 d0                	not    %eax
    6386:	89 c2                	mov    %eax,%edx
    6388:	8b 41 04             	mov    0x4(%rcx),%eax
    638b:	0f c8                	bswap  %eax
    638d:	89 c1                	mov    %eax,%ecx
    638f:	41 8b 85 b0 00 00 00 	mov    0xb0(%r13),%eax
    6396:	21 d0                	and    %edx,%eax
    6398:	41 8b 95 b0 00 00 00 	mov    0xb0(%r13),%edx
    639f:	31 c8                	xor    %ecx,%eax
    63a1:	39 d0                	cmp    %edx,%eax
    63a3:	74 07                	je     63ac <ctnetlink_new_conntrack+0x39c>
    63a5:	41 89 85 b0 00 00 00 	mov    %eax,0xb0(%r13)
    63ac:	49 83 7c 24 78 00    	cmpq   $0x0,0x78(%r12)
    63b2:	74 7c                	je     6430 <ctnetlink_new_conntrack+0x420>
    63b4:	4c 89 e6             	mov    %r12,%rsi
    63b7:	4c 89 ef             	mov    %r13,%rdi
    63ba:	e8 31 9f ff ff       	call   2f0 <ctnetlink_change_seq_adj>
    63bf:	85 c0                	test   %eax,%eax
    63c1:	0f 88 63 fd ff ff    	js     612a <ctnetlink_new_conntrack+0x11a>
    63c7:	49 83 bc 24 c0 00 00 	cmpq   $0x0,0xc0(%r12)
    63ce:	00 00 
    63d0:	74 13                	je     63e5 <ctnetlink_new_conntrack+0x3d5>
    63d2:	4c 89 e6             	mov    %r12,%rsi
    63d5:	4c 89 ef             	mov    %r13,%rdi
    63d8:	e8 d3 9f ff ff       	call   3b0 <ctnetlink_change_synproxy>
    63dd:	85 c0                	test   %eax,%eax
    63df:	0f 88 45 fd ff ff    	js     612a <ctnetlink_new_conntrack+0x11a>
    63e5:	49 83 bc 24 b0 00 00 	cmpq   $0x0,0xb0(%r12)
    63ec:	00 00 
    63ee:	74 13                	je     6403 <ctnetlink_new_conntrack+0x3f3>
    63f0:	4c 89 e6             	mov    %r12,%rsi
    63f3:	4c 89 ef             	mov    %r13,%rdi
    63f6:	e8 d5 a0 ff ff       	call   4d0 <ctnetlink_attach_labels>
    63fb:	85 c0                	test   %eax,%eax
    63fd:	0f 88 27 fd ff ff    	js     612a <ctnetlink_new_conntrack+0x11a>
    6403:	49 8b 46 10          	mov    0x10(%r14),%rax
    6407:	31 c9                	xor    %ecx,%ecx
    6409:	48 85 c0             	test   %rax,%rax
    640c:	74 0b                	je     6419 <ctnetlink_new_conntrack+0x409>
    640e:	0f b7 48 06          	movzwl 0x6(%rax),%ecx
    6412:	66 c1 e9 03          	shr    $0x3,%cx
    6416:	83 e1 01             	and    $0x1,%ecx
    6419:	8b 53 34             	mov    0x34(%rbx),%edx
    641c:	4c 89 ee             	mov    %r13,%rsi
    641f:	bf f8 0d 00 00       	mov    $0xdf8,%edi
    6424:	e8 00 00 00 00       	call   6429 <ctnetlink_new_conntrack+0x419>
    6429:	31 c0                	xor    %eax,%eax
    642b:	e9 fa fc ff ff       	jmp    612a <ctnetlink_new_conntrack+0x11a>
    6430:	49 83 bc 24 80 00 00 	cmpq   $0x0,0x80(%r12)
    6437:	00 00 
    6439:	0f 85 75 ff ff ff    	jne    63b4 <ctnetlink_new_conntrack+0x3a4>
    643f:	eb 86                	jmp    63c7 <ctnetlink_new_conntrack+0x3b7>
    6441:	be 03 00 00 00       	mov    $0x3,%esi
    6446:	4c 89 ef             	mov    %r13,%rdi
    6449:	89 85 74 ff ff ff    	mov    %eax,-0x8c(%rbp)
    644f:	e8 00 00 00 00       	call   6454 <ctnetlink_new_conntrack+0x444>
    6454:	8b 85 74 ff ff ff    	mov    -0x8c(%rbp),%eax
    645a:	e9 ec fc ff ff       	jmp    614b <ctnetlink_new_conntrack+0x13b>
    645f:	be 03 00 00 00       	mov    $0x3,%esi
    6464:	4c 89 ef             	mov    %r13,%rdi
    6467:	e8 00 00 00 00       	call   646c <ctnetlink_new_conntrack+0x45c>
    646c:	31 c0                	xor    %eax,%eax
    646e:	e9 d8 fc ff ff       	jmp    614b <ctnetlink_new_conntrack+0x13b>
    6473:	4c 89 ef             	mov    %r13,%rdi
    6476:	e8 00 00 00 00       	call   647b <ctnetlink_new_conntrack+0x46b>
    647b:	31 c0                	xor    %eax,%eax
    647d:	e9 c9 fc ff ff       	jmp    614b <ctnetlink_new_conntrack+0x13b>
    6482:	b8 ea ff ff ff       	mov    $0xffffffea,%eax
    6487:	e9 bf fc ff ff       	jmp    614b <ctnetlink_new_conntrack+0x13b>
    648c:	b8 a1 ff ff ff       	mov    $0xffffffa1,%eax
    6491:	e9 94 fc ff ff       	jmp    612a <ctnetlink_new_conntrack+0x11a>
    6496:	b8 c2 ff ff ff       	mov    $0xffffffc2,%eax
    649b:	e9 8a fc ff ff       	jmp    612a <ctnetlink_new_conntrack+0x11a>
    64a0:	e8 00 00 00 00       	call   64a5 <ctnetlink_new_conntrack+0x495>
    64a5:	66 66 2e 0f 1f 84 00 	data16 cs nopw 0x0(%rax,%rax,1)
    64ac:	00 00 00 00 

00000000000064b0 <ctnetlink_del_conntrack>:
    64b0:	e8 00 00 00 00       	call   64b5 <ctnetlink_del_conntrack+0x5>
    64b5:	55                   	push   %rbp
    64b6:	48 89 e5             	mov    %rsp,%rbp
    64b9:	41 57                	push   %r15
    64bb:	41 56                	push   %r14
    64bd:	41 55                	push   %r13
    64bf:	49 89 fd             	mov    %rdi,%r13
    64c2:	41 54                	push   %r12
    64c4:	49 89 d4             	mov    %rdx,%r12
    64c7:	53                   	push   %rbx
    64c8:	48 89 f3             	mov    %rsi,%rbx
    64cb:	48 83 ec 38          	sub    $0x38,%rsp
    64cf:	48 8b 56 18          	mov    0x18(%rsi),%rdx
    64d3:	65 48 8b 04 25 28 00 	mov    %gs:0x28,%rax
    64da:	00 00 
    64dc:	48 89 45 d0          	mov    %rax,-0x30(%rbp)
    64e0:	31 c0                	xor    %eax,%eax
    64e2:	49 8b 84 24 90 00 00 	mov    0x90(%r12),%rax
    64e9:	00 
    64ea:	0f b6 0a             	movzbl (%rdx),%ecx
    64ed:	c7 45 a4 00 00 00 03 	movl   $0x3000000,-0x5c(%rbp)
    64f4:	48 85 c0             	test   %rax,%rax
    64f7:	74 0c                	je     6505 <ctnetlink_del_conntrack+0x55>
    64f9:	0f b7 40 04          	movzwl 0x4(%rax),%eax
    64fd:	66 c1 c0 08          	rol    $0x8,%ax
    6501:	66 89 45 a4          	mov    %ax,-0x5c(%rbp)
    6505:	49 83 7c 24 08 00    	cmpq   $0x0,0x8(%r12)
    650b:	0f 84 e3 00 00 00    	je     65f4 <ctnetlink_del_conntrack+0x144>
    6511:	4c 8d 75 a4          	lea    -0x5c(%rbp),%r14
    6515:	4c 8d 7d a8          	lea    -0x58(%rbp),%r15
    6519:	ba 01 00 00 00       	mov    $0x1,%edx
    651e:	4c 89 e7             	mov    %r12,%rdi
    6521:	41 b9 ff 0f 00 00    	mov    $0xfff,%r9d
    6527:	4d 89 f0             	mov    %r14,%r8
    652a:	4c 89 fe             	mov    %r15,%rsi
    652d:	e8 fe ac ff ff       	call   1230 <ctnetlink_parse_tuple_filter>
    6532:	85 c0                	test   %eax,%eax
    6534:	0f 88 94 00 00 00    	js     65ce <ctnetlink_del_conntrack+0x11e>
    653a:	48 8b 3b             	mov    (%rbx),%rdi
    653d:	4c 89 fa             	mov    %r15,%rdx
    6540:	4c 89 f6             	mov    %r14,%rsi
    6543:	e8 00 00 00 00       	call   6548 <ctnetlink_del_conntrack+0x98>
    6548:	48 85 c0             	test   %rax,%rax
    654b:	0f 84 b4 01 00 00    	je     6705 <ctnetlink_del_conntrack+0x255>
    6551:	0f b6 48 37          	movzbl 0x37(%rax),%ecx
    6555:	48 8d 14 cd 00 00 00 	lea    0x0(,%rcx,8),%rdx
    655c:	00 
    655d:	48 29 ca             	sub    %rcx,%rdx
    6560:	48 c1 e2 03          	shl    $0x3,%rdx
    6564:	48 29 d0             	sub    %rdx,%rax
    6567:	4c 8d 70 f0          	lea    -0x10(%rax),%r14
    656b:	49 8b 44 24 60       	mov    0x60(%r12),%rax
    6570:	48 85 c0             	test   %rax,%rax
    6573:	74 15                	je     658a <ctnetlink_del_conntrack+0xda>
    6575:	44 8b 60 04          	mov    0x4(%rax),%r12d
    6579:	4c 89 f7             	mov    %r14,%rdi
    657c:	e8 00 00 00 00       	call   6581 <ctnetlink_del_conntrack+0xd1>
    6581:	44 39 e0             	cmp    %r12d,%eax
    6584:	0f 85 85 01 00 00    	jne    670f <ctnetlink_del_conntrack+0x25f>
    658a:	48 8b 43 10          	mov    0x10(%rbx),%rax
    658e:	31 d2                	xor    %edx,%edx
    6590:	48 85 c0             	test   %rax,%rax
    6593:	74 0b                	je     65a0 <ctnetlink_del_conntrack+0xf0>
    6595:	0f b7 50 06          	movzwl 0x6(%rax),%edx
    6599:	66 c1 ea 03          	shr    $0x3,%dx
    659d:	83 e2 01             	and    $0x1,%edx
    65a0:	41 8b 75 34          	mov    0x34(%r13),%esi
    65a4:	4c 89 f7             	mov    %r14,%rdi
    65a7:	e8 00 00 00 00       	call   65ac <ctnetlink_del_conntrack+0xfc>
    65ac:	4d 85 f6             	test   %r14,%r14
    65af:	74 1b                	je     65cc <ctnetlink_del_conntrack+0x11c>
    65b1:	b8 ff ff ff ff       	mov    $0xffffffff,%eax
    65b6:	f0 41 0f c1 06       	lock xadd %eax,(%r14)
    65bb:	83 f8 01             	cmp    $0x1,%eax
    65be:	0f 84 db 00 00 00    	je     669f <ctnetlink_del_conntrack+0x1ef>
    65c4:	85 c0                	test   %eax,%eax
    65c6:	0f 8e 1d 01 00 00    	jle    66e9 <ctnetlink_del_conntrack+0x239>
    65cc:	31 c0                	xor    %eax,%eax
    65ce:	48 8b 5d d0          	mov    -0x30(%rbp),%rbx
    65d2:	65 48 33 1c 25 28 00 	xor    %gs:0x28,%rbx
    65d9:	00 00 
    65db:	0f 85 5d 01 00 00    	jne    673e <ctnetlink_del_conntrack+0x28e>
    65e1:	48 83 c4 38          	add    $0x38,%rsp
    65e5:	5b                   	pop    %rbx
    65e6:	41 5c                	pop    %r12
    65e8:	41 5d                	pop    %r13
    65ea:	41 5e                	pop    %r14
    65ec:	41 5f                	pop    %r15
    65ee:	5d                   	pop    %rbp
    65ef:	e9 00 00 00 00       	jmp    65f4 <ctnetlink_del_conntrack+0x144>
    65f4:	49 83 7c 24 10 00    	cmpq   $0x0,0x10(%r12)
    65fa:	74 26                	je     6622 <ctnetlink_del_conntrack+0x172>
    65fc:	4c 8d 75 a4          	lea    -0x5c(%rbp),%r14
    6600:	4c 8d 7d a8          	lea    -0x58(%rbp),%r15
    6604:	ba 02 00 00 00       	mov    $0x2,%edx
    6609:	4c 89 e7             	mov    %r12,%rdi
    660c:	41 b9 ff 0f 00 00    	mov    $0xfff,%r9d
    6612:	4d 89 f0             	mov    %r14,%r8
    6615:	4c 89 fe             	mov    %r15,%rsi
    6618:	e8 13 ac ff ff       	call   1230 <ctnetlink_parse_tuple_filter>
    661d:	e9 10 ff ff ff       	jmp    6532 <ctnetlink_del_conntrack+0x82>
    6622:	80 7a 01 00          	cmpb   $0x0,0x1(%rdx)
    6626:	48 8b 43 10          	mov    0x10(%rbx),%rax
    662a:	45 8b 7d 34          	mov    0x34(%r13),%r15d
    662e:	4c 8b 33             	mov    (%rbx),%r14
    6631:	49 8b b4 24 c8 00 00 	mov    0xc8(%r12),%rsi
    6638:	00 
    6639:	74 73                	je     66ae <ctnetlink_del_conntrack+0x1fe>
    663b:	44 0f b6 c1          	movzbl %cl,%r8d
    663f:	31 db                	xor    %ebx,%ebx
    6641:	48 85 c0             	test   %rax,%rax
    6644:	74 0b                	je     6651 <ctnetlink_del_conntrack+0x1a1>
    6646:	0f b7 58 06          	movzwl 0x6(%rax),%ebx
    664a:	66 c1 eb 03          	shr    $0x3,%bx
    664e:	83 e3 01             	and    $0x1,%ebx
    6651:	84 c9                	test   %cl,%cl
    6653:	74 6b                	je     66c0 <ctnetlink_del_conntrack+0x210>
    6655:	48 85 f6             	test   %rsi,%rsi
    6658:	0f 85 e5 00 00 00    	jne    6743 <ctnetlink_del_conntrack+0x293>
    665e:	44 89 c6             	mov    %r8d,%esi
    6661:	4c 89 e7             	mov    %r12,%rdi
    6664:	e8 57 bc ff ff       	call   22c0 <ctnetlink_alloc_filter>
    6669:	49 89 c5             	mov    %rax,%r13
    666c:	48 3d 00 f0 ff ff    	cmp    $0xfffffffffffff000,%rax
    6672:	0f 87 56 ff ff ff    	ja     65ce <ctnetlink_del_conntrack+0x11e>
    6678:	41 89 d8             	mov    %ebx,%r8d
    667b:	44 89 f9             	mov    %r15d,%ecx
    667e:	4c 89 ea             	mov    %r13,%rdx
    6681:	48 c7 c6 00 00 00 00 	mov    $0x0,%rsi
    6688:	4c 89 f7             	mov    %r14,%rdi
    668b:	e8 00 00 00 00       	call   6690 <ctnetlink_del_conntrack+0x1e0>
    6690:	4c 89 ef             	mov    %r13,%rdi
    6693:	e8 00 00 00 00       	call   6698 <ctnetlink_del_conntrack+0x1e8>
    6698:	31 c0                	xor    %eax,%eax
    669a:	e9 2f ff ff ff       	jmp    65ce <ctnetlink_del_conntrack+0x11e>
    669f:	4c 89 f7             	mov    %r14,%rdi
    66a2:	e8 00 00 00 00       	call   66a7 <ctnetlink_del_conntrack+0x1f7>
    66a7:	31 c0                	xor    %eax,%eax
    66a9:	e9 20 ff ff ff       	jmp    65ce <ctnetlink_del_conntrack+0x11e>
    66ae:	31 db                	xor    %ebx,%ebx
    66b0:	48 85 c0             	test   %rax,%rax
    66b3:	74 0b                	je     66c0 <ctnetlink_del_conntrack+0x210>
    66b5:	0f b7 58 06          	movzwl 0x6(%rax),%ebx
    66b9:	66 c1 eb 03          	shr    $0x3,%bx
    66bd:	83 e3 01             	and    $0x1,%ebx
    66c0:	45 31 c0             	xor    %r8d,%r8d
    66c3:	49 83 7c 24 40 00    	cmpq   $0x0,0x40(%r12)
    66c9:	75 8a                	jne    6655 <ctnetlink_del_conntrack+0x1a5>
    66cb:	b8 a1 ff ff ff       	mov    $0xffffffa1,%eax
    66d0:	48 85 f6             	test   %rsi,%rsi
    66d3:	0f 85 f5 fe ff ff    	jne    65ce <ctnetlink_del_conntrack+0x11e>
    66d9:	4d 8b 6c 24 18       	mov    0x18(%r12),%r13
    66de:	4d 85 ed             	test   %r13,%r13
    66e1:	0f 85 77 ff ff ff    	jne    665e <ctnetlink_del_conntrack+0x1ae>
    66e7:	eb 8f                	jmp    6678 <ctnetlink_del_conntrack+0x1c8>
    66e9:	be 03 00 00 00       	mov    $0x3,%esi
    66ee:	4c 89 f7             	mov    %r14,%rdi
    66f1:	e8 00 00 00 00       	call   66f6 <ctnetlink_del_conntrack+0x246>
    66f6:	31 c0                	xor    %eax,%eax
    66f8:	e9 d1 fe ff ff       	jmp    65ce <ctnetlink_del_conntrack+0x11e>
    66fd:	4c 89 f7             	mov    %r14,%rdi
    6700:	e8 00 00 00 00       	call   6705 <ctnetlink_del_conntrack+0x255>
    6705:	b8 fe ff ff ff       	mov    $0xfffffffe,%eax
    670a:	e9 bf fe ff ff       	jmp    65ce <ctnetlink_del_conntrack+0x11e>
    670f:	4d 85 f6             	test   %r14,%r14
    6712:	74 f1                	je     6705 <ctnetlink_del_conntrack+0x255>
    6714:	b8 ff ff ff ff       	mov    $0xffffffff,%eax
    6719:	f0 41 0f c1 06       	lock xadd %eax,(%r14)
    671e:	83 f8 01             	cmp    $0x1,%eax
    6721:	74 da                	je     66fd <ctnetlink_del_conntrack+0x24d>
    6723:	85 c0                	test   %eax,%eax
    6725:	7f de                	jg     6705 <ctnetlink_del_conntrack+0x255>
    6727:	be 03 00 00 00       	mov    $0x3,%esi
    672c:	4c 89 f7             	mov    %r14,%rdi
    672f:	e8 00 00 00 00       	call   6734 <ctnetlink_del_conntrack+0x284>
    6734:	b8 fe ff ff ff       	mov    $0xfffffffe,%eax
    6739:	e9 90 fe ff ff       	jmp    65ce <ctnetlink_del_conntrack+0x11e>
    673e:	e8 00 00 00 00       	call   6743 <ctnetlink_del_conntrack+0x293>
    6743:	b8 a1 ff ff ff       	mov    $0xffffffa1,%eax
    6748:	e9 81 fe ff ff       	jmp    65ce <ctnetlink_del_conntrack+0x11e>

Disassembly of section .text.unlikely:

0000000000000000 <ctnetlink_dump_helpinfo.cold>:
   0:	48 c7 c7 00 00 00 00 	mov    $0x0,%rdi
   7:	e8 00 00 00 00       	call   c <ctnetlink_dump_helpinfo.cold+0xc>
   c:	48 c7 c7 00 00 00 00 	mov    $0x0,%rdi
  13:	e8 00 00 00 00       	call   18 <ctnetlink_exp_dump_expect.cold>

0000000000000018 <ctnetlink_exp_dump_expect.cold>:
  18:	48 c7 c7 00 00 00 00 	mov    $0x0,%rdi
  1f:	e8 00 00 00 00       	call   24 <ctnetlink_exp_dump_expect.cold+0xc>
  24:	48 c7 c7 00 00 00 00 	mov    $0x0,%rdi
  2b:	e8 00 00 00 00       	call   30 <ctnetlink_glue_seqadj+0x10>

Disassembly of section .altinstr_replacement:

0000000000000000 <.altinstr_replacement>:
   0:	c6 07 00             	movb   $0x0,(%rdi)
   3:	c6 07 00             	movb   $0x0,(%rdi)
   6:	c6 07 00             	movb   $0x0,(%rdi)

Disassembly of section .init.text:

0000000000000000 <init_module>:
   0:	e8 00 00 00 00       	call   5 <init_module+0x5>
   5:	55                   	push   %rbp
   6:	48 c7 c7 00 00 00 00 	mov    $0x0,%rdi
   d:	48 89 e5             	mov    %rsp,%rbp
  10:	41 54                	push   %r12
  12:	e8 00 00 00 00       	call   17 <init_module+0x17>
  17:	85 c0                	test   %eax,%eax
  19:	79 11                	jns    2c <init_module+0x2c>
  1b:	48 c7 c7 00 00 00 00 	mov    $0x0,%rdi
  22:	41 89 c4             	mov    %eax,%r12d
  25:	e8 00 00 00 00       	call   2a <init_module+0x2a>
  2a:	eb 6a                	jmp    96 <init_module+0x96>
  2c:	48 c7 c7 00 00 00 00 	mov    $0x0,%rdi
  33:	e8 00 00 00 00       	call   38 <init_module+0x38>
  38:	41 89 c4             	mov    %eax,%r12d
  3b:	85 c0                	test   %eax,%eax
  3d:	79 0e                	jns    4d <init_module+0x4d>
  3f:	48 c7 c7 00 00 00 00 	mov    $0x0,%rdi
  46:	e8 00 00 00 00       	call   4b <init_module+0x4b>
  4b:	eb 3d                	jmp    8a <init_module+0x8a>
  4d:	48 c7 c7 00 00 00 00 	mov    $0x0,%rdi
  54:	e8 00 00 00 00       	call   59 <init_module+0x59>
  59:	41 89 c4             	mov    %eax,%r12d
  5c:	85 c0                	test   %eax,%eax
  5e:	79 1a                	jns    7a <init_module+0x7a>
  60:	48 c7 c7 00 00 00 00 	mov    $0x0,%rdi
  67:	e8 00 00 00 00       	call   6c <init_module+0x6c>
  6c:	48 c7 c7 00 00 00 00 	mov    $0x0,%rdi
  73:	e8 00 00 00 00       	call   78 <init_module+0x78>
  78:	eb 10                	jmp    8a <init_module+0x8a>
  7a:	48 c7 05 00 00 00 00 	movq   $0x0,0x0(%rip)        # 85 <init_module+0x85>
  81:	00 00 00 00 
  85:	45 31 e4             	xor    %r12d,%r12d
  88:	eb 0c                	jmp    96 <init_module+0x96>
  8a:	48 c7 c7 00 00 00 00 	mov    $0x0,%rdi
  91:	e8 00 00 00 00       	call   96 <init_module+0x96>
  96:	44 89 e0             	mov    %r12d,%eax
  99:	41 5c                	pop    %r12
  9b:	5d                   	pop    %rbp
  9c:	e9 00 00 00 00       	jmp    a1 <ctnl_subsys+0x1>

Disassembly of section .exit.text:

0000000000000000 <cleanup_module>:
   0:	55                   	push   %rbp
   1:	48 c7 c7 00 00 00 00 	mov    $0x0,%rdi
   8:	48 89 e5             	mov    %rsp,%rbp
   b:	e8 00 00 00 00       	call   10 <cleanup_module+0x10>
  10:	48 c7 c7 00 00 00 00 	mov    $0x0,%rdi
  17:	e8 00 00 00 00       	call   1c <cleanup_module+0x1c>
  1c:	48 c7 c7 00 00 00 00 	mov    $0x0,%rdi
  23:	e8 00 00 00 00       	call   28 <cleanup_module+0x28>
  28:	48 c7 05 00 00 00 00 	movq   $0x0,0x0(%rip)        # 33 <cleanup_module+0x33>
  2f:	00 00 00 00 
  33:	e8 00 00 00 00       	call   38 <cleanup_module+0x38>
  38:	5d                   	pop    %rbp
  39:	e9 00 00 00 00       	jmp    3e <__func__.6232+0x6>
